ARM GAS  C:\Users\Halil\AppData\Local\Temp\ccBDZxw9.s 			page 1


   1              		.cpu cortex-m4
   2              		.arch armv7e-m
   3              		.fpu fpv4-sp-d16
   4              		.eabi_attribute 27, 1
   5              		.eabi_attribute 28, 1
   6              		.eabi_attribute 20, 1
   7              		.eabi_attribute 21, 1
   8              		.eabi_attribute 23, 3
   9              		.eabi_attribute 24, 1
  10              		.eabi_attribute 25, 1
  11              		.eabi_attribute 26, 1
  12              		.eabi_attribute 30, 6
  13              		.eabi_attribute 34, 1
  14              		.eabi_attribute 18, 4
  15              		.file	"e22_lib.c"
  16              		.text
  17              	.Ltext0:
  18              		.cfi_sections	.debug_frame
  19              		.file 1 "Core/Src/e22_lib.c"
  20              		.global	data_packet
  21              		.section	.bss.data_packet,"aw",%nobits
  22              		.align	2
  25              	data_packet:
  26 0000 00000000 		.space	9
  26      00000000 
  26      00
  27              		.section	.text.view_e22_response,"ax",%progbits
  28              		.align	1
  29              		.syntax unified
  30              		.thumb
  31              		.thumb_func
  33              	view_e22_response:
  34              	.LFB239:
   1:Core/Src/e22_lib.c **** /*
   2:Core/Src/e22_lib.c ****  * e22_lib.c
   3:Core/Src/e22_lib.c ****  *
   4:Core/Src/e22_lib.c ****  *  Created on: Dec 20, 2024
   5:Core/Src/e22_lib.c ****  *      Author: yahya
   6:Core/Src/e22_lib.c ****  */
   7:Core/Src/e22_lib.c **** #include "e22_lib.h"
   8:Core/Src/e22_lib.c **** 
   9:Core/Src/e22_lib.c **** uint8_t data_packet[9] ={0};
  10:Core/Src/e22_lib.c **** 
  11:Core/Src/e22_lib.c **** static void view_e22_response(UART_HandleTypeDef* lora_uart_hndl, UART_HandleTypeDef* serial_uart_h
  12:Core/Src/e22_lib.c **** {
  35              		.loc 1 12 1
  36              		.cfi_startproc
  37              		@ args = 0, pretend = 0, frame = 16
  38              		@ frame_needed = 1, uses_anonymous_args = 0
  39 0000 80B5     		push	{r7, lr}
  40              		.cfi_def_cfa_offset 8
  41              		.cfi_offset 7, -8
  42              		.cfi_offset 14, -4
  43 0002 84B0     		sub	sp, sp, #16
  44              		.cfi_def_cfa_offset 24
  45 0004 00AF     		add	r7, sp, #0
  46              		.cfi_def_cfa_register 7
ARM GAS  C:\Users\Halil\AppData\Local\Temp\ccBDZxw9.s 			page 2


  47 0006 7860     		str	r0, [r7, #4]
  48 0008 3960     		str	r1, [r7]
  49              	.L4:
  13:Core/Src/e22_lib.c **** 	while (1)
  14:Core/Src/e22_lib.c **** 	{
  15:Core/Src/e22_lib.c **** 	  if (__HAL_UART_GET_FLAG(lora_uart_hndl, UART_FLAG_RXNE) == SET)
  50              		.loc 1 15 8
  51 000a 7B68     		ldr	r3, [r7, #4]
  52 000c 1B68     		ldr	r3, [r3]
  53 000e 1B68     		ldr	r3, [r3]
  54 0010 03F02003 		and	r3, r3, #32
  55              		.loc 1 15 7
  56 0014 202B     		cmp	r3, #32
  57 0016 0DD1     		bne	.L2
  58              	.LBB2:
  16:Core/Src/e22_lib.c **** 	  {
  17:Core/Src/e22_lib.c **** 	    uint8_t dat[1];
  18:Core/Src/e22_lib.c **** 	    HAL_UART_Receive(lora_uart_hndl, (uint8_t *)dat, 1, 100);
  59              		.loc 1 18 6
  60 0018 07F10C01 		add	r1, r7, #12
  61 001c 6423     		movs	r3, #100
  62 001e 0122     		movs	r2, #1
  63 0020 7868     		ldr	r0, [r7, #4]
  64 0022 FFF7FEFF 		bl	HAL_UART_Receive
  19:Core/Src/e22_lib.c **** 	    HAL_UART_Transmit(serial_uart_hndl, (uint8_t *)dat, 1, 100);
  65              		.loc 1 19 6
  66 0026 07F10C01 		add	r1, r7, #12
  67 002a 6423     		movs	r3, #100
  68 002c 0122     		movs	r2, #1
  69 002e 3868     		ldr	r0, [r7]
  70 0030 FFF7FEFF 		bl	HAL_UART_Transmit
  71              	.L2:
  72              	.LBE2:
  20:Core/Src/e22_lib.c **** 	  }
  21:Core/Src/e22_lib.c **** 	  if (__HAL_UART_GET_FLAG(serial_uart_hndl, UART_FLAG_RXNE) == SET)
  73              		.loc 1 21 8
  74 0034 3B68     		ldr	r3, [r7]
  75 0036 1B68     		ldr	r3, [r3]
  76 0038 1B68     		ldr	r3, [r3]
  77 003a 03F02003 		and	r3, r3, #32
  78              		.loc 1 21 7
  79 003e 202B     		cmp	r3, #32
  80 0040 E3D1     		bne	.L4
  81              	.LBB3:
  22:Core/Src/e22_lib.c **** 	  {
  23:Core/Src/e22_lib.c **** 	    uint8_t dat[1];
  24:Core/Src/e22_lib.c **** 	    HAL_UART_Receive(serial_uart_hndl, (uint8_t *)dat, 1, 100);
  82              		.loc 1 24 6
  83 0042 07F10801 		add	r1, r7, #8
  84 0046 6423     		movs	r3, #100
  85 0048 0122     		movs	r2, #1
  86 004a 3868     		ldr	r0, [r7]
  87 004c FFF7FEFF 		bl	HAL_UART_Receive
  25:Core/Src/e22_lib.c **** 	    HAL_UART_Transmit(lora_uart_hndl, (uint8_t *)dat, 1, 100);
  88              		.loc 1 25 6
  89 0050 07F10801 		add	r1, r7, #8
  90 0054 6423     		movs	r3, #100
ARM GAS  C:\Users\Halil\AppData\Local\Temp\ccBDZxw9.s 			page 3


  91 0056 0122     		movs	r2, #1
  92 0058 7868     		ldr	r0, [r7, #4]
  93 005a FFF7FEFF 		bl	HAL_UART_Transmit
  94              	.LBE3:
  15:Core/Src/e22_lib.c **** 	  {
  95              		.loc 1 15 7
  96 005e D4E7     		b	.L4
  97              		.cfi_endproc
  98              	.LFE239:
 100              		.section	.text.e22_init,"ax",%progbits
 101              		.align	1
 102              		.global	e22_init
 103              		.syntax unified
 104              		.thumb
 105              		.thumb_func
 107              	e22_init:
 108              	.LFB240:
  26:Core/Src/e22_lib.c **** 	  }
  27:Core/Src/e22_lib.c **** 	}
  28:Core/Src/e22_lib.c **** }
  29:Core/Src/e22_lib.c **** 
  30:Core/Src/e22_lib.c **** /**
  31:Core/Src/e22_lib.c ****   * @brief  Initializes the lora module by configuration struct.
  32:Core/Src/e22_lib.c ****   * @param  lora_conf_struct: pointer to the lora configuration struct.
  33:Core/Src/e22_lib.c ****   * @param  huart: pointer to the uart handler typedef.
  34:Core/Src/e22_lib.c ****   * @retval None
  35:Core/Src/e22_lib.c ****   */
  36:Core/Src/e22_lib.c **** void e22_init(e22_conf_struct_t *lora_conf_struct, UART_HandleTypeDef* huart)
  37:Core/Src/e22_lib.c **** {
 109              		.loc 1 37 1
 110              		.cfi_startproc
 111              		@ args = 0, pretend = 0, frame = 24
 112              		@ frame_needed = 1, uses_anonymous_args = 0
 113 0000 80B5     		push	{r7, lr}
 114              		.cfi_def_cfa_offset 8
 115              		.cfi_offset 7, -8
 116              		.cfi_offset 14, -4
 117 0002 86B0     		sub	sp, sp, #24
 118              		.cfi_def_cfa_offset 32
 119 0004 00AF     		add	r7, sp, #0
 120              		.cfi_def_cfa_register 7
 121 0006 7860     		str	r0, [r7, #4]
 122 0008 3960     		str	r1, [r7]
  38:Core/Src/e22_lib.c **** 	data_packet[0] = 0xC0;	//Set register command.
 123              		.loc 1 38 17
 124 000a 4A4B     		ldr	r3, .L12
 125 000c C022     		movs	r2, #192
 126 000e 1A70     		strb	r2, [r3]
  39:Core/Src/e22_lib.c **** 	data_packet[1] = 0x03;	//Starting from byte 0x03
 127              		.loc 1 39 17
 128 0010 484B     		ldr	r3, .L12
 129 0012 0322     		movs	r2, #3
 130 0014 5A70     		strb	r2, [r3, #1]
  40:Core/Src/e22_lib.c **** 	data_packet[2] = 0x04;	//6 bytes will be configured.
 131              		.loc 1 40 17
 132 0016 474B     		ldr	r3, .L12
 133 0018 0422     		movs	r2, #4
ARM GAS  C:\Users\Halil\AppData\Local\Temp\ccBDZxw9.s 			page 4


 134 001a 9A70     		strb	r2, [r3, #2]
  41:Core/Src/e22_lib.c **** 	data_packet[3] = lora_conf_struct->air_rate | (lora_conf_struct->parity_bit << 3) | (lora_conf_str
 135              		.loc 1 41 35
 136 001c 7B68     		ldr	r3, [r7, #4]
 137 001e 5B7C     		ldrb	r3, [r3, #17]	@ zero_extendqisi2
 138 0020 5AB2     		sxtb	r2, r3
 139              		.loc 1 41 65
 140 0022 7B68     		ldr	r3, [r7, #4]
 141 0024 1B7C     		ldrb	r3, [r3, #16]	@ zero_extendqisi2
 142              		.loc 1 41 78
 143 0026 DB00     		lsls	r3, r3, #3
 144              		.loc 1 41 46
 145 0028 5BB2     		sxtb	r3, r3
 146 002a 1343     		orrs	r3, r3, r2
 147 002c 5AB2     		sxtb	r2, r3
 148              		.loc 1 41 103
 149 002e 7B68     		ldr	r3, [r7, #4]
 150 0030 DB7B     		ldrb	r3, [r3, #15]	@ zero_extendqisi2
 151              		.loc 1 41 115
 152 0032 5B01     		lsls	r3, r3, #5
 153              		.loc 1 41 84
 154 0034 5BB2     		sxtb	r3, r3
 155 0036 1343     		orrs	r3, r3, r2
 156 0038 5BB2     		sxtb	r3, r3
 157 003a DAB2     		uxtb	r2, r3
 158              		.loc 1 41 17
 159 003c 3D4B     		ldr	r3, .L12
 160 003e DA70     		strb	r2, [r3, #3]
  42:Core/Src/e22_lib.c **** 	data_packet[4] = lora_conf_struct->power | (lora_conf_struct->rssi_noise << 5) | (lora_conf_struct
 161              		.loc 1 42 35
 162 0040 7B68     		ldr	r3, [r7, #4]
 163 0042 1B7D     		ldrb	r3, [r3, #20]	@ zero_extendqisi2
 164 0044 5AB2     		sxtb	r2, r3
 165              		.loc 1 42 62
 166 0046 7B68     		ldr	r3, [r7, #4]
 167 0048 DB7C     		ldrb	r3, [r3, #19]	@ zero_extendqisi2
 168              		.loc 1 42 75
 169 004a 5B01     		lsls	r3, r3, #5
 170              		.loc 1 42 43
 171 004c 5BB2     		sxtb	r3, r3
 172 004e 1343     		orrs	r3, r3, r2
 173 0050 5AB2     		sxtb	r2, r3
 174              		.loc 1 42 100
 175 0052 7B68     		ldr	r3, [r7, #4]
 176 0054 9B7C     		ldrb	r3, [r3, #18]	@ zero_extendqisi2
 177              		.loc 1 42 114
 178 0056 9B01     		lsls	r3, r3, #6
 179              		.loc 1 42 81
 180 0058 5BB2     		sxtb	r3, r3
 181 005a 1343     		orrs	r3, r3, r2
 182 005c 5BB2     		sxtb	r3, r3
 183 005e DAB2     		uxtb	r2, r3
 184              		.loc 1 42 17
 185 0060 344B     		ldr	r3, .L12
 186 0062 1A71     		strb	r2, [r3, #4]
  43:Core/Src/e22_lib.c **** 	data_packet[5] = lora_conf_struct->channel;																																											//channel 0-
 187              		.loc 1 43 35
ARM GAS  C:\Users\Halil\AppData\Local\Temp\ccBDZxw9.s 			page 5


 188 0064 7B68     		ldr	r3, [r7, #4]
 189 0066 5A7D     		ldrb	r2, [r3, #21]	@ zero_extendqisi2
 190              		.loc 1 43 17
 191 0068 324B     		ldr	r3, .L12
 192 006a 5A71     		strb	r2, [r3, #5]
  44:Core/Src/e22_lib.c **** 	data_packet[6] = lora_conf_struct->wor_cycle | (lora_conf_struct->wor << 3) | (lora_conf_struct->l
 193              		.loc 1 44 35
 194 006c 7B68     		ldr	r3, [r7, #4]
 195 006e DB7E     		ldrb	r3, [r3, #27]	@ zero_extendqisi2
 196 0070 5AB2     		sxtb	r2, r3
 197              		.loc 1 44 66
 198 0072 7B68     		ldr	r3, [r7, #4]
 199 0074 9B7E     		ldrb	r3, [r3, #26]	@ zero_extendqisi2
 200              		.loc 1 44 72
 201 0076 DB00     		lsls	r3, r3, #3
 202              		.loc 1 44 47
 203 0078 5BB2     		sxtb	r3, r3
 204 007a 1343     		orrs	r3, r3, r2
 205 007c 5AB2     		sxtb	r2, r3
 206              		.loc 1 44 97
 207 007e 7B68     		ldr	r3, [r7, #4]
 208 0080 5B7E     		ldrb	r3, [r3, #25]	@ zero_extendqisi2
 209              		.loc 1 44 103
 210 0082 1B01     		lsls	r3, r3, #4
 211              		.loc 1 44 78
 212 0084 5BB2     		sxtb	r3, r3
 213 0086 1343     		orrs	r3, r3, r2
 214 0088 5AB2     		sxtb	r2, r3
 215              		.loc 1 44 128
 216 008a 7B68     		ldr	r3, [r7, #4]
 217 008c 1B7E     		ldrb	r3, [r3, #24]	@ zero_extendqisi2
 218              		.loc 1 44 144
 219 008e 5B01     		lsls	r3, r3, #5
 220              		.loc 1 44 109
 221 0090 5BB2     		sxtb	r3, r3
 222 0092 1343     		orrs	r3, r3, r2
 223 0094 5AB2     		sxtb	r2, r3
 224              		.loc 1 44 169
 225 0096 7B68     		ldr	r3, [r7, #4]
 226 0098 DB7D     		ldrb	r3, [r3, #23]	@ zero_extendqisi2
 227              		.loc 1 44 176
 228 009a 9B01     		lsls	r3, r3, #6
 229              		.loc 1 44 150
 230 009c 5BB2     		sxtb	r3, r3
 231 009e 1343     		orrs	r3, r3, r2
 232 00a0 5AB2     		sxtb	r2, r3
 233              		.loc 1 44 201
 234 00a2 7B68     		ldr	r3, [r7, #4]
 235 00a4 9B7D     		ldrb	r3, [r3, #22]	@ zero_extendqisi2
 236              		.loc 1 44 215
 237 00a6 DB01     		lsls	r3, r3, #7
 238              		.loc 1 44 182
 239 00a8 5BB2     		sxtb	r3, r3
 240 00aa 1343     		orrs	r3, r3, r2
 241 00ac 5BB2     		sxtb	r3, r3
 242 00ae DAB2     		uxtb	r2, r3
 243              		.loc 1 44 17
ARM GAS  C:\Users\Halil\AppData\Local\Temp\ccBDZxw9.s 			page 6


 244 00b0 204B     		ldr	r3, .L12
 245 00b2 9A71     		strb	r2, [r3, #6]
  45:Core/Src/e22_lib.c **** 	data_packet[7] = (uint8_t)(lora_conf_struct->key >> 8);																																								//h
 246              		.loc 1 45 45
 247 00b4 7B68     		ldr	r3, [r7, #4]
 248 00b6 9B8B     		ldrh	r3, [r3, #28]
 249              		.loc 1 45 19
 250 00b8 1B0A     		lsrs	r3, r3, #8
 251 00ba 9BB2     		uxth	r3, r3
 252 00bc DAB2     		uxtb	r2, r3
 253              		.loc 1 45 17
 254 00be 1D4B     		ldr	r3, .L12
 255 00c0 DA71     		strb	r2, [r3, #7]
  46:Core/Src/e22_lib.c **** 	data_packet[8] = (uint8_t)(lora_conf_struct->key);																																									//low b
 256              		.loc 1 46 45
 257 00c2 7B68     		ldr	r3, [r7, #4]
 258 00c4 9B8B     		ldrh	r3, [r3, #28]
 259              		.loc 1 46 19
 260 00c6 DAB2     		uxtb	r2, r3
 261              		.loc 1 46 17
 262 00c8 1A4B     		ldr	r3, .L12
 263 00ca 1A72     		strb	r2, [r3, #8]
  47:Core/Src/e22_lib.c **** 
  48:Core/Src/e22_lib.c **** 
  49:Core/Src/e22_lib.c **** 	//UART transmits the configuration datas.
  50:Core/Src/e22_lib.c **** 	uint8_t response[7] = {0};
 264              		.loc 1 50 10
 265 00cc 0023     		movs	r3, #0
 266 00ce FB60     		str	r3, [r7, #12]
 267 00d0 07F11003 		add	r3, r7, #16
 268 00d4 0021     		movs	r1, #0
 269 00d6 0A46     		mov	r2, r1	@ movhi
 270 00d8 1A80     		strh	r2, [r3]	@ movhi
 271 00da 0A46     		mov	r2, r1
 272 00dc 9A70     		strb	r2, [r3, #2]
 273              	.LBB4:
  51:Core/Src/e22_lib.c **** 	for(int i = 0; i < 10; i++)
 274              		.loc 1 51 10
 275 00de 0023     		movs	r3, #0
 276 00e0 7B61     		str	r3, [r7, #20]
 277              		.loc 1 51 2
 278 00e2 1DE0     		b	.L6
 279              	.L9:
  52:Core/Src/e22_lib.c **** 	{
  53:Core/Src/e22_lib.c **** 		HAL_UART_Transmit(huart, data_packet, 7, 50);
 280              		.loc 1 53 3
 281 00e4 3223     		movs	r3, #50
 282 00e6 0722     		movs	r2, #7
 283 00e8 1249     		ldr	r1, .L12
 284 00ea 3868     		ldr	r0, [r7]
 285 00ec FFF7FEFF 		bl	HAL_UART_Transmit
  54:Core/Src/e22_lib.c **** 		HAL_UART_Receive(huart, response, 7, 50);
 286              		.loc 1 54 3
 287 00f0 07F10C01 		add	r1, r7, #12
 288 00f4 3223     		movs	r3, #50
 289 00f6 0722     		movs	r2, #7
 290 00f8 3868     		ldr	r0, [r7]
ARM GAS  C:\Users\Halil\AppData\Local\Temp\ccBDZxw9.s 			page 7


 291 00fa FFF7FEFF 		bl	HAL_UART_Receive
  55:Core/Src/e22_lib.c **** 		if(memcmp(&response[1], &data_packet[1], 6) == 0)
 292              		.loc 1 55 6
 293 00fe 07F10C03 		add	r3, r7, #12
 294 0102 0133     		adds	r3, r3, #1
 295 0104 0622     		movs	r2, #6
 296 0106 0C49     		ldr	r1, .L12+4
 297 0108 1846     		mov	r0, r3
 298 010a FFF7FEFF 		bl	memcmp
 299 010e 0346     		mov	r3, r0
 300              		.loc 1 55 5
 301 0110 002B     		cmp	r3, #0
 302 0112 09D0     		beq	.L10
  56:Core/Src/e22_lib.c **** 			break;
  57:Core/Src/e22_lib.c **** 		HAL_Delay(10);
 303              		.loc 1 57 3 discriminator 2
 304 0114 0A20     		movs	r0, #10
 305 0116 FFF7FEFF 		bl	HAL_Delay
  51:Core/Src/e22_lib.c **** 	{
 306              		.loc 1 51 26 discriminator 2
 307 011a 7B69     		ldr	r3, [r7, #20]
 308 011c 0133     		adds	r3, r3, #1
 309 011e 7B61     		str	r3, [r7, #20]
 310              	.L6:
  51:Core/Src/e22_lib.c **** 	{
 311              		.loc 1 51 19 discriminator 1
 312 0120 7B69     		ldr	r3, [r7, #20]
 313 0122 092B     		cmp	r3, #9
 314 0124 DEDD     		ble	.L9
 315              	.LBE4:
  58:Core/Src/e22_lib.c **** 	}
  59:Core/Src/e22_lib.c **** 
  60:Core/Src/e22_lib.c **** 
  61:Core/Src/e22_lib.c **** 	/*
  62:Core/Src/e22_lib.c **** 	while (1)
  63:Core/Src/e22_lib.c **** 	{
  64:Core/Src/e22_lib.c **** 	  if (__HAL_UART_GET_FLAG(&TELEM_UART_HNDLR, UART_FLAG_RXNE) == SET)
  65:Core/Src/e22_lib.c **** 	  {
  66:Core/Src/e22_lib.c **** 	    uint8_t dat[1];
  67:Core/Src/e22_lib.c **** 	    HAL_UART_Receive(&TELEM_UART_HNDLR, (uint8_t *)dat, 1, 100);
  68:Core/Src/e22_lib.c **** 	    HAL_UART_Transmit(&TTL_HNDLR, (uint8_t *)dat, 1, 100);
  69:Core/Src/e22_lib.c **** 	  }
  70:Core/Src/e22_lib.c **** 	  if (__HAL_UART_GET_FLAG(&TTL_HNDLR, UART_FLAG_RXNE) == SET)
  71:Core/Src/e22_lib.c **** 	  {
  72:Core/Src/e22_lib.c **** 	    uint8_t dat[1];
  73:Core/Src/e22_lib.c **** 	    HAL_UART_Receive(&TTL_HNDLR, (uint8_t *)dat, 1, 100);
  74:Core/Src/e22_lib.c **** 	    HAL_UART_Transmit(&TELEM_UART_HNDLR, (uint8_t *)dat, 1, 100);
  75:Core/Src/e22_lib.c **** 	  }
  76:Core/Src/e22_lib.c **** 	}
  77:Core/Src/e22_lib.c **** 	*/
  78:Core/Src/e22_lib.c **** 
  79:Core/Src/e22_lib.c **** 
  80:Core/Src/e22_lib.c **** }
 316              		.loc 1 80 1
 317 0126 00E0     		b	.L11
 318              	.L10:
 319              	.LBB5:
ARM GAS  C:\Users\Halil\AppData\Local\Temp\ccBDZxw9.s 			page 8


  56:Core/Src/e22_lib.c **** 		HAL_Delay(10);
 320              		.loc 1 56 4
 321 0128 00BF     		nop
 322              	.L11:
 323              	.LBE5:
 324              		.loc 1 80 1
 325 012a 00BF     		nop
 326 012c 1837     		adds	r7, r7, #24
 327              		.cfi_def_cfa_offset 8
 328 012e BD46     		mov	sp, r7
 329              		.cfi_def_cfa_register 13
 330              		@ sp needed
 331 0130 80BD     		pop	{r7, pc}
 332              	.L13:
 333 0132 00BF     		.align	2
 334              	.L12:
 335 0134 00000000 		.word	data_packet
 336 0138 01000000 		.word	data_packet+1
 337              		.cfi_endproc
 338              	.LFE240:
 340              		.section	.text.e22_transmit,"ax",%progbits
 341              		.align	1
 342              		.global	e22_transmit
 343              		.syntax unified
 344              		.thumb
 345              		.thumb_func
 347              	e22_transmit:
 348              	.LFB241:
  81:Core/Src/e22_lib.c **** 
  82:Core/Src/e22_lib.c **** /**
  83:Core/Src/e22_lib.c ****   * @brief  Transmits the data.
  84:Core/Src/e22_lib.c ****   * @param  lora_conf_struct: Pointer to the lora configuration struct.
  85:Core/Src/e22_lib.c ****   * @param  data: Pointer to the data string.
  86:Core/Src/e22_lib.c ****   * @param  huart: Pointer to the uart handler typedef.
  87:Core/Src/e22_lib.c ****   * @retval None
  88:Core/Src/e22_lib.c ****   */
  89:Core/Src/e22_lib.c **** void e22_transmit(e22_conf_struct_t *lora_conf_struct, uint8_t* data, UART_HandleTypeDef* huart, ui
  90:Core/Src/e22_lib.c **** {
 349              		.loc 1 90 1
 350              		.cfi_startproc
 351              		@ args = 0, pretend = 0, frame = 16
 352              		@ frame_needed = 1, uses_anonymous_args = 0
 353 0000 80B5     		push	{r7, lr}
 354              		.cfi_def_cfa_offset 8
 355              		.cfi_offset 7, -8
 356              		.cfi_offset 14, -4
 357 0002 84B0     		sub	sp, sp, #16
 358              		.cfi_def_cfa_offset 24
 359 0004 00AF     		add	r7, sp, #0
 360              		.cfi_def_cfa_register 7
 361 0006 F860     		str	r0, [r7, #12]
 362 0008 B960     		str	r1, [r7, #8]
 363 000a 7A60     		str	r2, [r7, #4]
 364 000c 7B80     		strh	r3, [r7, #2]	@ movhi
  91:Core/Src/e22_lib.c **** 	//For normal working mode M0 -> 0    M1 -> 0
  92:Core/Src/e22_lib.c **** 	HAL_UART_Transmit(huart, data, len, 50);
 365              		.loc 1 92 2
ARM GAS  C:\Users\Halil\AppData\Local\Temp\ccBDZxw9.s 			page 9


 366 000e 7A88     		ldrh	r2, [r7, #2]
 367 0010 3223     		movs	r3, #50
 368 0012 B968     		ldr	r1, [r7, #8]
 369 0014 7868     		ldr	r0, [r7, #4]
 370 0016 FFF7FEFF 		bl	HAL_UART_Transmit
  93:Core/Src/e22_lib.c **** }
 371              		.loc 1 93 1
 372 001a 00BF     		nop
 373 001c 1037     		adds	r7, r7, #16
 374              		.cfi_def_cfa_offset 8
 375 001e BD46     		mov	sp, r7
 376              		.cfi_def_cfa_register 13
 377              		@ sp needed
 378 0020 80BD     		pop	{r7, pc}
 379              		.cfi_endproc
 380              	.LFE241:
 382              		.section	.text.e22_sleep_mode,"ax",%progbits
 383              		.align	1
 384              		.global	e22_sleep_mode
 385              		.syntax unified
 386              		.thumb
 387              		.thumb_func
 389              	e22_sleep_mode:
 390              	.LFB242:
  94:Core/Src/e22_lib.c **** 
  95:Core/Src/e22_lib.c **** /**
  96:Core/Src/e22_lib.c ****   * @brief  Makes the module asleep.
  97:Core/Src/e22_lib.c ****   * @param  lora_conf_struct: Pointer to the lora configuration struct.
  98:Core/Src/e22_lib.c ****   * @retval None
  99:Core/Src/e22_lib.c ****   */
 100:Core/Src/e22_lib.c **** void e22_sleep_mode(e22_conf_struct_t *lora_conf_struct)
 101:Core/Src/e22_lib.c **** {
 391              		.loc 1 101 1
 392              		.cfi_startproc
 393              		@ args = 0, pretend = 0, frame = 8
 394              		@ frame_needed = 1, uses_anonymous_args = 0
 395 0000 80B5     		push	{r7, lr}
 396              		.cfi_def_cfa_offset 8
 397              		.cfi_offset 7, -8
 398              		.cfi_offset 14, -4
 399 0002 82B0     		sub	sp, sp, #8
 400              		.cfi_def_cfa_offset 16
 401 0004 00AF     		add	r7, sp, #0
 402              		.cfi_def_cfa_register 7
 403 0006 7860     		str	r0, [r7, #4]
 102:Core/Src/e22_lib.c **** 	//For sleep mode M0 -> 1    M1 -> 1
 103:Core/Src/e22_lib.c **** 	HAL_GPIO_WritePin(RF_M0_GPIO_Port, RF_M0_Pin, GPIO_PIN_SET);
 404              		.loc 1 103 2
 405 0008 0122     		movs	r2, #1
 406 000a 0421     		movs	r1, #4
 407 000c 0548     		ldr	r0, .L16
 408 000e FFF7FEFF 		bl	HAL_GPIO_WritePin
 104:Core/Src/e22_lib.c **** 	HAL_GPIO_WritePin(RF_M1_GPIO_Port, RF_M1_Pin, GPIO_PIN_SET);
 409              		.loc 1 104 2
 410 0012 0122     		movs	r2, #1
 411 0014 0821     		movs	r1, #8
 412 0016 0348     		ldr	r0, .L16
ARM GAS  C:\Users\Halil\AppData\Local\Temp\ccBDZxw9.s 			page 10


 413 0018 FFF7FEFF 		bl	HAL_GPIO_WritePin
 105:Core/Src/e22_lib.c **** }
 414              		.loc 1 105 1
 415 001c 00BF     		nop
 416 001e 0837     		adds	r7, r7, #8
 417              		.cfi_def_cfa_offset 8
 418 0020 BD46     		mov	sp, r7
 419              		.cfi_def_cfa_register 13
 420              		@ sp needed
 421 0022 80BD     		pop	{r7, pc}
 422              	.L17:
 423              		.align	2
 424              	.L16:
 425 0024 00080240 		.word	1073874944
 426              		.cfi_endproc
 427              	.LFE242:
 429              		.section	.text.e22_config_mode,"ax",%progbits
 430              		.align	1
 431              		.global	e22_config_mode
 432              		.syntax unified
 433              		.thumb
 434              		.thumb_func
 436              	e22_config_mode:
 437              	.LFB243:
 106:Core/Src/e22_lib.c **** 
 107:Core/Src/e22_lib.c **** 
 108:Core/Src/e22_lib.c **** void e22_config_mode(e22_conf_struct_t *lora_conf_struct)
 109:Core/Src/e22_lib.c **** {
 438              		.loc 1 109 1
 439              		.cfi_startproc
 440              		@ args = 0, pretend = 0, frame = 8
 441              		@ frame_needed = 1, uses_anonymous_args = 0
 442 0000 80B5     		push	{r7, lr}
 443              		.cfi_def_cfa_offset 8
 444              		.cfi_offset 7, -8
 445              		.cfi_offset 14, -4
 446 0002 82B0     		sub	sp, sp, #8
 447              		.cfi_def_cfa_offset 16
 448 0004 00AF     		add	r7, sp, #0
 449              		.cfi_def_cfa_register 7
 450 0006 7860     		str	r0, [r7, #4]
 110:Core/Src/e22_lib.c **** 	//For config mode M0 -> 0    M1 -> 1
 111:Core/Src/e22_lib.c **** 	HAL_GPIO_WritePin(RF_M0_GPIO_Port, RF_M0_Pin, GPIO_PIN_RESET);
 451              		.loc 1 111 2
 452 0008 0022     		movs	r2, #0
 453 000a 0421     		movs	r1, #4
 454 000c 0548     		ldr	r0, .L19
 455 000e FFF7FEFF 		bl	HAL_GPIO_WritePin
 112:Core/Src/e22_lib.c **** 	HAL_GPIO_WritePin(RF_M1_GPIO_Port, RF_M1_Pin, GPIO_PIN_SET);
 456              		.loc 1 112 2
 457 0012 0122     		movs	r2, #1
 458 0014 0821     		movs	r1, #8
 459 0016 0348     		ldr	r0, .L19
 460 0018 FFF7FEFF 		bl	HAL_GPIO_WritePin
 113:Core/Src/e22_lib.c **** }
 461              		.loc 1 113 1
 462 001c 00BF     		nop
ARM GAS  C:\Users\Halil\AppData\Local\Temp\ccBDZxw9.s 			page 11


 463 001e 0837     		adds	r7, r7, #8
 464              		.cfi_def_cfa_offset 8
 465 0020 BD46     		mov	sp, r7
 466              		.cfi_def_cfa_register 13
 467              		@ sp needed
 468 0022 80BD     		pop	{r7, pc}
 469              	.L20:
 470              		.align	2
 471              	.L19:
 472 0024 00080240 		.word	1073874944
 473              		.cfi_endproc
 474              	.LFE243:
 476              		.section	.text.e22_transmit_mode,"ax",%progbits
 477              		.align	1
 478              		.global	e22_transmit_mode
 479              		.syntax unified
 480              		.thumb
 481              		.thumb_func
 483              	e22_transmit_mode:
 484              	.LFB244:
 114:Core/Src/e22_lib.c **** 
 115:Core/Src/e22_lib.c **** void e22_transmit_mode(e22_conf_struct_t *lora_conf_struct)
 116:Core/Src/e22_lib.c **** {
 485              		.loc 1 116 1
 486              		.cfi_startproc
 487              		@ args = 0, pretend = 0, frame = 8
 488              		@ frame_needed = 1, uses_anonymous_args = 0
 489 0000 80B5     		push	{r7, lr}
 490              		.cfi_def_cfa_offset 8
 491              		.cfi_offset 7, -8
 492              		.cfi_offset 14, -4
 493 0002 82B0     		sub	sp, sp, #8
 494              		.cfi_def_cfa_offset 16
 495 0004 00AF     		add	r7, sp, #0
 496              		.cfi_def_cfa_register 7
 497 0006 7860     		str	r0, [r7, #4]
 117:Core/Src/e22_lib.c **** 	//For transmission mode M0 -> 0    M1 -> 0
 118:Core/Src/e22_lib.c **** 	HAL_GPIO_WritePin(RF_M0_GPIO_Port, RF_M0_Pin, GPIO_PIN_RESET);
 498              		.loc 1 118 2
 499 0008 0022     		movs	r2, #0
 500 000a 0421     		movs	r1, #4
 501 000c 0548     		ldr	r0, .L22
 502 000e FFF7FEFF 		bl	HAL_GPIO_WritePin
 119:Core/Src/e22_lib.c **** 	HAL_GPIO_WritePin(RF_M1_GPIO_Port, RF_M1_Pin, GPIO_PIN_RESET);
 503              		.loc 1 119 2
 504 0012 0022     		movs	r2, #0
 505 0014 0821     		movs	r1, #8
 506 0016 0348     		ldr	r0, .L22
 507 0018 FFF7FEFF 		bl	HAL_GPIO_WritePin
 120:Core/Src/e22_lib.c **** }
 508              		.loc 1 120 1
 509 001c 00BF     		nop
 510 001e 0837     		adds	r7, r7, #8
 511              		.cfi_def_cfa_offset 8
 512 0020 BD46     		mov	sp, r7
 513              		.cfi_def_cfa_register 13
 514              		@ sp needed
ARM GAS  C:\Users\Halil\AppData\Local\Temp\ccBDZxw9.s 			page 12


 515 0022 80BD     		pop	{r7, pc}
 516              	.L23:
 517              		.align	2
 518              	.L22:
 519 0024 00080240 		.word	1073874944
 520              		.cfi_endproc
 521              	.LFE244:
 523              		.text
 524              	.Letext0:
 525              		.file 2 "C:\\ST\\STM32CubeIDE_1.14.1\\STM32CubeIDE\\plugins\\com.st.stm32cube.ide.mcu.externaltool
 526              		.file 3 "C:\\ST\\STM32CubeIDE_1.14.1\\STM32CubeIDE\\plugins\\com.st.stm32cube.ide.mcu.externaltool
 527              		.file 4 "C:\\ST\\STM32CubeIDE_1.14.1\\STM32CubeIDE\\plugins\\com.st.stm32cube.ide.mcu.externaltool
 528              		.file 5 "Drivers/CMSIS/Device/ST/STM32F4xx/Include/stm32f446xx.h"
 529              		.file 6 "Drivers/CMSIS/Device/ST/STM32F4xx/Include/stm32f4xx.h"
 530              		.file 7 "Drivers/STM32F4xx_HAL_Driver/Inc/stm32f4xx_hal_def.h"
 531              		.file 8 "Drivers/STM32F4xx_HAL_Driver/Inc/stm32f4xx_hal_gpio.h"
 532              		.file 9 "Drivers/STM32F4xx_HAL_Driver/Inc/stm32f4xx_hal_dma.h"
 533              		.file 10 "Drivers/STM32F4xx_HAL_Driver/Inc/stm32f4xx_hal_uart.h"
 534              		.file 11 "Core/Inc/e22_lib.h"
 535              		.file 12 "Drivers/STM32F4xx_HAL_Driver/Inc/stm32f4xx_hal.h"
 536              		.file 13 "C:\\ST\\STM32CubeIDE_1.14.1\\STM32CubeIDE\\plugins\\com.st.stm32cube.ide.mcu.externaltoo
ARM GAS  C:\Users\Halil\AppData\Local\Temp\ccBDZxw9.s 			page 13

