ARM GAS  C:\Users\Halil\AppData\Local\Temp\ccPZFAns.s 			page 1


   1              		.cpu cortex-m4
   2              		.arch armv7e-m
   3              		.fpu fpv4-sp-d16
   4              		.eabi_attribute 27, 1
   5              		.eabi_attribute 28, 1
   6              		.eabi_attribute 20, 1
   7              		.eabi_attribute 21, 1
   8              		.eabi_attribute 23, 3
   9              		.eabi_attribute 24, 1
  10              		.eabi_attribute 25, 1
  11              		.eabi_attribute 26, 1
  12              		.eabi_attribute 30, 6
  13              		.eabi_attribute 34, 1
  14              		.eabi_attribute 18, 4
  15              		.file	"list.c"
  16              		.text
  17              	.Ltext0:
  18              		.cfi_sections	.debug_frame
  19              		.file 1 "Middlewares/Third_Party/FreeRTOS/Source/list.c"
  20              		.section	.text.vListInitialise,"ax",%progbits
  21              		.align	1
  22              		.global	vListInitialise
  23              		.syntax unified
  24              		.thumb
  25              		.thumb_func
  27              	vListInitialise:
  28              	.LFB4:
   1:Middlewares/Third_Party/FreeRTOS/Source/list.c **** /*
   2:Middlewares/Third_Party/FreeRTOS/Source/list.c ****  * FreeRTOS Kernel V10.3.1
   3:Middlewares/Third_Party/FreeRTOS/Source/list.c ****  * Copyright (C) 2020 Amazon.com, Inc. or its affiliates.  All Rights Reserved.
   4:Middlewares/Third_Party/FreeRTOS/Source/list.c ****  *
   5:Middlewares/Third_Party/FreeRTOS/Source/list.c ****  * Permission is hereby granted, free of charge, to any person obtaining a copy of
   6:Middlewares/Third_Party/FreeRTOS/Source/list.c ****  * this software and associated documentation files (the "Software"), to deal in
   7:Middlewares/Third_Party/FreeRTOS/Source/list.c ****  * the Software without restriction, including without limitation the rights to
   8:Middlewares/Third_Party/FreeRTOS/Source/list.c ****  * use, copy, modify, merge, publish, distribute, sublicense, and/or sell copies of
   9:Middlewares/Third_Party/FreeRTOS/Source/list.c ****  * the Software, and to permit persons to whom the Software is furnished to do so,
  10:Middlewares/Third_Party/FreeRTOS/Source/list.c ****  * subject to the following conditions:
  11:Middlewares/Third_Party/FreeRTOS/Source/list.c ****  *
  12:Middlewares/Third_Party/FreeRTOS/Source/list.c ****  * The above copyright notice and this permission notice shall be included in all
  13:Middlewares/Third_Party/FreeRTOS/Source/list.c ****  * copies or substantial portions of the Software.
  14:Middlewares/Third_Party/FreeRTOS/Source/list.c ****  *
  15:Middlewares/Third_Party/FreeRTOS/Source/list.c ****  * THE SOFTWARE IS PROVIDED "AS IS", WITHOUT WARRANTY OF ANY KIND, EXPRESS OR
  16:Middlewares/Third_Party/FreeRTOS/Source/list.c ****  * IMPLIED, INCLUDING BUT NOT LIMITED TO THE WARRANTIES OF MERCHANTABILITY, FITNESS
  17:Middlewares/Third_Party/FreeRTOS/Source/list.c ****  * FOR A PARTICULAR PURPOSE AND NONINFRINGEMENT. IN NO EVENT SHALL THE AUTHORS OR
  18:Middlewares/Third_Party/FreeRTOS/Source/list.c ****  * COPYRIGHT HOLDERS BE LIABLE FOR ANY CLAIM, DAMAGES OR OTHER LIABILITY, WHETHER
  19:Middlewares/Third_Party/FreeRTOS/Source/list.c ****  * IN AN ACTION OF CONTRACT, TORT OR OTHERWISE, ARISING FROM, OUT OF OR IN
  20:Middlewares/Third_Party/FreeRTOS/Source/list.c ****  * CONNECTION WITH THE SOFTWARE OR THE USE OR OTHER DEALINGS IN THE SOFTWARE.
  21:Middlewares/Third_Party/FreeRTOS/Source/list.c ****  *
  22:Middlewares/Third_Party/FreeRTOS/Source/list.c ****  * http://www.FreeRTOS.org
  23:Middlewares/Third_Party/FreeRTOS/Source/list.c ****  * http://aws.amazon.com/freertos
  24:Middlewares/Third_Party/FreeRTOS/Source/list.c ****  *
  25:Middlewares/Third_Party/FreeRTOS/Source/list.c ****  * 1 tab == 4 spaces!
  26:Middlewares/Third_Party/FreeRTOS/Source/list.c ****  */
  27:Middlewares/Third_Party/FreeRTOS/Source/list.c **** 
  28:Middlewares/Third_Party/FreeRTOS/Source/list.c **** 
  29:Middlewares/Third_Party/FreeRTOS/Source/list.c **** #include <stdlib.h>
  30:Middlewares/Third_Party/FreeRTOS/Source/list.c **** #include "FreeRTOS.h"
ARM GAS  C:\Users\Halil\AppData\Local\Temp\ccPZFAns.s 			page 2


  31:Middlewares/Third_Party/FreeRTOS/Source/list.c **** #include "list.h"
  32:Middlewares/Third_Party/FreeRTOS/Source/list.c **** 
  33:Middlewares/Third_Party/FreeRTOS/Source/list.c **** /*-----------------------------------------------------------
  34:Middlewares/Third_Party/FreeRTOS/Source/list.c ****  * PUBLIC LIST API documented in list.h
  35:Middlewares/Third_Party/FreeRTOS/Source/list.c ****  *----------------------------------------------------------*/
  36:Middlewares/Third_Party/FreeRTOS/Source/list.c **** 
  37:Middlewares/Third_Party/FreeRTOS/Source/list.c **** void vListInitialise( List_t * const pxList )
  38:Middlewares/Third_Party/FreeRTOS/Source/list.c **** {
  29              		.loc 1 38 1
  30              		.cfi_startproc
  31              		@ args = 0, pretend = 0, frame = 8
  32              		@ frame_needed = 1, uses_anonymous_args = 0
  33              		@ link register save eliminated.
  34 0000 80B4     		push	{r7}
  35              		.cfi_def_cfa_offset 4
  36              		.cfi_offset 7, -4
  37 0002 83B0     		sub	sp, sp, #12
  38              		.cfi_def_cfa_offset 16
  39 0004 00AF     		add	r7, sp, #0
  40              		.cfi_def_cfa_register 7
  41 0006 7860     		str	r0, [r7, #4]
  39:Middlewares/Third_Party/FreeRTOS/Source/list.c **** 	/* The list structure contains a list item which is used to mark the
  40:Middlewares/Third_Party/FreeRTOS/Source/list.c **** 	end of the list.  To initialise the list the list end is inserted
  41:Middlewares/Third_Party/FreeRTOS/Source/list.c **** 	as the only list entry. */
  42:Middlewares/Third_Party/FreeRTOS/Source/list.c **** 	pxList->pxIndex = ( ListItem_t * ) &( pxList->xListEnd );			/*lint !e826 !e740 !e9087 The mini lis
  42              		.loc 1 42 37
  43 0008 7B68     		ldr	r3, [r7, #4]
  44 000a 03F10802 		add	r2, r3, #8
  45              		.loc 1 42 18
  46 000e 7B68     		ldr	r3, [r7, #4]
  47 0010 5A60     		str	r2, [r3, #4]
  43:Middlewares/Third_Party/FreeRTOS/Source/list.c **** 
  44:Middlewares/Third_Party/FreeRTOS/Source/list.c **** 	/* The list end value is the highest possible value in the list to
  45:Middlewares/Third_Party/FreeRTOS/Source/list.c **** 	ensure it remains at the end of the list. */
  46:Middlewares/Third_Party/FreeRTOS/Source/list.c **** 	pxList->xListEnd.xItemValue = portMAX_DELAY;
  48              		.loc 1 46 30
  49 0012 7B68     		ldr	r3, [r7, #4]
  50 0014 4FF0FF32 		mov	r2, #-1
  51 0018 9A60     		str	r2, [r3, #8]
  47:Middlewares/Third_Party/FreeRTOS/Source/list.c **** 
  48:Middlewares/Third_Party/FreeRTOS/Source/list.c **** 	/* The list end next and previous pointers point to itself so we know
  49:Middlewares/Third_Party/FreeRTOS/Source/list.c **** 	when the list is empty. */
  50:Middlewares/Third_Party/FreeRTOS/Source/list.c **** 	pxList->xListEnd.pxNext = ( ListItem_t * ) &( pxList->xListEnd );	/*lint !e826 !e740 !e9087 The mi
  52              		.loc 1 50 45
  53 001a 7B68     		ldr	r3, [r7, #4]
  54 001c 03F10802 		add	r2, r3, #8
  55              		.loc 1 50 26
  56 0020 7B68     		ldr	r3, [r7, #4]
  57 0022 DA60     		str	r2, [r3, #12]
  51:Middlewares/Third_Party/FreeRTOS/Source/list.c **** 	pxList->xListEnd.pxPrevious = ( ListItem_t * ) &( pxList->xListEnd );/*lint !e826 !e740 !e9087 The
  58              		.loc 1 51 49
  59 0024 7B68     		ldr	r3, [r7, #4]
  60 0026 03F10802 		add	r2, r3, #8
  61              		.loc 1 51 30
  62 002a 7B68     		ldr	r3, [r7, #4]
  63 002c 1A61     		str	r2, [r3, #16]
  52:Middlewares/Third_Party/FreeRTOS/Source/list.c **** 
ARM GAS  C:\Users\Halil\AppData\Local\Temp\ccPZFAns.s 			page 3


  53:Middlewares/Third_Party/FreeRTOS/Source/list.c **** 	pxList->uxNumberOfItems = ( UBaseType_t ) 0U;
  64              		.loc 1 53 26
  65 002e 7B68     		ldr	r3, [r7, #4]
  66 0030 0022     		movs	r2, #0
  67 0032 1A60     		str	r2, [r3]
  54:Middlewares/Third_Party/FreeRTOS/Source/list.c **** 
  55:Middlewares/Third_Party/FreeRTOS/Source/list.c **** 	/* Write known values into the list if
  56:Middlewares/Third_Party/FreeRTOS/Source/list.c **** 	configUSE_LIST_DATA_INTEGRITY_CHECK_BYTES is set to 1. */
  57:Middlewares/Third_Party/FreeRTOS/Source/list.c **** 	listSET_LIST_INTEGRITY_CHECK_1_VALUE( pxList );
  58:Middlewares/Third_Party/FreeRTOS/Source/list.c **** 	listSET_LIST_INTEGRITY_CHECK_2_VALUE( pxList );
  59:Middlewares/Third_Party/FreeRTOS/Source/list.c **** }
  68              		.loc 1 59 1
  69 0034 00BF     		nop
  70 0036 0C37     		adds	r7, r7, #12
  71              		.cfi_def_cfa_offset 4
  72 0038 BD46     		mov	sp, r7
  73              		.cfi_def_cfa_register 13
  74              		@ sp needed
  75 003a 5DF8047B 		ldr	r7, [sp], #4
  76              		.cfi_restore 7
  77              		.cfi_def_cfa_offset 0
  78 003e 7047     		bx	lr
  79              		.cfi_endproc
  80              	.LFE4:
  82              		.section	.text.vListInitialiseItem,"ax",%progbits
  83              		.align	1
  84              		.global	vListInitialiseItem
  85              		.syntax unified
  86              		.thumb
  87              		.thumb_func
  89              	vListInitialiseItem:
  90              	.LFB5:
  60:Middlewares/Third_Party/FreeRTOS/Source/list.c **** /*-----------------------------------------------------------*/
  61:Middlewares/Third_Party/FreeRTOS/Source/list.c **** 
  62:Middlewares/Third_Party/FreeRTOS/Source/list.c **** void vListInitialiseItem( ListItem_t * const pxItem )
  63:Middlewares/Third_Party/FreeRTOS/Source/list.c **** {
  91              		.loc 1 63 1
  92              		.cfi_startproc
  93              		@ args = 0, pretend = 0, frame = 8
  94              		@ frame_needed = 1, uses_anonymous_args = 0
  95              		@ link register save eliminated.
  96 0000 80B4     		push	{r7}
  97              		.cfi_def_cfa_offset 4
  98              		.cfi_offset 7, -4
  99 0002 83B0     		sub	sp, sp, #12
 100              		.cfi_def_cfa_offset 16
 101 0004 00AF     		add	r7, sp, #0
 102              		.cfi_def_cfa_register 7
 103 0006 7860     		str	r0, [r7, #4]
  64:Middlewares/Third_Party/FreeRTOS/Source/list.c **** 	/* Make sure the list item is not recorded as being on a list. */
  65:Middlewares/Third_Party/FreeRTOS/Source/list.c **** 	pxItem->pxContainer = NULL;
 104              		.loc 1 65 22
 105 0008 7B68     		ldr	r3, [r7, #4]
 106 000a 0022     		movs	r2, #0
 107 000c 1A61     		str	r2, [r3, #16]
  66:Middlewares/Third_Party/FreeRTOS/Source/list.c **** 
  67:Middlewares/Third_Party/FreeRTOS/Source/list.c **** 	/* Write known values into the list item if
ARM GAS  C:\Users\Halil\AppData\Local\Temp\ccPZFAns.s 			page 4


  68:Middlewares/Third_Party/FreeRTOS/Source/list.c **** 	configUSE_LIST_DATA_INTEGRITY_CHECK_BYTES is set to 1. */
  69:Middlewares/Third_Party/FreeRTOS/Source/list.c **** 	listSET_FIRST_LIST_ITEM_INTEGRITY_CHECK_VALUE( pxItem );
  70:Middlewares/Third_Party/FreeRTOS/Source/list.c **** 	listSET_SECOND_LIST_ITEM_INTEGRITY_CHECK_VALUE( pxItem );
  71:Middlewares/Third_Party/FreeRTOS/Source/list.c **** }
 108              		.loc 1 71 1
 109 000e 00BF     		nop
 110 0010 0C37     		adds	r7, r7, #12
 111              		.cfi_def_cfa_offset 4
 112 0012 BD46     		mov	sp, r7
 113              		.cfi_def_cfa_register 13
 114              		@ sp needed
 115 0014 5DF8047B 		ldr	r7, [sp], #4
 116              		.cfi_restore 7
 117              		.cfi_def_cfa_offset 0
 118 0018 7047     		bx	lr
 119              		.cfi_endproc
 120              	.LFE5:
 122              		.section	.text.vListInsertEnd,"ax",%progbits
 123              		.align	1
 124              		.global	vListInsertEnd
 125              		.syntax unified
 126              		.thumb
 127              		.thumb_func
 129              	vListInsertEnd:
 130              	.LFB6:
  72:Middlewares/Third_Party/FreeRTOS/Source/list.c **** /*-----------------------------------------------------------*/
  73:Middlewares/Third_Party/FreeRTOS/Source/list.c **** 
  74:Middlewares/Third_Party/FreeRTOS/Source/list.c **** void vListInsertEnd( List_t * const pxList, ListItem_t * const pxNewListItem )
  75:Middlewares/Third_Party/FreeRTOS/Source/list.c **** {
 131              		.loc 1 75 1
 132              		.cfi_startproc
 133              		@ args = 0, pretend = 0, frame = 16
 134              		@ frame_needed = 1, uses_anonymous_args = 0
 135              		@ link register save eliminated.
 136 0000 80B4     		push	{r7}
 137              		.cfi_def_cfa_offset 4
 138              		.cfi_offset 7, -4
 139 0002 85B0     		sub	sp, sp, #20
 140              		.cfi_def_cfa_offset 24
 141 0004 00AF     		add	r7, sp, #0
 142              		.cfi_def_cfa_register 7
 143 0006 7860     		str	r0, [r7, #4]
 144 0008 3960     		str	r1, [r7]
  76:Middlewares/Third_Party/FreeRTOS/Source/list.c **** ListItem_t * const pxIndex = pxList->pxIndex;
 145              		.loc 1 76 20
 146 000a 7B68     		ldr	r3, [r7, #4]
 147 000c 5B68     		ldr	r3, [r3, #4]
 148 000e FB60     		str	r3, [r7, #12]
  77:Middlewares/Third_Party/FreeRTOS/Source/list.c **** 
  78:Middlewares/Third_Party/FreeRTOS/Source/list.c **** 	/* Only effective when configASSERT() is also defined, these tests may catch
  79:Middlewares/Third_Party/FreeRTOS/Source/list.c **** 	the list data structures being overwritten in memory.  They will not catch
  80:Middlewares/Third_Party/FreeRTOS/Source/list.c **** 	data errors caused by incorrect configuration or use of FreeRTOS. */
  81:Middlewares/Third_Party/FreeRTOS/Source/list.c **** 	listTEST_LIST_INTEGRITY( pxList );
  82:Middlewares/Third_Party/FreeRTOS/Source/list.c **** 	listTEST_LIST_ITEM_INTEGRITY( pxNewListItem );
  83:Middlewares/Third_Party/FreeRTOS/Source/list.c **** 
  84:Middlewares/Third_Party/FreeRTOS/Source/list.c **** 	/* Insert a new list item into pxList, but rather than sort the list,
  85:Middlewares/Third_Party/FreeRTOS/Source/list.c **** 	makes the new list item the last item to be removed by a call to
ARM GAS  C:\Users\Halil\AppData\Local\Temp\ccPZFAns.s 			page 5


  86:Middlewares/Third_Party/FreeRTOS/Source/list.c **** 	listGET_OWNER_OF_NEXT_ENTRY(). */
  87:Middlewares/Third_Party/FreeRTOS/Source/list.c **** 	pxNewListItem->pxNext = pxIndex;
 149              		.loc 1 87 24
 150 0010 3B68     		ldr	r3, [r7]
 151 0012 FA68     		ldr	r2, [r7, #12]
 152 0014 5A60     		str	r2, [r3, #4]
  88:Middlewares/Third_Party/FreeRTOS/Source/list.c **** 	pxNewListItem->pxPrevious = pxIndex->pxPrevious;
 153              		.loc 1 88 37
 154 0016 FB68     		ldr	r3, [r7, #12]
 155 0018 9A68     		ldr	r2, [r3, #8]
 156              		.loc 1 88 28
 157 001a 3B68     		ldr	r3, [r7]
 158 001c 9A60     		str	r2, [r3, #8]
  89:Middlewares/Third_Party/FreeRTOS/Source/list.c **** 
  90:Middlewares/Third_Party/FreeRTOS/Source/list.c **** 	/* Only used during decision coverage testing. */
  91:Middlewares/Third_Party/FreeRTOS/Source/list.c **** 	mtCOVERAGE_TEST_DELAY();
  92:Middlewares/Third_Party/FreeRTOS/Source/list.c **** 
  93:Middlewares/Third_Party/FreeRTOS/Source/list.c **** 	pxIndex->pxPrevious->pxNext = pxNewListItem;
 159              		.loc 1 93 9
 160 001e FB68     		ldr	r3, [r7, #12]
 161 0020 9B68     		ldr	r3, [r3, #8]
 162              		.loc 1 93 30
 163 0022 3A68     		ldr	r2, [r7]
 164 0024 5A60     		str	r2, [r3, #4]
  94:Middlewares/Third_Party/FreeRTOS/Source/list.c **** 	pxIndex->pxPrevious = pxNewListItem;
 165              		.loc 1 94 22
 166 0026 FB68     		ldr	r3, [r7, #12]
 167 0028 3A68     		ldr	r2, [r7]
 168 002a 9A60     		str	r2, [r3, #8]
  95:Middlewares/Third_Party/FreeRTOS/Source/list.c **** 
  96:Middlewares/Third_Party/FreeRTOS/Source/list.c **** 	/* Remember which list the item is in. */
  97:Middlewares/Third_Party/FreeRTOS/Source/list.c **** 	pxNewListItem->pxContainer = pxList;
 169              		.loc 1 97 29
 170 002c 3B68     		ldr	r3, [r7]
 171 002e 7A68     		ldr	r2, [r7, #4]
 172 0030 1A61     		str	r2, [r3, #16]
  98:Middlewares/Third_Party/FreeRTOS/Source/list.c **** 
  99:Middlewares/Third_Party/FreeRTOS/Source/list.c **** 	( pxList->uxNumberOfItems )++;
 173              		.loc 1 99 10
 174 0032 7B68     		ldr	r3, [r7, #4]
 175 0034 1B68     		ldr	r3, [r3]
 176              		.loc 1 99 29
 177 0036 5A1C     		adds	r2, r3, #1
 178 0038 7B68     		ldr	r3, [r7, #4]
 179 003a 1A60     		str	r2, [r3]
 100:Middlewares/Third_Party/FreeRTOS/Source/list.c **** }
 180              		.loc 1 100 1
 181 003c 00BF     		nop
 182 003e 1437     		adds	r7, r7, #20
 183              		.cfi_def_cfa_offset 4
 184 0040 BD46     		mov	sp, r7
 185              		.cfi_def_cfa_register 13
 186              		@ sp needed
 187 0042 5DF8047B 		ldr	r7, [sp], #4
 188              		.cfi_restore 7
 189              		.cfi_def_cfa_offset 0
 190 0046 7047     		bx	lr
ARM GAS  C:\Users\Halil\AppData\Local\Temp\ccPZFAns.s 			page 6


 191              		.cfi_endproc
 192              	.LFE6:
 194              		.section	.text.vListInsert,"ax",%progbits
 195              		.align	1
 196              		.global	vListInsert
 197              		.syntax unified
 198              		.thumb
 199              		.thumb_func
 201              	vListInsert:
 202              	.LFB7:
 101:Middlewares/Third_Party/FreeRTOS/Source/list.c **** /*-----------------------------------------------------------*/
 102:Middlewares/Third_Party/FreeRTOS/Source/list.c **** 
 103:Middlewares/Third_Party/FreeRTOS/Source/list.c **** void vListInsert( List_t * const pxList, ListItem_t * const pxNewListItem )
 104:Middlewares/Third_Party/FreeRTOS/Source/list.c **** {
 203              		.loc 1 104 1
 204              		.cfi_startproc
 205              		@ args = 0, pretend = 0, frame = 16
 206              		@ frame_needed = 1, uses_anonymous_args = 0
 207              		@ link register save eliminated.
 208 0000 80B4     		push	{r7}
 209              		.cfi_def_cfa_offset 4
 210              		.cfi_offset 7, -4
 211 0002 85B0     		sub	sp, sp, #20
 212              		.cfi_def_cfa_offset 24
 213 0004 00AF     		add	r7, sp, #0
 214              		.cfi_def_cfa_register 7
 215 0006 7860     		str	r0, [r7, #4]
 216 0008 3960     		str	r1, [r7]
 105:Middlewares/Third_Party/FreeRTOS/Source/list.c **** ListItem_t *pxIterator;
 106:Middlewares/Third_Party/FreeRTOS/Source/list.c **** const TickType_t xValueOfInsertion = pxNewListItem->xItemValue;
 217              		.loc 1 106 18
 218 000a 3B68     		ldr	r3, [r7]
 219 000c 1B68     		ldr	r3, [r3]
 220 000e BB60     		str	r3, [r7, #8]
 107:Middlewares/Third_Party/FreeRTOS/Source/list.c **** 
 108:Middlewares/Third_Party/FreeRTOS/Source/list.c **** 	/* Only effective when configASSERT() is also defined, these tests may catch
 109:Middlewares/Third_Party/FreeRTOS/Source/list.c **** 	the list data structures being overwritten in memory.  They will not catch
 110:Middlewares/Third_Party/FreeRTOS/Source/list.c **** 	data errors caused by incorrect configuration or use of FreeRTOS. */
 111:Middlewares/Third_Party/FreeRTOS/Source/list.c **** 	listTEST_LIST_INTEGRITY( pxList );
 112:Middlewares/Third_Party/FreeRTOS/Source/list.c **** 	listTEST_LIST_ITEM_INTEGRITY( pxNewListItem );
 113:Middlewares/Third_Party/FreeRTOS/Source/list.c **** 
 114:Middlewares/Third_Party/FreeRTOS/Source/list.c **** 	/* Insert the new list item into the list, sorted in xItemValue order.
 115:Middlewares/Third_Party/FreeRTOS/Source/list.c **** 
 116:Middlewares/Third_Party/FreeRTOS/Source/list.c **** 	If the list already contains a list item with the same item value then the
 117:Middlewares/Third_Party/FreeRTOS/Source/list.c **** 	new list item should be placed after it.  This ensures that TCBs which are
 118:Middlewares/Third_Party/FreeRTOS/Source/list.c **** 	stored in ready lists (all of which have the same xItemValue value) get a
 119:Middlewares/Third_Party/FreeRTOS/Source/list.c **** 	share of the CPU.  However, if the xItemValue is the same as the back marker
 120:Middlewares/Third_Party/FreeRTOS/Source/list.c **** 	the iteration loop below will not end.  Therefore the value is checked
 121:Middlewares/Third_Party/FreeRTOS/Source/list.c **** 	first, and the algorithm slightly modified if necessary. */
 122:Middlewares/Third_Party/FreeRTOS/Source/list.c **** 	if( xValueOfInsertion == portMAX_DELAY )
 221              		.loc 1 122 4
 222 0010 BB68     		ldr	r3, [r7, #8]
 223 0012 B3F1FF3F 		cmp	r3, #-1
 224 0016 03D1     		bne	.L5
 123:Middlewares/Third_Party/FreeRTOS/Source/list.c **** 	{
 124:Middlewares/Third_Party/FreeRTOS/Source/list.c **** 		pxIterator = pxList->xListEnd.pxPrevious;
 225              		.loc 1 124 14
ARM GAS  C:\Users\Halil\AppData\Local\Temp\ccPZFAns.s 			page 7


 226 0018 7B68     		ldr	r3, [r7, #4]
 227 001a 1B69     		ldr	r3, [r3, #16]
 228 001c FB60     		str	r3, [r7, #12]
 229 001e 0CE0     		b	.L6
 230              	.L5:
 125:Middlewares/Third_Party/FreeRTOS/Source/list.c **** 	}
 126:Middlewares/Third_Party/FreeRTOS/Source/list.c **** 	else
 127:Middlewares/Third_Party/FreeRTOS/Source/list.c **** 	{
 128:Middlewares/Third_Party/FreeRTOS/Source/list.c **** 		/* *** NOTE ***********************************************************
 129:Middlewares/Third_Party/FreeRTOS/Source/list.c **** 		If you find your application is crashing here then likely causes are
 130:Middlewares/Third_Party/FreeRTOS/Source/list.c **** 		listed below.  In addition see https://www.freertos.org/FAQHelp.html for
 131:Middlewares/Third_Party/FreeRTOS/Source/list.c **** 		more tips, and ensure configASSERT() is defined!
 132:Middlewares/Third_Party/FreeRTOS/Source/list.c **** 		https://www.freertos.org/a00110.html#configASSERT
 133:Middlewares/Third_Party/FreeRTOS/Source/list.c **** 
 134:Middlewares/Third_Party/FreeRTOS/Source/list.c **** 			1) Stack overflow -
 135:Middlewares/Third_Party/FreeRTOS/Source/list.c **** 			   see https://www.freertos.org/Stacks-and-stack-overflow-checking.html
 136:Middlewares/Third_Party/FreeRTOS/Source/list.c **** 			2) Incorrect interrupt priority assignment, especially on Cortex-M
 137:Middlewares/Third_Party/FreeRTOS/Source/list.c **** 			   parts where numerically high priority values denote low actual
 138:Middlewares/Third_Party/FreeRTOS/Source/list.c **** 			   interrupt priorities, which can seem counter intuitive.  See
 139:Middlewares/Third_Party/FreeRTOS/Source/list.c **** 			   https://www.freertos.org/RTOS-Cortex-M3-M4.html and the definition
 140:Middlewares/Third_Party/FreeRTOS/Source/list.c **** 			   of configMAX_SYSCALL_INTERRUPT_PRIORITY on
 141:Middlewares/Third_Party/FreeRTOS/Source/list.c **** 			   https://www.freertos.org/a00110.html
 142:Middlewares/Third_Party/FreeRTOS/Source/list.c **** 			3) Calling an API function from within a critical section or when
 143:Middlewares/Third_Party/FreeRTOS/Source/list.c **** 			   the scheduler is suspended, or calling an API function that does
 144:Middlewares/Third_Party/FreeRTOS/Source/list.c **** 			   not end in "FromISR" from an interrupt.
 145:Middlewares/Third_Party/FreeRTOS/Source/list.c **** 			4) Using a queue or semaphore before it has been initialised or
 146:Middlewares/Third_Party/FreeRTOS/Source/list.c **** 			   before the scheduler has been started (are interrupts firing
 147:Middlewares/Third_Party/FreeRTOS/Source/list.c **** 			   before vTaskStartScheduler() has been called?).
 148:Middlewares/Third_Party/FreeRTOS/Source/list.c **** 		**********************************************************************/
 149:Middlewares/Third_Party/FreeRTOS/Source/list.c **** 
 150:Middlewares/Third_Party/FreeRTOS/Source/list.c **** 		for( pxIterator = ( ListItem_t * ) &( pxList->xListEnd ); pxIterator->pxNext->xItemValue <= xValu
 231              		.loc 1 150 19
 232 0020 7B68     		ldr	r3, [r7, #4]
 233 0022 0833     		adds	r3, r3, #8
 234 0024 FB60     		str	r3, [r7, #12]
 235              		.loc 1 150 3
 236 0026 02E0     		b	.L7
 237              	.L8:
 238              		.loc 1 150 125 discriminator 3
 239 0028 FB68     		ldr	r3, [r7, #12]
 240 002a 5B68     		ldr	r3, [r3, #4]
 241 002c FB60     		str	r3, [r7, #12]
 242              	.L7:
 243              		.loc 1 150 71 discriminator 1
 244 002e FB68     		ldr	r3, [r7, #12]
 245 0030 5B68     		ldr	r3, [r3, #4]
 246              		.loc 1 150 79 discriminator 1
 247 0032 1B68     		ldr	r3, [r3]
 248              		.loc 1 150 92 discriminator 1
 249 0034 BA68     		ldr	r2, [r7, #8]
 250 0036 9A42     		cmp	r2, r3
 251 0038 F6D2     		bcs	.L8
 252              	.L6:
 151:Middlewares/Third_Party/FreeRTOS/Source/list.c **** 		{
 152:Middlewares/Third_Party/FreeRTOS/Source/list.c **** 			/* There is nothing to do here, just iterating to the wanted
 153:Middlewares/Third_Party/FreeRTOS/Source/list.c **** 			insertion position. */
 154:Middlewares/Third_Party/FreeRTOS/Source/list.c **** 		}
ARM GAS  C:\Users\Halil\AppData\Local\Temp\ccPZFAns.s 			page 8


 155:Middlewares/Third_Party/FreeRTOS/Source/list.c **** 	}
 156:Middlewares/Third_Party/FreeRTOS/Source/list.c **** 
 157:Middlewares/Third_Party/FreeRTOS/Source/list.c **** 	pxNewListItem->pxNext = pxIterator->pxNext;
 253              		.loc 1 157 36
 254 003a FB68     		ldr	r3, [r7, #12]
 255 003c 5A68     		ldr	r2, [r3, #4]
 256              		.loc 1 157 24
 257 003e 3B68     		ldr	r3, [r7]
 258 0040 5A60     		str	r2, [r3, #4]
 158:Middlewares/Third_Party/FreeRTOS/Source/list.c **** 	pxNewListItem->pxNext->pxPrevious = pxNewListItem;
 259              		.loc 1 158 15
 260 0042 3B68     		ldr	r3, [r7]
 261 0044 5B68     		ldr	r3, [r3, #4]
 262              		.loc 1 158 36
 263 0046 3A68     		ldr	r2, [r7]
 264 0048 9A60     		str	r2, [r3, #8]
 159:Middlewares/Third_Party/FreeRTOS/Source/list.c **** 	pxNewListItem->pxPrevious = pxIterator;
 265              		.loc 1 159 28
 266 004a 3B68     		ldr	r3, [r7]
 267 004c FA68     		ldr	r2, [r7, #12]
 268 004e 9A60     		str	r2, [r3, #8]
 160:Middlewares/Third_Party/FreeRTOS/Source/list.c **** 	pxIterator->pxNext = pxNewListItem;
 269              		.loc 1 160 21
 270 0050 FB68     		ldr	r3, [r7, #12]
 271 0052 3A68     		ldr	r2, [r7]
 272 0054 5A60     		str	r2, [r3, #4]
 161:Middlewares/Third_Party/FreeRTOS/Source/list.c **** 
 162:Middlewares/Third_Party/FreeRTOS/Source/list.c **** 	/* Remember which list the item is in.  This allows fast removal of the
 163:Middlewares/Third_Party/FreeRTOS/Source/list.c **** 	item later. */
 164:Middlewares/Third_Party/FreeRTOS/Source/list.c **** 	pxNewListItem->pxContainer = pxList;
 273              		.loc 1 164 29
 274 0056 3B68     		ldr	r3, [r7]
 275 0058 7A68     		ldr	r2, [r7, #4]
 276 005a 1A61     		str	r2, [r3, #16]
 165:Middlewares/Third_Party/FreeRTOS/Source/list.c **** 
 166:Middlewares/Third_Party/FreeRTOS/Source/list.c **** 	( pxList->uxNumberOfItems )++;
 277              		.loc 1 166 10
 278 005c 7B68     		ldr	r3, [r7, #4]
 279 005e 1B68     		ldr	r3, [r3]
 280              		.loc 1 166 29
 281 0060 5A1C     		adds	r2, r3, #1
 282 0062 7B68     		ldr	r3, [r7, #4]
 283 0064 1A60     		str	r2, [r3]
 167:Middlewares/Third_Party/FreeRTOS/Source/list.c **** }
 284              		.loc 1 167 1
 285 0066 00BF     		nop
 286 0068 1437     		adds	r7, r7, #20
 287              		.cfi_def_cfa_offset 4
 288 006a BD46     		mov	sp, r7
 289              		.cfi_def_cfa_register 13
 290              		@ sp needed
 291 006c 5DF8047B 		ldr	r7, [sp], #4
 292              		.cfi_restore 7
 293              		.cfi_def_cfa_offset 0
 294 0070 7047     		bx	lr
 295              		.cfi_endproc
 296              	.LFE7:
ARM GAS  C:\Users\Halil\AppData\Local\Temp\ccPZFAns.s 			page 9


 298              		.section	.text.uxListRemove,"ax",%progbits
 299              		.align	1
 300              		.global	uxListRemove
 301              		.syntax unified
 302              		.thumb
 303              		.thumb_func
 305              	uxListRemove:
 306              	.LFB8:
 168:Middlewares/Third_Party/FreeRTOS/Source/list.c **** /*-----------------------------------------------------------*/
 169:Middlewares/Third_Party/FreeRTOS/Source/list.c **** 
 170:Middlewares/Third_Party/FreeRTOS/Source/list.c **** UBaseType_t uxListRemove( ListItem_t * const pxItemToRemove )
 171:Middlewares/Third_Party/FreeRTOS/Source/list.c **** {
 307              		.loc 1 171 1
 308              		.cfi_startproc
 309              		@ args = 0, pretend = 0, frame = 16
 310              		@ frame_needed = 1, uses_anonymous_args = 0
 311              		@ link register save eliminated.
 312 0000 80B4     		push	{r7}
 313              		.cfi_def_cfa_offset 4
 314              		.cfi_offset 7, -4
 315 0002 85B0     		sub	sp, sp, #20
 316              		.cfi_def_cfa_offset 24
 317 0004 00AF     		add	r7, sp, #0
 318              		.cfi_def_cfa_register 7
 319 0006 7860     		str	r0, [r7, #4]
 172:Middlewares/Third_Party/FreeRTOS/Source/list.c **** /* The list item knows which list it is in.  Obtain the list from the list
 173:Middlewares/Third_Party/FreeRTOS/Source/list.c **** item. */
 174:Middlewares/Third_Party/FreeRTOS/Source/list.c **** List_t * const pxList = pxItemToRemove->pxContainer;
 320              		.loc 1 174 16
 321 0008 7B68     		ldr	r3, [r7, #4]
 322 000a 1B69     		ldr	r3, [r3, #16]
 323 000c FB60     		str	r3, [r7, #12]
 175:Middlewares/Third_Party/FreeRTOS/Source/list.c **** 
 176:Middlewares/Third_Party/FreeRTOS/Source/list.c **** 	pxItemToRemove->pxNext->pxPrevious = pxItemToRemove->pxPrevious;
 324              		.loc 1 176 16
 325 000e 7B68     		ldr	r3, [r7, #4]
 326 0010 5B68     		ldr	r3, [r3, #4]
 327              		.loc 1 176 53
 328 0012 7A68     		ldr	r2, [r7, #4]
 329 0014 9268     		ldr	r2, [r2, #8]
 330              		.loc 1 176 37
 331 0016 9A60     		str	r2, [r3, #8]
 177:Middlewares/Third_Party/FreeRTOS/Source/list.c **** 	pxItemToRemove->pxPrevious->pxNext = pxItemToRemove->pxNext;
 332              		.loc 1 177 16
 333 0018 7B68     		ldr	r3, [r7, #4]
 334 001a 9B68     		ldr	r3, [r3, #8]
 335              		.loc 1 177 53
 336 001c 7A68     		ldr	r2, [r7, #4]
 337 001e 5268     		ldr	r2, [r2, #4]
 338              		.loc 1 177 37
 339 0020 5A60     		str	r2, [r3, #4]
 178:Middlewares/Third_Party/FreeRTOS/Source/list.c **** 
 179:Middlewares/Third_Party/FreeRTOS/Source/list.c **** 	/* Only used during decision coverage testing. */
 180:Middlewares/Third_Party/FreeRTOS/Source/list.c **** 	mtCOVERAGE_TEST_DELAY();
 181:Middlewares/Third_Party/FreeRTOS/Source/list.c **** 
 182:Middlewares/Third_Party/FreeRTOS/Source/list.c **** 	/* Make sure the index is left pointing to a valid item. */
 183:Middlewares/Third_Party/FreeRTOS/Source/list.c **** 	if( pxList->pxIndex == pxItemToRemove )
ARM GAS  C:\Users\Halil\AppData\Local\Temp\ccPZFAns.s 			page 10


 340              		.loc 1 183 12
 341 0022 FB68     		ldr	r3, [r7, #12]
 342 0024 5B68     		ldr	r3, [r3, #4]
 343              		.loc 1 183 4
 344 0026 7A68     		ldr	r2, [r7, #4]
 345 0028 9A42     		cmp	r2, r3
 346 002a 03D1     		bne	.L10
 184:Middlewares/Third_Party/FreeRTOS/Source/list.c **** 	{
 185:Middlewares/Third_Party/FreeRTOS/Source/list.c **** 		pxList->pxIndex = pxItemToRemove->pxPrevious;
 347              		.loc 1 185 35
 348 002c 7B68     		ldr	r3, [r7, #4]
 349 002e 9A68     		ldr	r2, [r3, #8]
 350              		.loc 1 185 19
 351 0030 FB68     		ldr	r3, [r7, #12]
 352 0032 5A60     		str	r2, [r3, #4]
 353              	.L10:
 186:Middlewares/Third_Party/FreeRTOS/Source/list.c **** 	}
 187:Middlewares/Third_Party/FreeRTOS/Source/list.c **** 	else
 188:Middlewares/Third_Party/FreeRTOS/Source/list.c **** 	{
 189:Middlewares/Third_Party/FreeRTOS/Source/list.c **** 		mtCOVERAGE_TEST_MARKER();
 190:Middlewares/Third_Party/FreeRTOS/Source/list.c **** 	}
 191:Middlewares/Third_Party/FreeRTOS/Source/list.c **** 
 192:Middlewares/Third_Party/FreeRTOS/Source/list.c **** 	pxItemToRemove->pxContainer = NULL;
 354              		.loc 1 192 30
 355 0034 7B68     		ldr	r3, [r7, #4]
 356 0036 0022     		movs	r2, #0
 357 0038 1A61     		str	r2, [r3, #16]
 193:Middlewares/Third_Party/FreeRTOS/Source/list.c **** 	( pxList->uxNumberOfItems )--;
 358              		.loc 1 193 10
 359 003a FB68     		ldr	r3, [r7, #12]
 360 003c 1B68     		ldr	r3, [r3]
 361              		.loc 1 193 29
 362 003e 5A1E     		subs	r2, r3, #1
 363 0040 FB68     		ldr	r3, [r7, #12]
 364 0042 1A60     		str	r2, [r3]
 194:Middlewares/Third_Party/FreeRTOS/Source/list.c **** 
 195:Middlewares/Third_Party/FreeRTOS/Source/list.c **** 	return pxList->uxNumberOfItems;
 365              		.loc 1 195 15
 366 0044 FB68     		ldr	r3, [r7, #12]
 367 0046 1B68     		ldr	r3, [r3]
 196:Middlewares/Third_Party/FreeRTOS/Source/list.c **** }
 368              		.loc 1 196 1
 369 0048 1846     		mov	r0, r3
 370 004a 1437     		adds	r7, r7, #20
 371              		.cfi_def_cfa_offset 4
 372 004c BD46     		mov	sp, r7
 373              		.cfi_def_cfa_register 13
 374              		@ sp needed
 375 004e 5DF8047B 		ldr	r7, [sp], #4
 376              		.cfi_restore 7
 377              		.cfi_def_cfa_offset 0
 378 0052 7047     		bx	lr
 379              		.cfi_endproc
 380              	.LFE8:
 382              		.text
 383              	.Letext0:
 384              		.file 2 "C:\\ST\\STM32CubeIDE_1.14.1\\STM32CubeIDE\\plugins\\com.st.stm32cube.ide.mcu.externaltool
ARM GAS  C:\Users\Halil\AppData\Local\Temp\ccPZFAns.s 			page 11


 385              		.file 3 "C:\\ST\\STM32CubeIDE_1.14.1\\STM32CubeIDE\\plugins\\com.st.stm32cube.ide.mcu.externaltool
 386              		.file 4 "Middlewares/Third_Party/FreeRTOS/Source/portable/GCC/ARM_CM4F/portmacro.h"
 387              		.file 5 "Middlewares/Third_Party/FreeRTOS/Source/include/list.h"
ARM GAS  C:\Users\Halil\AppData\Local\Temp\ccPZFAns.s 			page 12


DEFINED SYMBOLS
                            *ABS*:00000000 list.c
C:\Users\Halil\AppData\Local\Temp\ccPZFAns.s:21     .text.vListInitialise:00000000 $t
C:\Users\Halil\AppData\Local\Temp\ccPZFAns.s:27     .text.vListInitialise:00000000 vListInitialise
C:\Users\Halil\AppData\Local\Temp\ccPZFAns.s:83     .text.vListInitialiseItem:00000000 $t
C:\Users\Halil\AppData\Local\Temp\ccPZFAns.s:89     .text.vListInitialiseItem:00000000 vListInitialiseItem
C:\Users\Halil\AppData\Local\Temp\ccPZFAns.s:123    .text.vListInsertEnd:00000000 $t
C:\Users\Halil\AppData\Local\Temp\ccPZFAns.s:129    .text.vListInsertEnd:00000000 vListInsertEnd
C:\Users\Halil\AppData\Local\Temp\ccPZFAns.s:195    .text.vListInsert:00000000 $t
C:\Users\Halil\AppData\Local\Temp\ccPZFAns.s:201    .text.vListInsert:00000000 vListInsert
C:\Users\Halil\AppData\Local\Temp\ccPZFAns.s:299    .text.uxListRemove:00000000 $t
C:\Users\Halil\AppData\Local\Temp\ccPZFAns.s:305    .text.uxListRemove:00000000 uxListRemove
                           .group:00000000 wm4.0.fbeba72283fbbed79c5ed62adcf8946b
                           .group:00000000 wm4.ieeefp.h.77.9dc6728f2d488a554e7c0cabef1b6c33
                           .group:00000000 wm4._newlib_version.h.4.6d111ab2e95434b664b53815e5c8ccba
                           .group:00000000 wm4.newlib.h.27.13c3dcbbace0888e13b51843af197034
                           .group:00000000 wm4.features.h.22.7877b139107948f7dadcf3660cc79cfd
                           .group:00000000 wm4.config.h.224.10ee1ad185d877c6e334e6581faab44d
                           .group:00000000 wm4._ansi.h.31.de524f58584151836e90d8620a16f8e8
                           .group:00000000 wm4.stdlib.h.13.4ed386f5c1a80d71e72172885d946ef2
                           .group:00000000 wm4.stddef.h.185.882514a1a6169ceba9142f401cbe27c6
                           .group:00000000 wm4.stddef.h.39.f07083f9b666a9e5c52a336c758fdd72
                           .group:00000000 wm4._types.h.20.dd0d04dca3800a0d2a6129b87f3adbb2
                           .group:00000000 wm4.stddef.h.158.5f30652bb2ea05b142c1bbee9108c999
                           .group:00000000 wm4._default_types.h.6.959254cf5f09734ea7516c89e8bb21bd
                           .group:00000000 wm4._types.h.127.3bdfe3ff8ea2d0985b03d9cbe93480e3
                           .group:00000000 wm4.reent.h.17.e292bf8b0bec6c96e131a54347145a30
                           .group:00000000 wm4.lock.h.2.1461d1fff82dffe8bfddc23307f6484f
                           .group:00000000 wm4.reent.h.77.89f7dde66c62b1f1dee32bdb6ab2d544
                           .group:00000000 wm4.cdefs.h.49.f93868eb904b9ca05b5c0257d31128ca
                           .group:00000000 wm4.alloca.h.8.dfc0c703c47ec3e69746825b17d9e66d
                           .group:00000000 wm4.stdlib.h.56.f4862cfbf4363a1db01842d5bdf72c18
                           .group:00000000 wm4._intsup.h.10.48bafbb683905c4daa4565a85aeeb264
                           .group:00000000 wm4._stdint.h.10.c24fa3af3bc1706662bb5593a907e841
                           .group:00000000 wm4.stdint.h.23.d53047a68f4a85177f80b422d52785ed
                           .group:00000000 wm4.FreeRTOSConfig.h.32.8e019a6631174f777e4f6ede9e2bb7e9
                           .group:00000000 wm4.stdarg.h.31.b55da1089056868966f25de5dbfc7d3c
                           .group:00000000 wm4.Global.h.69.e0f48c7eb64cd3647ceacea2cc368f43
                           .group:00000000 wm4.SEGGER.h.93.885d9d7ea302677e269465e6da347b9f
                           .group:00000000 wm4.SEGGER_SYSVIEW.h.88.65dd41e8fc33fc8f03c978fd13231926
                           .group:00000000 wm4.SEGGER_SYSVIEW_FreeRTOS.h.80.d232dda0d91b880546b63cc6970a0231
                           .group:00000000 wm4.projdefs.h.29.3472c8470d131a5f474bc7437ea94609
                           .group:00000000 wm4.portmacro.h.30.ebb5f3ce711e1dad21b3172c9bc8e19f
                           .group:00000000 wm4.portable.h.64.742f2ce568820e866a7b541b4c77966f
                           .group:00000000 wm4.mpu_wrappers.h.29.4f9aea82ee68d943d141825e5294de63
                           .group:00000000 wm4.FreeRTOS.h.66.cc51f96fb61ed1e446bb6cea86adf7fa
                           .group:00000000 wm4.list.h.61.5c5a38f6bc6687eed6d893e57dabd8e6

NO UNDEFINED SYMBOLS
