ARM GAS  C:\Users\Halil\AppData\Local\Temp\cce2uIVz.s 			page 1


   1              		.cpu cortex-m4
   2              		.arch armv7e-m
   3              		.fpu fpv4-sp-d16
   4              		.eabi_attribute 27, 1
   5              		.eabi_attribute 28, 1
   6              		.eabi_attribute 20, 1
   7              		.eabi_attribute 21, 1
   8              		.eabi_attribute 23, 3
   9              		.eabi_attribute 24, 1
  10              		.eabi_attribute 25, 1
  11              		.eabi_attribute 26, 1
  12              		.eabi_attribute 30, 6
  13              		.eabi_attribute 34, 1
  14              		.eabi_attribute 18, 4
  15              		.file	"main.c"
  16              		.text
  17              	.Ltext0:
  18              		.cfi_sections	.debug_frame
  19              		.file 1 "Core/Src/main.c"
  20              		.global	hadc1
  21              		.section	.bss.hadc1,"aw",%nobits
  22              		.align	2
  25              	hadc1:
  26 0000 00000000 		.space	72
  26      00000000 
  26      00000000 
  26      00000000 
  26      00000000 
  27              		.global	hadc2
  28              		.section	.bss.hadc2,"aw",%nobits
  29              		.align	2
  32              	hadc2:
  33 0000 00000000 		.space	72
  33      00000000 
  33      00000000 
  33      00000000 
  33      00000000 
  34              		.global	hadc3
  35              		.section	.bss.hadc3,"aw",%nobits
  36              		.align	2
  39              	hadc3:
  40 0000 00000000 		.space	72
  40      00000000 
  40      00000000 
  40      00000000 
  40      00000000 
  41              		.global	hi2c1
  42              		.section	.bss.hi2c1,"aw",%nobits
  43              		.align	2
  46              	hi2c1:
  47 0000 00000000 		.space	84
  47      00000000 
  47      00000000 
  47      00000000 
  47      00000000 
  48              		.global	hi2c3
  49              		.section	.bss.hi2c3,"aw",%nobits
ARM GAS  C:\Users\Halil\AppData\Local\Temp\cce2uIVz.s 			page 2


  50              		.align	2
  53              	hi2c3:
  54 0000 00000000 		.space	84
  54      00000000 
  54      00000000 
  54      00000000 
  54      00000000 
  55              		.global	hdma_i2c1_rx
  56              		.section	.bss.hdma_i2c1_rx,"aw",%nobits
  57              		.align	2
  60              	hdma_i2c1_rx:
  61 0000 00000000 		.space	96
  61      00000000 
  61      00000000 
  61      00000000 
  61      00000000 
  62              		.global	hspi1
  63              		.section	.bss.hspi1,"aw",%nobits
  64              		.align	2
  67              	hspi1:
  68 0000 00000000 		.space	88
  68      00000000 
  68      00000000 
  68      00000000 
  68      00000000 
  69              		.global	hspi3
  70              		.section	.bss.hspi3,"aw",%nobits
  71              		.align	2
  74              	hspi3:
  75 0000 00000000 		.space	88
  75      00000000 
  75      00000000 
  75      00000000 
  75      00000000 
  76              		.global	htim2
  77              		.section	.bss.htim2,"aw",%nobits
  78              		.align	2
  81              	htim2:
  82 0000 00000000 		.space	72
  82      00000000 
  82      00000000 
  82      00000000 
  82      00000000 
  83              		.global	huart4
  84              		.section	.bss.huart4,"aw",%nobits
  85              		.align	2
  88              	huart4:
  89 0000 00000000 		.space	72
  89      00000000 
  89      00000000 
  89      00000000 
  89      00000000 
  90              		.global	huart2
  91              		.section	.bss.huart2,"aw",%nobits
  92              		.align	2
  95              	huart2:
  96 0000 00000000 		.space	72
ARM GAS  C:\Users\Halil\AppData\Local\Temp\cce2uIVz.s 			page 3


  96      00000000 
  96      00000000 
  96      00000000 
  96      00000000 
  97              		.global	huart6
  98              		.section	.bss.huart6,"aw",%nobits
  99              		.align	2
 102              	huart6:
 103 0000 00000000 		.space	72
 103      00000000 
 103      00000000 
 103      00000000 
 103      00000000 
 104              		.global	hdma_uart4_tx
 105              		.section	.bss.hdma_uart4_tx,"aw",%nobits
 106              		.align	2
 109              	hdma_uart4_tx:
 110 0000 00000000 		.space	96
 110      00000000 
 110      00000000 
 110      00000000 
 110      00000000 
 111              		.global	hdma_usart2_tx
 112              		.section	.bss.hdma_usart2_tx,"aw",%nobits
 113              		.align	2
 116              	hdma_usart2_tx:
 117 0000 00000000 		.space	96
 117      00000000 
 117      00000000 
 117      00000000 
 117      00000000 
 118              		.global	hdma_usart6_rx
 119              		.section	.bss.hdma_usart6_rx,"aw",%nobits
 120              		.align	2
 123              	hdma_usart6_rx:
 124 0000 00000000 		.space	96
 124      00000000 
 124      00000000 
 124      00000000 
 124      00000000 
 125              		.global	defaultTaskHandle
 126              		.section	.bss.defaultTaskHandle,"aw",%nobits
 127              		.align	2
 130              	defaultTaskHandle:
 131 0000 00000000 		.space	4
 132              		.global	defaultTask_attributes
 133              		.section	.rodata
 134              		.align	2
 135              	.LC0:
 136 0000 64656661 		.ascii	"defaultTask\000"
 136      756C7454 
 136      61736B00 
 137              		.section	.rodata.defaultTask_attributes,"a"
 138              		.align	2
 141              	defaultTask_attributes:
 142 0000 00000000 		.word	.LC0
 143 0004 00000000 		.space	16
ARM GAS  C:\Users\Halil\AppData\Local\Temp\cce2uIVz.s 			page 4


 143      00000000 
 143      00000000 
 143      00000000 
 144 0014 00020000 		.word	512
 145 0018 18000000 		.word	24
 146 001c 00000000 		.space	8
 146      00000000 
 147              		.global	bmiTaskHandle
 148              		.section	.bss.bmiTaskHandle,"aw",%nobits
 149              		.align	2
 152              	bmiTaskHandle:
 153 0000 00000000 		.space	4
 154              		.global	bmiTask_attributes
 155              		.section	.rodata
 156              		.align	2
 157              	.LC1:
 158 000c 626D6954 		.ascii	"bmiTask\000"
 158      61736B00 
 159              		.section	.rodata.bmiTask_attributes,"a"
 160              		.align	2
 163              	bmiTask_attributes:
 164 0000 0C000000 		.word	.LC1
 165 0004 00000000 		.space	16
 165      00000000 
 165      00000000 
 165      00000000 
 166 0014 00040000 		.word	1024
 167 0018 30000000 		.word	48
 168 001c 00000000 		.space	8
 168      00000000 
 169              		.global	bmeTaskHandle
 170              		.section	.bss.bmeTaskHandle,"aw",%nobits
 171              		.align	2
 174              	bmeTaskHandle:
 175 0000 00000000 		.space	4
 176              		.global	bmeTask_attributes
 177              		.section	.rodata
 178              		.align	2
 179              	.LC2:
 180 0014 626D6554 		.ascii	"bmeTask\000"
 180      61736B00 
 181              		.section	.rodata.bmeTask_attributes,"a"
 182              		.align	2
 185              	bmeTask_attributes:
 186 0000 14000000 		.word	.LC2
 187 0004 00000000 		.space	16
 187      00000000 
 187      00000000 
 187      00000000 
 188 0014 00040000 		.word	1024
 189 0018 28000000 		.word	40
 190 001c 00000000 		.space	8
 190      00000000 
 191              		.global	sensorFusionTaskHandle
 192              		.section	.bss.sensorFusionTaskHandle,"aw",%nobits
 193              		.align	2
 196              	sensorFusionTaskHandle:
ARM GAS  C:\Users\Halil\AppData\Local\Temp\cce2uIVz.s 			page 5


 197 0000 00000000 		.space	4
 198              		.global	sensorFusionTask_attributes
 199              		.section	.rodata
 200              		.align	2
 201              	.LC3:
 202 001c 73656E73 		.ascii	"sensorFusionTask\000"
 202      6F724675 
 202      73696F6E 
 202      5461736B 
 202      00
 203              		.section	.rodata.sensorFusionTask_attributes,"a"
 204              		.align	2
 207              	sensorFusionTask_attributes:
 208 0000 1C000000 		.word	.LC3
 209 0004 00000000 		.space	16
 209      00000000 
 209      00000000 
 209      00000000 
 210 0014 00080000 		.word	2048
 211 0018 20000000 		.word	32
 212 001c 00000000 		.space	8
 212      00000000 
 213              		.global	adcTaskHandle
 214              		.section	.bss.adcTaskHandle,"aw",%nobits
 215              		.align	2
 218              	adcTaskHandle:
 219 0000 00000000 		.space	4
 220              		.global	adcTask_attributes
 221              		.section	.rodata
 222 002d 000000   		.align	2
 223              	.LC4:
 224 0030 61646354 		.ascii	"adcTask\000"
 224      61736B00 
 225              		.section	.rodata.adcTask_attributes,"a"
 226              		.align	2
 229              	adcTask_attributes:
 230 0000 30000000 		.word	.LC4
 231 0004 00000000 		.space	16
 231      00000000 
 231      00000000 
 231      00000000 
 232 0014 00040000 		.word	1024
 233 0018 18000000 		.word	24
 234 001c 00000000 		.space	8
 234      00000000 
 235              		.global	gnssTaskHandle
 236              		.section	.bss.gnssTaskHandle,"aw",%nobits
 237              		.align	2
 240              	gnssTaskHandle:
 241 0000 00000000 		.space	4
 242              		.global	gnssTask_attributes
 243              		.section	.rodata
 244              		.align	2
 245              	.LC5:
 246 0038 676E7373 		.ascii	"gnssTask\000"
 246      5461736B 
 246      00
ARM GAS  C:\Users\Halil\AppData\Local\Temp\cce2uIVz.s 			page 6


 247              		.section	.rodata.gnssTask_attributes,"a"
 248              		.align	2
 251              	gnssTask_attributes:
 252 0000 38000000 		.word	.LC5
 253 0004 00000000 		.space	16
 253      00000000 
 253      00000000 
 253      00000000 
 254 0014 00040000 		.word	1024
 255 0018 18000000 		.word	24
 256 001c 00000000 		.space	8
 256      00000000 
 257              		.global	telemetryTaskHandle
 258              		.section	.bss.telemetryTaskHandle,"aw",%nobits
 259              		.align	2
 262              	telemetryTaskHandle:
 263 0000 00000000 		.space	4
 264              		.global	telemetryTask_attributes
 265              		.section	.rodata
 266 0041 000000   		.align	2
 267              	.LC6:
 268 0044 74656C65 		.ascii	"telemetryTask\000"
 268      6D657472 
 268      79546173 
 268      6B00
 269              		.section	.rodata.telemetryTask_attributes,"a"
 270              		.align	2
 273              	telemetryTask_attributes:
 274 0000 44000000 		.word	.LC6
 275 0004 00000000 		.space	16
 275      00000000 
 275      00000000 
 275      00000000 
 276 0014 00060000 		.word	1536
 277 0018 18000000 		.word	24
 278 001c 00000000 		.space	8
 278      00000000 
 279              		.global	dataLoggerTaskHandle
 280              		.section	.bss.dataLoggerTaskHandle,"aw",%nobits
 281              		.align	2
 284              	dataLoggerTaskHandle:
 285 0000 00000000 		.space	4
 286              		.global	dataLoggerTask_attributes
 287              		.section	.rodata
 288 0052 0000     		.align	2
 289              	.LC7:
 290 0054 64617461 		.ascii	"dataLoggerTask\000"
 290      4C6F6767 
 290      65725461 
 290      736B00
 291              		.section	.rodata.dataLoggerTask_attributes,"a"
 292              		.align	2
 295              	dataLoggerTask_attributes:
 296 0000 54000000 		.word	.LC7
 297 0004 00000000 		.space	16
 297      00000000 
 297      00000000 
ARM GAS  C:\Users\Halil\AppData\Local\Temp\cce2uIVz.s 			page 7


 297      00000000 
 298 0014 00080000 		.word	2048
 299 0018 10000000 		.word	16
 300 001c 00000000 		.space	8
 300      00000000 
 301              		.section	.bss.BME280_sensor,"aw",%nobits
 302              		.align	2
 305              	BME280_sensor:
 306 0000 00000000 		.space	68
 306      00000000 
 306      00000000 
 306      00000000 
 306      00000000 
 307              		.global	BMI_sensor
 308              		.section	.bss.BMI_sensor,"aw",%nobits
 309              		.align	2
 312              	BMI_sensor:
 313 0000 00000000 		.space	152
 313      00000000 
 313      00000000 
 313      00000000 
 313      00000000 
 314              		.global	sensor_output
 315              		.section	.bss.sensor_output,"aw",%nobits
 316              		.align	2
 319              	sensor_output:
 320 0000 00000000 		.space	28
 320      00000000 
 320      00000000 
 320      00000000 
 320      00000000 
 321              		.global	bme_params
 322              		.section	.bss.bme_params,"aw",%nobits
 323              		.align	2
 326              	bme_params:
 327 0000 00000000 		.space	36
 327      00000000 
 327      00000000 
 327      00000000 
 327      00000000 
 328              		.global	gnss_data
 329              		.section	.bss.gnss_data,"aw",%nobits
 330              		.align	2
 333              	gnss_data:
 334 0000 00000000 		.space	72
 334      00000000 
 334      00000000 
 334      00000000 
 334      00000000 
 335              		.section	.bss.lora_1,"aw",%nobits
 336              		.align	2
 339              	lora_1:
 340 0000 00000000 		.space	32
 340      00000000 
 340      00000000 
 340      00000000 
 340      00000000 
ARM GAS  C:\Users\Halil\AppData\Local\Temp\cce2uIVz.s 			page 8


 341              		.section	.bss.uart_buffer,"aw",%nobits
 342              		.align	2
 345              	uart_buffer:
 346 0000 00000000 		.space	128
 346      00000000 
 346      00000000 
 346      00000000 
 346      00000000 
 347              		.global	usart4_tx_busy
 348              		.section	.bss.usart4_tx_busy,"aw",%nobits
 351              	usart4_tx_busy:
 352 0000 00       		.space	1
 353              		.global	usart2_tx_busy
 354              		.section	.bss.usart2_tx_busy,"aw",%nobits
 357              	usart2_tx_busy:
 358 0000 00       		.space	1
 359              		.global	is_BME_ok
 360              		.section	.bss.is_BME_ok,"aw",%nobits
 361              		.align	2
 364              	is_BME_ok:
 365 0000 00000000 		.space	4
 366              		.global	is_BMI_ok
 367              		.section	.bss.is_BMI_ok,"aw",%nobits
 368              		.align	2
 371              	is_BMI_ok:
 372 0000 00000000 		.space	4
 373              		.global	bmi_status_ok
 374              		.section	.bss.bmi_status_ok,"aw",%nobits
 375              		.align	2
 378              	bmi_status_ok:
 379 0000 00000000 		.space	4
 380              		.global	adc1_buffer
 381              		.section	.bss.adc1_buffer,"aw",%nobits
 382              		.align	2
 385              	adc1_buffer:
 386 0000 0000     		.space	2
 387              		.global	adc2_buffer
 388              		.section	.bss.adc2_buffer,"aw",%nobits
 389              		.align	2
 392              	adc2_buffer:
 393 0000 0000     		.space	2
 394              		.global	current_mA
 395              		.section	.bss.current_mA,"aw",%nobits
 396              		.align	2
 399              	current_mA:
 400 0000 00000000 		.space	4
 401              		.global	voltage_V
 402              		.section	.bss.voltage_V,"aw",%nobits
 403              		.align	2
 406              	voltage_V:
 407 0000 00000000 		.space	4
 408              		.global	hmc1021_adc_buffer
 409              		.section	.bss.hmc1021_adc_buffer,"aw",%nobits
 410              		.align	2
 413              	hmc1021_adc_buffer:
 414 0000 0000     		.space	2
 415              		.global	hmc1021_voltage
ARM GAS  C:\Users\Halil\AppData\Local\Temp\cce2uIVz.s 			page 9


 416              		.section	.bss.hmc1021_voltage,"aw",%nobits
 417              		.align	2
 420              	hmc1021_voltage:
 421 0000 00000000 		.space	4
 422              		.global	hmc1021_gauss
 423              		.section	.bss.hmc1021_gauss,"aw",%nobits
 424              		.align	2
 427              	hmc1021_gauss:
 428 0000 00000000 		.space	4
 429              		.global	bmi088_accel_data_ready
 430              		.section	.bss.bmi088_accel_data_ready,"aw",%nobits
 433              	bmi088_accel_data_ready:
 434 0000 00       		.space	1
 435              		.global	bmi088_gyro_data_ready
 436              		.section	.bss.bmi088_gyro_data_ready,"aw",%nobits
 439              	bmi088_gyro_data_ready:
 440 0000 00       		.space	1
 441              		.global	bmiDataReadySemaphoreHandle
 442              		.section	.bss.bmiDataReadySemaphoreHandle,"aw",%nobits
 443              		.align	2
 446              	bmiDataReadySemaphoreHandle:
 447 0000 00000000 		.space	4
 448              		.global	i2cMutexHandle
 449              		.section	.bss.i2cMutexHandle,"aw",%nobits
 450              		.align	2
 453              	i2cMutexHandle:
 454 0000 00000000 		.space	4
 455              		.section	.rodata
 456 0063 00       		.align	2
 457              	.LC8:
 458 0064 24504D54 		.ascii	"$PMTK251,57600*2C\015\012\000"
 458      4B323531 
 458      2C353736 
 458      30302A32 
 458      430D0A00 
 459              		.align	2
 460              	.LC9:
 461 0078 6932634D 		.ascii	"i2cMutex\000"
 461      75746578 
 461      00
 462              		.section	.text.main,"ax",%progbits
 463              		.align	1
 464              		.global	main
 465              		.syntax unified
 466              		.thumb
 467              		.thumb_func
 469              	main:
 470              	.LFB246:
   1:Core/Src/main.c **** /* USER CODE BEGIN Header */
   2:Core/Src/main.c **** /**
   3:Core/Src/main.c ****   ******************************************************************************
   4:Core/Src/main.c ****   * @file           : main.c
   5:Core/Src/main.c ****   * @brief          : Main program body for SkyLord2 Flight Computer
   6:Core/Src/main.c ****   ******************************************************************************
   7:Core/Src/main.c ****   * @attention
   8:Core/Src/main.c ****   *
   9:Core/Src/main.c ****   * Copyright (c) 2025 STMicroelectronics.
ARM GAS  C:\Users\Halil\AppData\Local\Temp\cce2uIVz.s 			page 10


  10:Core/Src/main.c ****   * All rights reserved.
  11:Core/Src/main.c ****   *
  12:Core/Src/main.c ****   * This software is licensed under terms that can be found in the LICENSE file
  13:Core/Src/main.c ****   * in the root directory of this software component.
  14:Core/Src/main.c ****   * If no LICENSE file comes with this software, it is provided AS-IS.
  15:Core/Src/main.c ****   *
  16:Core/Src/main.c ****   ******************************************************************************
  17:Core/Src/main.c ****   */
  18:Core/Src/main.c **** 
  19:Core/Src/main.c **** /**
  20:Core/Src/main.c ****   ******************************************************************************
  21:Core/Src/main.c ****   * SkyLord2 Flight Computer - Main Application
  22:Core/Src/main.c ****   *
  23:Core/Src/main.c ****   * This application implements a comprehensive flight computer system for rocket
  24:Core/Src/main.c ****   * telemetry and control, featuring:
  25:Core/Src/main.c ****   *
  26:Core/Src/main.c ****   * SENSORS:
  27:Core/Src/main.c ****   * - BME280: Environmental sensor (temperature, humidity, pressure)
  28:Core/Src/main.c ****   * - BMI088: 6-axis IMU (3-axis accelerometer + 3-axis gyroscope)
  29:Core/Src/main.c ****   * - HMC1021: Single-axis magnetometer for magnetic field measurement
  30:Core/Src/main.c ****   * - L86 GPS/GNSS: Position and navigation data
  31:Core/Src/main.c ****   *
  32:Core/Src/main.c ****   * COMMUNICATION:
  33:Core/Src/main.c ****   * - E22 LoRa module: Long-range wireless telemetry transmission
  34:Core/Src/main.c ****   * - UART: Debug and telemetry output
  35:Core/Src/main.c ****   *
  36:Core/Src/main.c ****   * PROCESSING:
  37:Core/Src/main.c ****   * - Real-time sensor fusion using quaternion-based algorithms
  38:Core/Src/main.c ****   * - Kalman filtering for noise reduction
  39:Core/Src/main.c ****   * - Flight state estimation and control
  40:Core/Src/main.c ****   *
  41:Core/Src/main.c ****   * TIMING:
  42:Core/Src/main.c ****   * - 100ms periodic operations for data acquisition
  43:Core/Src/main.c ****   * - 1s periodic operations for magnetometer calibration
  44:Core/Src/main.c ****   * - Continuous sensor monitoring and data fusion
  45:Core/Src/main.c ****   *
  46:Core/Src/main.c ****   ******************************************************************************
  47:Core/Src/main.c ****   */
  48:Core/Src/main.c **** /* USER CODE END Header */
  49:Core/Src/main.c **** /* Includes ------------------------------------------------------------------*/
  50:Core/Src/main.c **** #include "main.h"
  51:Core/Src/main.c **** #include "cmsis_os.h"
  52:Core/Src/main.c **** #include "fatfs.h"
  53:Core/Src/main.c **** 
  54:Core/Src/main.c **** /* Private includes ----------------------------------------------------------*/
  55:Core/Src/main.c **** /* USER CODE BEGIN Includes */
  56:Core/Src/main.c **** 
  57:Core/Src/main.c **** /* Standard library includes */
  58:Core/Src/main.c **** #include <string.h>
  59:Core/Src/main.c **** #include <stdio.h>
  60:Core/Src/main.c **** #include <math.h>
  61:Core/Src/main.c **** 
  62:Core/Src/main.c **** /* Sensor drivers */
  63:Core/Src/main.c **** #include "bme280.h"          // Environmental sensor (temp, humidity, pressure)
  64:Core/Src/main.c **** #include "bmi088.h"          // 6-axis IMU (accelerometer + gyroscope)
  65:Core/Src/main.c **** #include "l86_gnss.h"        // GPS/GNSS module
  66:Core/Src/main.c **** 
ARM GAS  C:\Users\Halil\AppData\Local\Temp\cce2uIVz.s 			page 11


  67:Core/Src/main.c **** /* Communication modules */
  68:Core/Src/main.c **** #include "e22_lib.h"         // LoRa wireless communication
  69:Core/Src/main.c **** #include "packet.h"          // Telemetry packet handling
  70:Core/Src/main.c **** #include "data_logger.h"     // SD card data logging
  71:Core/Src/main.c **** 
  72:Core/Src/main.c **** /* Algorithm and processing modules */
  73:Core/Src/main.c **** #include "queternion.h"      // Quaternion mathematics
  74:Core/Src/main.c **** #include "sensor_fusion.h"   // Sensor fusion algorithms
  75:Core/Src/main.c **** #include "flight_algorithm.h" // Flight state detection and control
  76:Core/Src/main.c **** 
  77:Core/Src/main.c **** /*MATHEMATICAL CONSTANTS*/
  78:Core/Src/main.c **** #ifndef M_PI
  79:Core/Src/main.c **** #define M_PI 3.14159265358979323846f
  80:Core/Src/main.c **** #endif
  81:Core/Src/main.c **** 
  82:Core/Src/main.c **** /* USER CODE END Includes */
  83:Core/Src/main.c **** 
  84:Core/Src/main.c **** /* Private typedef -----------------------------------------------------------*/
  85:Core/Src/main.c **** /* USER CODE BEGIN PTD */
  86:Core/Src/main.c **** 
  87:Core/Src/main.c **** /* USER CODE END PTD */
  88:Core/Src/main.c **** 
  89:Core/Src/main.c **** /* Private define ------------------------------------------------------------*/
  90:Core/Src/main.c **** /* USER CODE BEGIN PD */
  91:Core/Src/main.c **** 
  92:Core/Src/main.c **** /* USER CODE END PD */
  93:Core/Src/main.c **** 
  94:Core/Src/main.c **** /* Private macro -------------------------------------------------------------*/
  95:Core/Src/main.c **** /* USER CODE BEGIN PM */
  96:Core/Src/main.c **** #define IMU_I2C_HNDLR	hi2c1 //put your I2C handler
  97:Core/Src/main.c **** 
  98:Core/Src/main.c **** #define CRNT_COEF					(float)0.0008056641	// Current coefficient (A)
  99:Core/Src/main.c **** /* USER CODE END PM */
 100:Core/Src/main.c **** 
 101:Core/Src/main.c **** /* Private variables ---------------------------------------------------------*/
 102:Core/Src/main.c **** ADC_HandleTypeDef hadc1;
 103:Core/Src/main.c **** ADC_HandleTypeDef hadc2;
 104:Core/Src/main.c **** ADC_HandleTypeDef hadc3;
 105:Core/Src/main.c **** 
 106:Core/Src/main.c **** I2C_HandleTypeDef hi2c1;
 107:Core/Src/main.c **** I2C_HandleTypeDef hi2c3;
 108:Core/Src/main.c **** DMA_HandleTypeDef hdma_i2c1_rx;
 109:Core/Src/main.c **** 
 110:Core/Src/main.c **** SPI_HandleTypeDef hspi1;
 111:Core/Src/main.c **** SPI_HandleTypeDef hspi3;
 112:Core/Src/main.c **** 
 113:Core/Src/main.c **** TIM_HandleTypeDef htim2;
 114:Core/Src/main.c **** 
 115:Core/Src/main.c **** UART_HandleTypeDef huart4;
 116:Core/Src/main.c **** UART_HandleTypeDef huart2;
 117:Core/Src/main.c **** UART_HandleTypeDef huart6;
 118:Core/Src/main.c **** DMA_HandleTypeDef hdma_uart4_tx;
 119:Core/Src/main.c **** DMA_HandleTypeDef hdma_usart2_tx;
 120:Core/Src/main.c **** DMA_HandleTypeDef hdma_usart6_rx;
 121:Core/Src/main.c **** 
 122:Core/Src/main.c **** /* Definitions for defaultTask */
 123:Core/Src/main.c **** osThreadId_t defaultTaskHandle;
ARM GAS  C:\Users\Halil\AppData\Local\Temp\cce2uIVz.s 			page 12


 124:Core/Src/main.c **** const osThreadAttr_t defaultTask_attributes = {
 125:Core/Src/main.c ****   .name = "defaultTask",
 126:Core/Src/main.c ****   .stack_size = 128 * 4,
 127:Core/Src/main.c ****   .priority = (osPriority_t) osPriorityNormal,
 128:Core/Src/main.c **** };
 129:Core/Src/main.c **** /* USER CODE BEGIN PV */
 130:Core/Src/main.c **** /* Definitions for bmiTask */
 131:Core/Src/main.c **** osThreadId_t bmiTaskHandle;
 132:Core/Src/main.c **** const osThreadAttr_t bmiTask_attributes = {
 133:Core/Src/main.c ****   .name = "bmiTask",
 134:Core/Src/main.c ****   .stack_size = 256 * 4,
 135:Core/Src/main.c ****   .priority = (osPriority_t) osPriorityRealtime,  // En yüksek öncelik
 136:Core/Src/main.c **** };
 137:Core/Src/main.c **** 
 138:Core/Src/main.c **** /* Definitions for bmeTask */
 139:Core/Src/main.c **** osThreadId_t bmeTaskHandle;
 140:Core/Src/main.c **** const osThreadAttr_t bmeTask_attributes = {
 141:Core/Src/main.c ****   .name = "bmeTask",
 142:Core/Src/main.c ****   .stack_size = 256 * 4,
 143:Core/Src/main.c ****   .priority = (osPriority_t) osPriorityHigh,
 144:Core/Src/main.c **** };
 145:Core/Src/main.c **** 
 146:Core/Src/main.c **** /* Definitions for sensorFusionTask */
 147:Core/Src/main.c **** osThreadId_t sensorFusionTaskHandle;
 148:Core/Src/main.c **** const osThreadAttr_t sensorFusionTask_attributes = {
 149:Core/Src/main.c ****   .name = "sensorFusionTask",
 150:Core/Src/main.c ****   .stack_size = 512 * 4,
 151:Core/Src/main.c ****   .priority = (osPriority_t) osPriorityAboveNormal,
 152:Core/Src/main.c **** };
 153:Core/Src/main.c **** 
 154:Core/Src/main.c **** /* Definitions for adcTask */
 155:Core/Src/main.c **** osThreadId_t adcTaskHandle;
 156:Core/Src/main.c **** const osThreadAttr_t adcTask_attributes = {
 157:Core/Src/main.c ****   .name = "adcTask",
 158:Core/Src/main.c ****   .stack_size = 256 * 4,
 159:Core/Src/main.c ****   .priority = (osPriority_t) osPriorityNormal,
 160:Core/Src/main.c **** };
 161:Core/Src/main.c **** 
 162:Core/Src/main.c **** /* Definitions for gnssTask */
 163:Core/Src/main.c **** osThreadId_t gnssTaskHandle;
 164:Core/Src/main.c **** const osThreadAttr_t gnssTask_attributes = {
 165:Core/Src/main.c ****   .name = "gnssTask",
 166:Core/Src/main.c ****   .stack_size = 256 * 4,
 167:Core/Src/main.c ****   .priority = (osPriority_t) osPriorityNormal,
 168:Core/Src/main.c **** };
 169:Core/Src/main.c **** 
 170:Core/Src/main.c **** /* Definitions for telemetryTask */
 171:Core/Src/main.c **** osThreadId_t telemetryTaskHandle;
 172:Core/Src/main.c **** const osThreadAttr_t telemetryTask_attributes = {
 173:Core/Src/main.c ****   .name = "telemetryTask",
 174:Core/Src/main.c ****   .stack_size = 384 * 4,
 175:Core/Src/main.c ****   .priority = (osPriority_t) osPriorityNormal,
 176:Core/Src/main.c **** };
 177:Core/Src/main.c **** 
 178:Core/Src/main.c **** /* Definitions for dataLoggerTask */
 179:Core/Src/main.c **** osThreadId_t dataLoggerTaskHandle;
 180:Core/Src/main.c **** const osThreadAttr_t dataLoggerTask_attributes = {
ARM GAS  C:\Users\Halil\AppData\Local\Temp\cce2uIVz.s 			page 13


 181:Core/Src/main.c ****   .name = "dataLoggerTask",
 182:Core/Src/main.c ****   .stack_size = 512 * 4,
 183:Core/Src/main.c ****   .priority = (osPriority_t) osPriorityBelowNormal,
 184:Core/Src/main.c **** };
 185:Core/Src/main.c **** 
 186:Core/Src/main.c **** /*==================== SENSOR STRUCTURES ====================*/
 187:Core/Src/main.c **** // Environmental sensor (BME280) - temperature, humidity, pressure
 188:Core/Src/main.c **** static BME_280_t BME280_sensor;         // BME280 barometric pressure sensor
 189:Core/Src/main.c **** bmi088_struct_t BMI_sensor;             // BMI088 IMU sensor (accelerometer + gyroscope)
 190:Core/Src/main.c **** sensor_fusion_t sensor_output;          // Sensor fusion output data
 191:Core/Src/main.c **** BME_parameters_t bme_params;            // BME280 calibration parameters
 192:Core/Src/main.c **** gps_data_t gnss_data;                   // L86 GNSS receiver data
 193:Core/Src/main.c **** static e22_conf_struct_t lora_1;        // LoRa configuration structure
 194:Core/Src/main.c **** 
 195:Core/Src/main.c **** /*==================== COMMUNICATION BUFFERS ====================*/
 196:Core/Src/main.c **** // UART communication buffers
 197:Core/Src/main.c **** static char uart_buffer[128];
 198:Core/Src/main.c **** extern unsigned char normal_paket[50];  // Normal mode telemetry packet
 199:Core/Src/main.c **** extern unsigned char sd_paket[64];      // SD card data packet
 200:Core/Src/main.c **** 
 201:Core/Src/main.c **** volatile uint8_t usart4_tx_busy = 0;    // UART4 transmission busy flag
 202:Core/Src/main.c **** volatile uint8_t usart2_tx_busy = 0;    // UART2 transmission busy flag
 203:Core/Src/main.c **** 
 204:Core/Src/main.c **** /*==================== SENSOR STATUS VARIABLES ====================*/
 205:Core/Src/main.c **** // Sensor initialization and health status
 206:Core/Src/main.c **** int is_BME_ok = 0;
 207:Core/Src/main.c **** int is_BMI_ok = 0;
 208:Core/Src/main.c **** int bmi_status_ok = 0;
 209:Core/Src/main.c **** 
 210:Core/Src/main.c **** /*==================== ADC BUFFERS AND MAGNETOMETER DATA ====================*/
 211:Core/Src/main.c **** // General ADC buffers
 212:Core/Src/main.c **** uint16_t adc1_buffer[1];
 213:Core/Src/main.c **** uint16_t adc2_buffer[1];
 214:Core/Src/main.c **** float current_mA = 0.0f;
 215:Core/Src/main.c **** float voltage_V = 0.0f;
 216:Core/Src/main.c **** 
 217:Core/Src/main.c **** // HMC1021 magnetometer (single axis) data
 218:Core/Src/main.c **** volatile uint16_t hmc1021_adc_buffer[1];
 219:Core/Src/main.c **** float hmc1021_voltage = 0.0f;
 220:Core/Src/main.c **** float hmc1021_gauss = 0.0f;
 221:Core/Src/main.c **** 
 222:Core/Src/main.c **** /*==================== INTERRUPT FLAGS ====================*/
 223:Core/Src/main.c **** // BMI088 data ready interrupt flags
 224:Core/Src/main.c **** volatile uint8_t bmi088_accel_data_ready = 0;  // EXTI4 - Accelerometer data ready
 225:Core/Src/main.c **** volatile uint8_t bmi088_gyro_data_ready = 0;   // EXTI3 - Gyroscope data ready
 226:Core/Src/main.c **** 
 227:Core/Src/main.c **** /*==================== FREERTOS SYNCHRONIZATION ====================*/
 228:Core/Src/main.c **** // Binary semaphore for BMI088 interrupt-driven reading
 229:Core/Src/main.c **** osSemaphoreId_t bmiDataReadySemaphoreHandle = NULL;
 230:Core/Src/main.c **** 
 231:Core/Src/main.c **** // I2C bus mutex for thread-safe access to I2C1 (shared by BME280 and BMI088)
 232:Core/Src/main.c **** osMutexId_t i2cMutexHandle = NULL;
 233:Core/Src/main.c **** 
 234:Core/Src/main.c **** /* USER CODE END PV */
 235:Core/Src/main.c **** 
 236:Core/Src/main.c **** /* Private function prototypes -----------------------------------------------*/
 237:Core/Src/main.c **** void SystemClock_Config(void);
ARM GAS  C:\Users\Halil\AppData\Local\Temp\cce2uIVz.s 			page 14


 238:Core/Src/main.c **** static void MX_GPIO_Init(void);
 239:Core/Src/main.c **** static void MX_DMA_Init(void);
 240:Core/Src/main.c **** static void MX_I2C1_Init(void);
 241:Core/Src/main.c **** static void MX_I2C3_Init(void);
 242:Core/Src/main.c **** static void MX_TIM2_Init(void);
 243:Core/Src/main.c **** static void MX_USART2_UART_Init(void);
 244:Core/Src/main.c **** static void MX_ADC1_Init(void);
 245:Core/Src/main.c **** static void MX_USART6_UART_Init(void);
 246:Core/Src/main.c **** static void MX_UART4_Init(void);
 247:Core/Src/main.c **** static void MX_ADC2_Init(void);
 248:Core/Src/main.c **** static void MX_ADC3_Init(void);
 249:Core/Src/main.c **** static void MX_SPI1_Init(void);
 250:Core/Src/main.c **** static void MX_SPI3_Init(void);
 251:Core/Src/main.c **** void StartDefaultTask(void *argument);
 252:Core/Src/main.c **** 
 253:Core/Src/main.c **** /* USER CODE BEGIN PFP */
 254:Core/Src/main.c **** static void bme280_begin(void);
 255:Core/Src/main.c **** uint8_t bmi_imu_init(void);
 256:Core/Src/main.c **** void read_ADC(void);
 257:Core/Src/main.c **** void lora_init(void);
 258:Core/Src/main.c **** void lora_send_packet_dma(uint8_t *data, uint16_t size);
 259:Core/Src/main.c **** void uart2_send_packet_dma(uint8_t *data, uint16_t size);
 260:Core/Src/main.c **** 
 261:Core/Src/main.c **** // FreeRTOS Task Functions
 262:Core/Src/main.c **** void StartBMITask(void *argument);
 263:Core/Src/main.c **** void StartBMETask(void *argument);
 264:Core/Src/main.c **** void StartSensorFusionTask(void *argument);
 265:Core/Src/main.c **** void StartADCTask(void *argument);
 266:Core/Src/main.c **** void StartGNSSTask(void *argument);
 267:Core/Src/main.c **** void StartTelemetryTask(void *argument);
 268:Core/Src/main.c **** void StartDataLoggerTask(void *argument);
 269:Core/Src/main.c **** 
 270:Core/Src/main.c **** /* USER CODE END PFP */
 271:Core/Src/main.c **** 
 272:Core/Src/main.c **** /* Private user code ---------------------------------------------------------*/
 273:Core/Src/main.c **** /* USER CODE BEGIN 0 */
 274:Core/Src/main.c **** 
 275:Core/Src/main.c **** /* USER CODE END 0 */
 276:Core/Src/main.c **** 
 277:Core/Src/main.c **** /**
 278:Core/Src/main.c ****   * @brief  The application entry point.
 279:Core/Src/main.c ****   * @retval int
 280:Core/Src/main.c ****   */
 281:Core/Src/main.c **** int main(void)
 282:Core/Src/main.c **** {
 471              		.loc 1 282 1
 472              		.cfi_startproc
 473              		@ args = 0, pretend = 0, frame = 16
 474              		@ frame_needed = 1, uses_anonymous_args = 0
 475 0000 80B5     		push	{r7, lr}
 476              		.cfi_def_cfa_offset 8
 477              		.cfi_offset 7, -8
 478              		.cfi_offset 14, -4
 479 0002 84B0     		sub	sp, sp, #16
 480              		.cfi_def_cfa_offset 24
 481 0004 00AF     		add	r7, sp, #0
 482              		.cfi_def_cfa_register 7
ARM GAS  C:\Users\Halil\AppData\Local\Temp\cce2uIVz.s 			page 15


 283:Core/Src/main.c **** 
 284:Core/Src/main.c ****   /* USER CODE BEGIN 1 */
 285:Core/Src/main.c **** 
 286:Core/Src/main.c ****   /* USER CODE END 1 */
 287:Core/Src/main.c **** 
 288:Core/Src/main.c ****   /* MCU Configuration--------------------------------------------------------*/
 289:Core/Src/main.c **** 
 290:Core/Src/main.c ****   /* Reset of all peripherals, Initializes the Flash interface and the Systick. */
 291:Core/Src/main.c ****   HAL_Init();
 483              		.loc 1 291 3
 484 0006 FFF7FEFF 		bl	HAL_Init
 292:Core/Src/main.c **** 
 293:Core/Src/main.c ****   /* USER CODE BEGIN Init */
 294:Core/Src/main.c **** 
 295:Core/Src/main.c ****   /* USER CODE END Init */
 296:Core/Src/main.c **** 
 297:Core/Src/main.c ****   /* Configure the system clock */
 298:Core/Src/main.c ****   SystemClock_Config();
 485              		.loc 1 298 3
 486 000a FFF7FEFF 		bl	SystemClock_Config
 299:Core/Src/main.c **** 
 300:Core/Src/main.c ****   /* USER CODE BEGIN SysInit */
 301:Core/Src/main.c **** 
 302:Core/Src/main.c ****   /* USER CODE END SysInit */
 303:Core/Src/main.c **** 
 304:Core/Src/main.c ****   /* Initialize all configured peripherals */
 305:Core/Src/main.c ****   MX_GPIO_Init();
 487              		.loc 1 305 3
 488 000e FFF7FEFF 		bl	MX_GPIO_Init
 306:Core/Src/main.c ****   MX_DMA_Init();
 489              		.loc 1 306 3
 490 0012 FFF7FEFF 		bl	MX_DMA_Init
 307:Core/Src/main.c ****   MX_I2C1_Init();
 491              		.loc 1 307 3
 492 0016 FFF7FEFF 		bl	MX_I2C1_Init
 308:Core/Src/main.c ****   MX_I2C3_Init();
 493              		.loc 1 308 3
 494 001a FFF7FEFF 		bl	MX_I2C3_Init
 309:Core/Src/main.c ****   MX_TIM2_Init();
 495              		.loc 1 309 3
 496 001e FFF7FEFF 		bl	MX_TIM2_Init
 310:Core/Src/main.c ****   MX_USART2_UART_Init();
 497              		.loc 1 310 3
 498 0022 FFF7FEFF 		bl	MX_USART2_UART_Init
 311:Core/Src/main.c ****   MX_ADC1_Init();
 499              		.loc 1 311 3
 500 0026 FFF7FEFF 		bl	MX_ADC1_Init
 312:Core/Src/main.c ****   MX_USART6_UART_Init();
 501              		.loc 1 312 3
 502 002a FFF7FEFF 		bl	MX_USART6_UART_Init
 313:Core/Src/main.c ****   MX_UART4_Init();
 503              		.loc 1 313 3
 504 002e FFF7FEFF 		bl	MX_UART4_Init
 314:Core/Src/main.c ****   MX_ADC2_Init();
 505              		.loc 1 314 3
 506 0032 FFF7FEFF 		bl	MX_ADC2_Init
 315:Core/Src/main.c ****   MX_ADC3_Init();
ARM GAS  C:\Users\Halil\AppData\Local\Temp\cce2uIVz.s 			page 16


 507              		.loc 1 315 3
 508 0036 FFF7FEFF 		bl	MX_ADC3_Init
 316:Core/Src/main.c ****   MX_SPI1_Init();
 509              		.loc 1 316 3
 510 003a FFF7FEFF 		bl	MX_SPI1_Init
 317:Core/Src/main.c ****   MX_FATFS_Init();
 511              		.loc 1 317 3
 512 003e FFF7FEFF 		bl	MX_FATFS_Init
 318:Core/Src/main.c ****   MX_SPI3_Init();
 513              		.loc 1 318 3
 514 0042 FFF7FEFF 		bl	MX_SPI3_Init
 319:Core/Src/main.c ****   /* USER CODE BEGIN 2 */
 320:Core/Src/main.c **** 
 321:Core/Src/main.c **** 	/*==================== TIMER AND INTERRUPT CONFIGURATION ====================*/
 322:Core/Src/main.c **** 	// Configure external interrupt priorities for sensor data ready signals
 323:Core/Src/main.c **** 	// Bu öncelikler FreeRTOS için uygun seviyede ayarlanmıştır (>= configLIBRARY_MAX_SYSCALL_INT
 324:Core/Src/main.c **** 	DWT->CTRL |= (1 << 0);
 515              		.loc 1 324 5
 516 0046 6B4B     		ldr	r3, .L5
 517 0048 1B68     		ldr	r3, [r3]
 518 004a 6A4A     		ldr	r2, .L5
 519              		.loc 1 324 12
 520 004c 43F00103 		orr	r3, r3, #1
 521 0050 1360     		str	r3, [r2]
 325:Core/Src/main.c **** 	SEGGER_SYSVIEW_Conf();
 522              		.loc 1 325 2
 523 0052 FFF7FEFF 		bl	SEGGER_SYSVIEW_Conf
 326:Core/Src/main.c **** 
 327:Core/Src/main.c **** 	HAL_NVIC_SetPriority(EXTI3_IRQn, 6, 1);
 524              		.loc 1 327 2
 525 0056 0122     		movs	r2, #1
 526 0058 0621     		movs	r1, #6
 527 005a 0920     		movs	r0, #9
 528 005c FFF7FEFF 		bl	HAL_NVIC_SetPriority
 328:Core/Src/main.c **** 	HAL_NVIC_SetPriority(EXTI4_IRQn, 6, 1);
 529              		.loc 1 328 2
 530 0060 0122     		movs	r2, #1
 531 0062 0621     		movs	r1, #6
 532 0064 0A20     		movs	r0, #10
 533 0066 FFF7FEFF 		bl	HAL_NVIC_SetPriority
 329:Core/Src/main.c **** 
 330:Core/Src/main.c **** 	// Enable external interrupts for sensor data ready signals
 331:Core/Src/main.c **** 	HAL_NVIC_EnableIRQ(EXTI4_IRQn);
 534              		.loc 1 331 2
 535 006a 0A20     		movs	r0, #10
 536 006c FFF7FEFF 		bl	HAL_NVIC_EnableIRQ
 332:Core/Src/main.c **** 	HAL_NVIC_EnableIRQ(EXTI3_IRQn);
 537              		.loc 1 332 2
 538 0070 0920     		movs	r0, #9
 539 0072 FFF7FEFF 		bl	HAL_NVIC_EnableIRQ
 333:Core/Src/main.c **** 
 334:Core/Src/main.c **** 	/* ==== GPS/GNSS INITIALIZATION ==== */
 335:Core/Src/main.c **** 	// Initialize L86 GPS/GNSS module
 336:Core/Src/main.c **** 	HAL_UART_Transmit(&huart6, (uint8_t*)"$PMTK251,57600*2C\r\n", 19, 100);
 540              		.loc 1 336 2
 541 0076 6423     		movs	r3, #100
 542 0078 1322     		movs	r2, #19
ARM GAS  C:\Users\Halil\AppData\Local\Temp\cce2uIVz.s 			page 17


 543 007a 5F49     		ldr	r1, .L5+4
 544 007c 5F48     		ldr	r0, .L5+8
 545 007e FFF7FEFF 		bl	HAL_UART_Transmit
 337:Core/Src/main.c **** 	HAL_UART_DeInit(&huart6);
 546              		.loc 1 337 2
 547 0082 5E48     		ldr	r0, .L5+8
 548 0084 FFF7FEFF 		bl	HAL_UART_DeInit
 338:Core/Src/main.c **** 	huart6.Init.BaudRate = 57600;
 549              		.loc 1 338 23
 550 0088 5C4B     		ldr	r3, .L5+8
 551 008a 4FF46142 		mov	r2, #57600
 552 008e 5A60     		str	r2, [r3, #4]
 339:Core/Src/main.c **** 	HAL_UART_Init(&huart6);
 553              		.loc 1 339 2
 554 0090 5A48     		ldr	r0, .L5+8
 555 0092 FFF7FEFF 		bl	HAL_UART_Init
 340:Core/Src/main.c **** 	HAL_DMA_Init(&hdma_usart6_rx);
 556              		.loc 1 340 2
 557 0096 5A48     		ldr	r0, .L5+12
 558 0098 FFF7FEFF 		bl	HAL_DMA_Init
 341:Core/Src/main.c **** 	L86_GNSS_Init(&huart6);
 559              		.loc 1 341 2
 560 009c 5748     		ldr	r0, .L5+8
 561 009e FFF7FEFF 		bl	L86_GNSS_Init
 342:Core/Src/main.c **** 
 343:Core/Src/main.c **** 	/* ==== SENSOR INITIALIZATION ==== */
 344:Core/Src/main.c **** 	// Initialize BME280 sensor (temperature, humidity, pressure)
 345:Core/Src/main.c **** 	bme280_begin();
 562              		.loc 1 345 2
 563 00a2 FFF7FEFF 		bl	bme280_begin
 346:Core/Src/main.c **** 	HAL_Delay(1000);
 564              		.loc 1 346 2
 565 00a6 4FF47A70 		mov	r0, #1000
 566 00aa FFF7FEFF 		bl	HAL_Delay
 347:Core/Src/main.c **** 	bme280_config();
 567              		.loc 1 347 2
 568 00ae FFF7FEFF 		bl	bme280_config
 348:Core/Src/main.c **** 	bme280_update();
 569              		.loc 1 348 2
 570 00b2 FFF7FEFF 		bl	bme280_update
 349:Core/Src/main.c **** 
 350:Core/Src/main.c **** 	// Initialize BMI088 IMU (accelerometer and gyroscope)
 351:Core/Src/main.c **** 	bmi_imu_init();
 571              		.loc 1 351 2
 572 00b6 FFF7FEFF 		bl	bmi_imu_init
 352:Core/Src/main.c **** 	bmi088_config(&BMI_sensor);
 573              		.loc 1 352 2
 574 00ba 5248     		ldr	r0, .L5+16
 575 00bc FFF7FEFF 		bl	bmi088_config
 353:Core/Src/main.c **** 	get_offset(&BMI_sensor);
 576              		.loc 1 353 2
 577 00c0 5048     		ldr	r0, .L5+16
 578 00c2 FFF7FEFF 		bl	get_offset
 354:Core/Src/main.c **** 
 355:Core/Src/main.c **** 	/*==================== SENSOR FUSION INITIALIZATION ====================*/
 356:Core/Src/main.c **** 	// Initialize quaternion-based sensor fusion
 357:Core/Src/main.c **** 	getInitialQuaternion();
ARM GAS  C:\Users\Halil\AppData\Local\Temp\cce2uIVz.s 			page 18


 579              		.loc 1 357 2
 580 00c6 FFF7FEFF 		bl	getInitialQuaternion
 358:Core/Src/main.c **** 	sensor_fusion_init(&BME280_sensor);
 581              		.loc 1 358 2
 582 00ca 4F48     		ldr	r0, .L5+20
 583 00cc FFF7FEFF 		bl	sensor_fusion_init
 359:Core/Src/main.c **** 
 360:Core/Src/main.c **** 	/* ==== LORA COMMUNICATION SETUP ==== */
 361:Core/Src/main.c **** 	e22_config_mode(&lora_1);
 584              		.loc 1 361 2
 585 00d0 4E48     		ldr	r0, .L5+24
 586 00d2 FFF7FEFF 		bl	e22_config_mode
 362:Core/Src/main.c **** 	HAL_Delay(20);
 587              		.loc 1 362 2
 588 00d6 1420     		movs	r0, #20
 589 00d8 FFF7FEFF 		bl	HAL_Delay
 363:Core/Src/main.c **** 	lora_init();
 590              		.loc 1 363 2
 591 00dc FFF7FEFF 		bl	lora_init
 364:Core/Src/main.c **** 	HAL_Delay(20);
 592              		.loc 1 364 2
 593 00e0 1420     		movs	r0, #20
 594 00e2 FFF7FEFF 		bl	HAL_Delay
 365:Core/Src/main.c **** 	e22_transmit_mode(&lora_1);
 595              		.loc 1 365 2
 596 00e6 4948     		ldr	r0, .L5+24
 597 00e8 FFF7FEFF 		bl	e22_transmit_mode
 366:Core/Src/main.c **** 
 367:Core/Src/main.c **** 	/* ==== DATA LOGGER INITIALIZATION ==== */
 368:Core/Src/main.c **** 	//data_logger_init();
 369:Core/Src/main.c **** 	BME280_sensor.altitude = BME280_sensor.altitude - BME280_sensor.base_altitude;
 598              		.loc 1 369 40
 599 00ec 464B     		ldr	r3, .L5+20
 600 00ee 93ED087A 		vldr.32	s14, [r3, #32]
 601              		.loc 1 369 65
 602 00f2 454B     		ldr	r3, .L5+20
 603 00f4 D3ED097A 		vldr.32	s15, [r3, #36]
 604              		.loc 1 369 50
 605 00f8 77EE677A 		vsub.f32	s15, s14, s15
 606              		.loc 1 369 25
 607 00fc 424B     		ldr	r3, .L5+20
 608 00fe C3ED087A 		vstr.32	s15, [r3, #32]
 370:Core/Src/main.c **** 
 371:Core/Src/main.c **** 	// Startup beep to indicate system ready
 372:Core/Src/main.c **** 	HAL_GPIO_WritePin(BUZZER_GPIO_Port, BUZZER_Pin, SET);
 609              		.loc 1 372 2
 610 0102 0122     		movs	r2, #1
 611 0104 4FF48041 		mov	r1, #16384
 612 0108 4148     		ldr	r0, .L5+28
 613 010a FFF7FEFF 		bl	HAL_GPIO_WritePin
 373:Core/Src/main.c **** 	HAL_Delay(300);
 614              		.loc 1 373 2
 615 010e 4FF49670 		mov	r0, #300
 616 0112 FFF7FEFF 		bl	HAL_Delay
 374:Core/Src/main.c **** 	HAL_GPIO_WritePin(BUZZER_GPIO_Port, BUZZER_Pin, RESET);
 617              		.loc 1 374 2
 618 0116 0022     		movs	r2, #0
ARM GAS  C:\Users\Halil\AppData\Local\Temp\cce2uIVz.s 			page 19


 619 0118 4FF48041 		mov	r1, #16384
 620 011c 3C48     		ldr	r0, .L5+28
 621 011e FFF7FEFF 		bl	HAL_GPIO_WritePin
 375:Core/Src/main.c **** 
 376:Core/Src/main.c ****   /* USER CODE END 2 */
 377:Core/Src/main.c **** 
 378:Core/Src/main.c ****   /* Init scheduler */
 379:Core/Src/main.c ****   osKernelInitialize();
 622              		.loc 1 379 3
 623 0122 FFF7FEFF 		bl	osKernelInitialize
 380:Core/Src/main.c **** 
 381:Core/Src/main.c ****   /* USER CODE BEGIN RTOS_MUTEX */
 382:Core/Src/main.c ****   /* Create I2C mutex for thread-safe I2C bus access */
 383:Core/Src/main.c ****   const osMutexAttr_t i2cMutex_attributes = {
 624              		.loc 1 383 23
 625 0126 3B46     		mov	r3, r7
 626 0128 0022     		movs	r2, #0
 627 012a 1A60     		str	r2, [r3]
 628 012c 5A60     		str	r2, [r3, #4]
 629 012e 9A60     		str	r2, [r3, #8]
 630 0130 DA60     		str	r2, [r3, #12]
 631 0132 384B     		ldr	r3, .L5+32
 632 0134 3B60     		str	r3, [r7]
 384:Core/Src/main.c ****     .name = "i2cMutex"
 385:Core/Src/main.c ****   };
 386:Core/Src/main.c ****   i2cMutexHandle = osMutexNew(&i2cMutex_attributes);
 633              		.loc 1 386 20
 634 0136 3B46     		mov	r3, r7
 635 0138 1846     		mov	r0, r3
 636 013a FFF7FEFF 		bl	osMutexNew
 637 013e 0346     		mov	r3, r0
 638              		.loc 1 386 18
 639 0140 354A     		ldr	r2, .L5+36
 640 0142 1360     		str	r3, [r2]
 387:Core/Src/main.c ****   if(i2cMutexHandle == NULL) {
 641              		.loc 1 387 21
 642 0144 344B     		ldr	r3, .L5+36
 643 0146 1B68     		ldr	r3, [r3]
 644              		.loc 1 387 5
 645 0148 002B     		cmp	r3, #0
 646 014a 01D1     		bne	.L2
 388:Core/Src/main.c ****     Error_Handler();
 647              		.loc 1 388 5
 648 014c FFF7FEFF 		bl	Error_Handler
 649              	.L2:
 389:Core/Src/main.c ****   }
 390:Core/Src/main.c ****   /* USER CODE END RTOS_MUTEX */
 391:Core/Src/main.c **** 
 392:Core/Src/main.c ****   /* USER CODE BEGIN RTOS_SEMAPHORES */
 393:Core/Src/main.c ****   /* Create binary semaphore for BMI088 interrupt synchronization */
 394:Core/Src/main.c ****   bmiDataReadySemaphoreHandle = osSemaphoreNew(1, 0, NULL);
 650              		.loc 1 394 33
 651 0150 0022     		movs	r2, #0
 652 0152 0021     		movs	r1, #0
 653 0154 0120     		movs	r0, #1
 654 0156 FFF7FEFF 		bl	osSemaphoreNew
 655 015a 0346     		mov	r3, r0
ARM GAS  C:\Users\Halil\AppData\Local\Temp\cce2uIVz.s 			page 20


 656              		.loc 1 394 31
 657 015c 2F4A     		ldr	r2, .L5+40
 658 015e 1360     		str	r3, [r2]
 395:Core/Src/main.c ****   if(bmiDataReadySemaphoreHandle == NULL) {
 659              		.loc 1 395 34
 660 0160 2E4B     		ldr	r3, .L5+40
 661 0162 1B68     		ldr	r3, [r3]
 662              		.loc 1 395 5
 663 0164 002B     		cmp	r3, #0
 664 0166 01D1     		bne	.L3
 396:Core/Src/main.c ****     Error_Handler();
 665              		.loc 1 396 5
 666 0168 FFF7FEFF 		bl	Error_Handler
 667              	.L3:
 397:Core/Src/main.c ****   }
 398:Core/Src/main.c ****   /* USER CODE END RTOS_SEMAPHORES */
 399:Core/Src/main.c **** 
 400:Core/Src/main.c ****   /* USER CODE BEGIN RTOS_TIMERS */
 401:Core/Src/main.c ****   /* start timers, add new ones, ... */
 402:Core/Src/main.c ****   /* USER CODE END RTOS_TIMERS */
 403:Core/Src/main.c **** 
 404:Core/Src/main.c ****   /* USER CODE BEGIN RTOS_QUEUES */
 405:Core/Src/main.c ****   /* add queues, ... */
 406:Core/Src/main.c ****   /* USER CODE END RTOS_QUEUES */
 407:Core/Src/main.c **** 
 408:Core/Src/main.c ****   /* Create the thread(s) */
 409:Core/Src/main.c ****   /* creation of defaultTask */
 410:Core/Src/main.c ****   defaultTaskHandle = osThreadNew(StartDefaultTask, NULL, &defaultTask_attributes);
 668              		.loc 1 410 23
 669 016c 2C4A     		ldr	r2, .L5+44
 670 016e 0021     		movs	r1, #0
 671 0170 2C48     		ldr	r0, .L5+48
 672 0172 FFF7FEFF 		bl	osThreadNew
 673 0176 0346     		mov	r3, r0
 674              		.loc 1 410 21
 675 0178 2B4A     		ldr	r2, .L5+52
 676 017a 1360     		str	r3, [r2]
 411:Core/Src/main.c **** 
 412:Core/Src/main.c ****   /* USER CODE BEGIN RTOS_THREADS */
 413:Core/Src/main.c ****   /* creation of bmiTask */
 414:Core/Src/main.c ****   bmiTaskHandle = osThreadNew(StartBMITask, NULL, &bmiTask_attributes);
 677              		.loc 1 414 19
 678 017c 2B4A     		ldr	r2, .L5+56
 679 017e 0021     		movs	r1, #0
 680 0180 2B48     		ldr	r0, .L5+60
 681 0182 FFF7FEFF 		bl	osThreadNew
 682 0186 0346     		mov	r3, r0
 683              		.loc 1 414 17
 684 0188 2A4A     		ldr	r2, .L5+64
 685 018a 1360     		str	r3, [r2]
 415:Core/Src/main.c ****   
 416:Core/Src/main.c ****   /* creation of bmeTask */
 417:Core/Src/main.c ****   bmeTaskHandle = osThreadNew(StartBMETask, NULL, &bmeTask_attributes);
 686              		.loc 1 417 19
 687 018c 2A4A     		ldr	r2, .L5+68
 688 018e 0021     		movs	r1, #0
 689 0190 2A48     		ldr	r0, .L5+72
ARM GAS  C:\Users\Halil\AppData\Local\Temp\cce2uIVz.s 			page 21


 690 0192 FFF7FEFF 		bl	osThreadNew
 691 0196 0346     		mov	r3, r0
 692              		.loc 1 417 17
 693 0198 294A     		ldr	r2, .L5+76
 694 019a 1360     		str	r3, [r2]
 418:Core/Src/main.c ****   
 419:Core/Src/main.c ****   /* creation of sensorFusionTask */
 420:Core/Src/main.c ****   sensorFusionTaskHandle = osThreadNew(StartSensorFusionTask, NULL, &sensorFusionTask_attributes);
 695              		.loc 1 420 28
 696 019c 294A     		ldr	r2, .L5+80
 697 019e 0021     		movs	r1, #0
 698 01a0 2948     		ldr	r0, .L5+84
 699 01a2 FFF7FEFF 		bl	osThreadNew
 700 01a6 0346     		mov	r3, r0
 701              		.loc 1 420 26
 702 01a8 284A     		ldr	r2, .L5+88
 703 01aa 1360     		str	r3, [r2]
 421:Core/Src/main.c ****   
 422:Core/Src/main.c ****   /* creation of adcTask */
 423:Core/Src/main.c ****   adcTaskHandle = osThreadNew(StartADCTask, NULL, &adcTask_attributes);
 704              		.loc 1 423 19
 705 01ac 284A     		ldr	r2, .L5+92
 706 01ae 0021     		movs	r1, #0
 707 01b0 2848     		ldr	r0, .L5+96
 708 01b2 FFF7FEFF 		bl	osThreadNew
 709 01b6 0346     		mov	r3, r0
 710              		.loc 1 423 17
 711 01b8 274A     		ldr	r2, .L5+100
 712 01ba 1360     		str	r3, [r2]
 424:Core/Src/main.c ****   
 425:Core/Src/main.c ****   /* creation of gnssTask */
 426:Core/Src/main.c ****   gnssTaskHandle = osThreadNew(StartGNSSTask, NULL, &gnssTask_attributes);
 713              		.loc 1 426 20
 714 01bc 274A     		ldr	r2, .L5+104
 715 01be 0021     		movs	r1, #0
 716 01c0 2748     		ldr	r0, .L5+108
 717 01c2 FFF7FEFF 		bl	osThreadNew
 718 01c6 0346     		mov	r3, r0
 719              		.loc 1 426 18
 720 01c8 264A     		ldr	r2, .L5+112
 721 01ca 1360     		str	r3, [r2]
 427:Core/Src/main.c ****   
 428:Core/Src/main.c ****   /* creation of telemetryTask */
 429:Core/Src/main.c ****   telemetryTaskHandle = osThreadNew(StartTelemetryTask, NULL, &telemetryTask_attributes);
 722              		.loc 1 429 25
 723 01cc 264A     		ldr	r2, .L5+116
 724 01ce 0021     		movs	r1, #0
 725 01d0 2648     		ldr	r0, .L5+120
 726 01d2 FFF7FEFF 		bl	osThreadNew
 727 01d6 0346     		mov	r3, r0
 728              		.loc 1 429 23
 729 01d8 254A     		ldr	r2, .L5+124
 730 01da 1360     		str	r3, [r2]
 430:Core/Src/main.c ****   
 431:Core/Src/main.c ****   /* creation of dataLoggerTask */
 432:Core/Src/main.c ****   dataLoggerTaskHandle = osThreadNew(StartDataLoggerTask, NULL, &dataLoggerTask_attributes);
 731              		.loc 1 432 26
ARM GAS  C:\Users\Halil\AppData\Local\Temp\cce2uIVz.s 			page 22


 732 01dc 254A     		ldr	r2, .L5+128
 733 01de 0021     		movs	r1, #0
 734 01e0 2548     		ldr	r0, .L5+132
 735 01e2 FFF7FEFF 		bl	osThreadNew
 736 01e6 0346     		mov	r3, r0
 737              		.loc 1 432 24
 738 01e8 244A     		ldr	r2, .L5+136
 739 01ea 1360     		str	r3, [r2]
 433:Core/Src/main.c ****   
 434:Core/Src/main.c ****   /* USER CODE END RTOS_THREADS */
 435:Core/Src/main.c **** 
 436:Core/Src/main.c ****   /* USER CODE BEGIN RTOS_EVENTS */
 437:Core/Src/main.c ****   /* add events, ... */
 438:Core/Src/main.c ****   /* USER CODE END RTOS_EVENTS */
 439:Core/Src/main.c **** 
 440:Core/Src/main.c ****   /* Start scheduler */
 441:Core/Src/main.c ****   osKernelStart();
 740              		.loc 1 441 3
 741 01ec FFF7FEFF 		bl	osKernelStart
 742              	.L4:
 442:Core/Src/main.c **** 
 443:Core/Src/main.c ****   /* We should never get here as control is now taken by the scheduler */
 444:Core/Src/main.c **** 
 445:Core/Src/main.c ****   /* Infinite loop */
 446:Core/Src/main.c ****   /* USER CODE BEGIN WHILE */
 447:Core/Src/main.c ****   while (1)
 743              		.loc 1 447 9 discriminator 1
 744 01f0 00BF     		nop
 745 01f2 FDE7     		b	.L4
 746              	.L6:
 747              		.align	2
 748              	.L5:
 749 01f4 001000E0 		.word	-536866816
 750 01f8 64000000 		.word	.LC8
 751 01fc 00000000 		.word	huart6
 752 0200 00000000 		.word	hdma_usart6_rx
 753 0204 00000000 		.word	BMI_sensor
 754 0208 00000000 		.word	BME280_sensor
 755 020c 00000000 		.word	lora_1
 756 0210 00040240 		.word	1073873920
 757 0214 78000000 		.word	.LC9
 758 0218 00000000 		.word	i2cMutexHandle
 759 021c 00000000 		.word	bmiDataReadySemaphoreHandle
 760 0220 00000000 		.word	defaultTask_attributes
 761 0224 00000000 		.word	StartDefaultTask
 762 0228 00000000 		.word	defaultTaskHandle
 763 022c 00000000 		.word	bmiTask_attributes
 764 0230 00000000 		.word	StartBMITask
 765 0234 00000000 		.word	bmiTaskHandle
 766 0238 00000000 		.word	bmeTask_attributes
 767 023c 00000000 		.word	StartBMETask
 768 0240 00000000 		.word	bmeTaskHandle
 769 0244 00000000 		.word	sensorFusionTask_attributes
 770 0248 00000000 		.word	StartSensorFusionTask
 771 024c 00000000 		.word	sensorFusionTaskHandle
 772 0250 00000000 		.word	adcTask_attributes
 773 0254 00000000 		.word	StartADCTask
ARM GAS  C:\Users\Halil\AppData\Local\Temp\cce2uIVz.s 			page 23


 774 0258 00000000 		.word	adcTaskHandle
 775 025c 00000000 		.word	gnssTask_attributes
 776 0260 00000000 		.word	StartGNSSTask
 777 0264 00000000 		.word	gnssTaskHandle
 778 0268 00000000 		.word	telemetryTask_attributes
 779 026c 00000000 		.word	StartTelemetryTask
 780 0270 00000000 		.word	telemetryTaskHandle
 781 0274 00000000 		.word	dataLoggerTask_attributes
 782 0278 00000000 		.word	StartDataLoggerTask
 783 027c 00000000 		.word	dataLoggerTaskHandle
 784              		.cfi_endproc
 785              	.LFE246:
 787              		.section	.text.SystemClock_Config,"ax",%progbits
 788              		.align	1
 789              		.global	SystemClock_Config
 790              		.syntax unified
 791              		.thumb
 792              		.thumb_func
 794              	SystemClock_Config:
 795              	.LFB247:
 448:Core/Src/main.c ****   {
 449:Core/Src/main.c ****     /* USER CODE END WHILE */
 450:Core/Src/main.c **** 
 451:Core/Src/main.c ****     /* USER CODE BEGIN 3 */
 452:Core/Src/main.c ****     // Main loop is now empty - all work is done in FreeRTOS tasks
 453:Core/Src/main.c ****   }
 454:Core/Src/main.c ****   /* USER CODE END 3 */
 455:Core/Src/main.c **** }
 456:Core/Src/main.c **** 
 457:Core/Src/main.c **** /**
 458:Core/Src/main.c ****   * @brief System Clock Configuration
 459:Core/Src/main.c ****   * @retval None
 460:Core/Src/main.c ****   */
 461:Core/Src/main.c **** void SystemClock_Config(void)
 462:Core/Src/main.c **** {
 796              		.loc 1 462 1
 797              		.cfi_startproc
 798              		@ args = 0, pretend = 0, frame = 80
 799              		@ frame_needed = 1, uses_anonymous_args = 0
 800 0000 80B5     		push	{r7, lr}
 801              		.cfi_def_cfa_offset 8
 802              		.cfi_offset 7, -8
 803              		.cfi_offset 14, -4
 804 0002 94B0     		sub	sp, sp, #80
 805              		.cfi_def_cfa_offset 88
 806 0004 00AF     		add	r7, sp, #0
 807              		.cfi_def_cfa_register 7
 463:Core/Src/main.c ****   RCC_OscInitTypeDef RCC_OscInitStruct = {0};
 808              		.loc 1 463 22
 809 0006 07F11C03 		add	r3, r7, #28
 810 000a 3422     		movs	r2, #52
 811 000c 0021     		movs	r1, #0
 812 000e 1846     		mov	r0, r3
 813 0010 FFF7FEFF 		bl	memset
 464:Core/Src/main.c ****   RCC_ClkInitTypeDef RCC_ClkInitStruct = {0};
 814              		.loc 1 464 22
 815 0014 07F10803 		add	r3, r7, #8
ARM GAS  C:\Users\Halil\AppData\Local\Temp\cce2uIVz.s 			page 24


 816 0018 0022     		movs	r2, #0
 817 001a 1A60     		str	r2, [r3]
 818 001c 5A60     		str	r2, [r3, #4]
 819 001e 9A60     		str	r2, [r3, #8]
 820 0020 DA60     		str	r2, [r3, #12]
 821 0022 1A61     		str	r2, [r3, #16]
 822              	.LBB4:
 465:Core/Src/main.c **** 
 466:Core/Src/main.c ****   /** Configure the main internal regulator output voltage
 467:Core/Src/main.c ****   */
 468:Core/Src/main.c ****   __HAL_RCC_PWR_CLK_ENABLE();
 823              		.loc 1 468 3
 824 0024 0023     		movs	r3, #0
 825 0026 7B60     		str	r3, [r7, #4]
 826 0028 294B     		ldr	r3, .L11
 827 002a 1B6C     		ldr	r3, [r3, #64]
 828 002c 284A     		ldr	r2, .L11
 829 002e 43F08053 		orr	r3, r3, #268435456
 830 0032 1364     		str	r3, [r2, #64]
 831 0034 264B     		ldr	r3, .L11
 832 0036 1B6C     		ldr	r3, [r3, #64]
 833 0038 03F08053 		and	r3, r3, #268435456
 834 003c 7B60     		str	r3, [r7, #4]
 835 003e 7B68     		ldr	r3, [r7, #4]
 836              	.LBE4:
 837              	.LBB5:
 469:Core/Src/main.c ****   __HAL_PWR_VOLTAGESCALING_CONFIG(PWR_REGULATOR_VOLTAGE_SCALE1);
 838              		.loc 1 469 3
 839 0040 0023     		movs	r3, #0
 840 0042 3B60     		str	r3, [r7]
 841 0044 234B     		ldr	r3, .L11+4
 842 0046 1B68     		ldr	r3, [r3]
 843 0048 224A     		ldr	r2, .L11+4
 844 004a 43F44043 		orr	r3, r3, #49152
 845 004e 1360     		str	r3, [r2]
 846 0050 204B     		ldr	r3, .L11+4
 847 0052 1B68     		ldr	r3, [r3]
 848 0054 03F44043 		and	r3, r3, #49152
 849 0058 3B60     		str	r3, [r7]
 850 005a 3B68     		ldr	r3, [r7]
 851              	.LBE5:
 470:Core/Src/main.c **** 
 471:Core/Src/main.c ****   /** Initializes the RCC Oscillators according to the specified parameters
 472:Core/Src/main.c ****   * in the RCC_OscInitTypeDef structure.
 473:Core/Src/main.c ****   */
 474:Core/Src/main.c ****   RCC_OscInitStruct.OscillatorType = RCC_OSCILLATORTYPE_HSE;
 852              		.loc 1 474 36
 853 005c 0123     		movs	r3, #1
 854 005e FB61     		str	r3, [r7, #28]
 475:Core/Src/main.c ****   RCC_OscInitStruct.HSEState = RCC_HSE_ON;
 855              		.loc 1 475 30
 856 0060 4FF48033 		mov	r3, #65536
 857 0064 3B62     		str	r3, [r7, #32]
 476:Core/Src/main.c ****   RCC_OscInitStruct.PLL.PLLState = RCC_PLL_ON;
 858              		.loc 1 476 34
 859 0066 0223     		movs	r3, #2
 860 0068 7B63     		str	r3, [r7, #52]
ARM GAS  C:\Users\Halil\AppData\Local\Temp\cce2uIVz.s 			page 25


 477:Core/Src/main.c ****   RCC_OscInitStruct.PLL.PLLSource = RCC_PLLSOURCE_HSE;
 861              		.loc 1 477 35
 862 006a 4FF48003 		mov	r3, #4194304
 863 006e BB63     		str	r3, [r7, #56]
 478:Core/Src/main.c ****   RCC_OscInitStruct.PLL.PLLM = 8;
 864              		.loc 1 478 30
 865 0070 0823     		movs	r3, #8
 866 0072 FB63     		str	r3, [r7, #60]
 479:Core/Src/main.c ****   RCC_OscInitStruct.PLL.PLLN = 336;
 867              		.loc 1 479 30
 868 0074 4FF4A873 		mov	r3, #336
 869 0078 3B64     		str	r3, [r7, #64]
 480:Core/Src/main.c ****   RCC_OscInitStruct.PLL.PLLP = RCC_PLLP_DIV2;
 870              		.loc 1 480 30
 871 007a 0223     		movs	r3, #2
 872 007c 7B64     		str	r3, [r7, #68]
 481:Core/Src/main.c ****   RCC_OscInitStruct.PLL.PLLQ = 2;
 873              		.loc 1 481 30
 874 007e 0223     		movs	r3, #2
 875 0080 BB64     		str	r3, [r7, #72]
 482:Core/Src/main.c ****   RCC_OscInitStruct.PLL.PLLR = 2;
 876              		.loc 1 482 30
 877 0082 0223     		movs	r3, #2
 878 0084 FB64     		str	r3, [r7, #76]
 483:Core/Src/main.c ****   if (HAL_RCC_OscConfig(&RCC_OscInitStruct) != HAL_OK)
 879              		.loc 1 483 7
 880 0086 07F11C03 		add	r3, r7, #28
 881 008a 1846     		mov	r0, r3
 882 008c FFF7FEFF 		bl	HAL_RCC_OscConfig
 883 0090 0346     		mov	r3, r0
 884              		.loc 1 483 6
 885 0092 002B     		cmp	r3, #0
 886 0094 01D0     		beq	.L8
 484:Core/Src/main.c ****   {
 485:Core/Src/main.c ****     Error_Handler();
 887              		.loc 1 485 5
 888 0096 FFF7FEFF 		bl	Error_Handler
 889              	.L8:
 486:Core/Src/main.c ****   }
 487:Core/Src/main.c **** 
 488:Core/Src/main.c ****   /** Initializes the CPU, AHB and APB buses clocks
 489:Core/Src/main.c ****   */
 490:Core/Src/main.c ****   RCC_ClkInitStruct.ClockType = RCC_CLOCKTYPE_HCLK|RCC_CLOCKTYPE_SYSCLK
 890              		.loc 1 490 31
 891 009a 0F23     		movs	r3, #15
 892 009c BB60     		str	r3, [r7, #8]
 491:Core/Src/main.c ****                               |RCC_CLOCKTYPE_PCLK1|RCC_CLOCKTYPE_PCLK2;
 492:Core/Src/main.c ****   RCC_ClkInitStruct.SYSCLKSource = RCC_SYSCLKSOURCE_PLLCLK;
 893              		.loc 1 492 34
 894 009e 0223     		movs	r3, #2
 895 00a0 FB60     		str	r3, [r7, #12]
 493:Core/Src/main.c ****   RCC_ClkInitStruct.AHBCLKDivider = RCC_SYSCLK_DIV1;
 896              		.loc 1 493 35
 897 00a2 0023     		movs	r3, #0
 898 00a4 3B61     		str	r3, [r7, #16]
 494:Core/Src/main.c ****   RCC_ClkInitStruct.APB1CLKDivider = RCC_HCLK_DIV4;
 899              		.loc 1 494 36
ARM GAS  C:\Users\Halil\AppData\Local\Temp\cce2uIVz.s 			page 26


 900 00a6 4FF4A053 		mov	r3, #5120
 901 00aa 7B61     		str	r3, [r7, #20]
 495:Core/Src/main.c ****   RCC_ClkInitStruct.APB2CLKDivider = RCC_HCLK_DIV2;
 902              		.loc 1 495 36
 903 00ac 4FF48053 		mov	r3, #4096
 904 00b0 BB61     		str	r3, [r7, #24]
 496:Core/Src/main.c **** 
 497:Core/Src/main.c ****   if (HAL_RCC_ClockConfig(&RCC_ClkInitStruct, FLASH_LATENCY_5) != HAL_OK)
 905              		.loc 1 497 7
 906 00b2 07F10803 		add	r3, r7, #8
 907 00b6 0521     		movs	r1, #5
 908 00b8 1846     		mov	r0, r3
 909 00ba FFF7FEFF 		bl	HAL_RCC_ClockConfig
 910 00be 0346     		mov	r3, r0
 911              		.loc 1 497 6
 912 00c0 002B     		cmp	r3, #0
 913 00c2 01D0     		beq	.L10
 498:Core/Src/main.c ****   {
 499:Core/Src/main.c ****     Error_Handler();
 914              		.loc 1 499 5
 915 00c4 FFF7FEFF 		bl	Error_Handler
 916              	.L10:
 500:Core/Src/main.c ****   }
 501:Core/Src/main.c **** }
 917              		.loc 1 501 1
 918 00c8 00BF     		nop
 919 00ca 5037     		adds	r7, r7, #80
 920              		.cfi_def_cfa_offset 8
 921 00cc BD46     		mov	sp, r7
 922              		.cfi_def_cfa_register 13
 923              		@ sp needed
 924 00ce 80BD     		pop	{r7, pc}
 925              	.L12:
 926              		.align	2
 927              	.L11:
 928 00d0 00380240 		.word	1073887232
 929 00d4 00700040 		.word	1073770496
 930              		.cfi_endproc
 931              	.LFE247:
 933              		.section	.text.MX_ADC1_Init,"ax",%progbits
 934              		.align	1
 935              		.syntax unified
 936              		.thumb
 937              		.thumb_func
 939              	MX_ADC1_Init:
 940              	.LFB248:
 502:Core/Src/main.c **** 
 503:Core/Src/main.c **** /**
 504:Core/Src/main.c ****   * @brief ADC1 Initialization Function
 505:Core/Src/main.c ****   * @param None
 506:Core/Src/main.c ****   * @retval None
 507:Core/Src/main.c ****   */
 508:Core/Src/main.c **** static void MX_ADC1_Init(void)
 509:Core/Src/main.c **** {
 941              		.loc 1 509 1
 942              		.cfi_startproc
 943              		@ args = 0, pretend = 0, frame = 16
ARM GAS  C:\Users\Halil\AppData\Local\Temp\cce2uIVz.s 			page 27


 944              		@ frame_needed = 1, uses_anonymous_args = 0
 945 0000 80B5     		push	{r7, lr}
 946              		.cfi_def_cfa_offset 8
 947              		.cfi_offset 7, -8
 948              		.cfi_offset 14, -4
 949 0002 84B0     		sub	sp, sp, #16
 950              		.cfi_def_cfa_offset 24
 951 0004 00AF     		add	r7, sp, #0
 952              		.cfi_def_cfa_register 7
 510:Core/Src/main.c **** 
 511:Core/Src/main.c ****   /* USER CODE BEGIN ADC1_Init 0 */
 512:Core/Src/main.c **** 
 513:Core/Src/main.c ****   /* USER CODE END ADC1_Init 0 */
 514:Core/Src/main.c **** 
 515:Core/Src/main.c ****   ADC_ChannelConfTypeDef sConfig = {0};
 953              		.loc 1 515 26
 954 0006 3B46     		mov	r3, r7
 955 0008 0022     		movs	r2, #0
 956 000a 1A60     		str	r2, [r3]
 957 000c 5A60     		str	r2, [r3, #4]
 958 000e 9A60     		str	r2, [r3, #8]
 959 0010 DA60     		str	r2, [r3, #12]
 516:Core/Src/main.c **** 
 517:Core/Src/main.c ****   /* USER CODE BEGIN ADC1_Init 1 */
 518:Core/Src/main.c **** 
 519:Core/Src/main.c ****   /* USER CODE END ADC1_Init 1 */
 520:Core/Src/main.c **** 
 521:Core/Src/main.c ****   /** Configure the global features of the ADC (Clock, Resolution, Data Alignment and number of con
 522:Core/Src/main.c ****   */
 523:Core/Src/main.c ****   hadc1.Instance = ADC1;
 960              		.loc 1 523 18
 961 0012 214B     		ldr	r3, .L17
 962 0014 214A     		ldr	r2, .L17+4
 963 0016 1A60     		str	r2, [r3]
 524:Core/Src/main.c ****   hadc1.Init.ClockPrescaler = ADC_CLOCK_SYNC_PCLK_DIV4;
 964              		.loc 1 524 29
 965 0018 1F4B     		ldr	r3, .L17
 966 001a 4FF48032 		mov	r2, #65536
 967 001e 5A60     		str	r2, [r3, #4]
 525:Core/Src/main.c ****   hadc1.Init.Resolution = ADC_RESOLUTION_12B;
 968              		.loc 1 525 25
 969 0020 1D4B     		ldr	r3, .L17
 970 0022 0022     		movs	r2, #0
 971 0024 9A60     		str	r2, [r3, #8]
 526:Core/Src/main.c ****   hadc1.Init.ScanConvMode = DISABLE;
 972              		.loc 1 526 27
 973 0026 1C4B     		ldr	r3, .L17
 974 0028 0022     		movs	r2, #0
 975 002a 1A61     		str	r2, [r3, #16]
 527:Core/Src/main.c ****   hadc1.Init.ContinuousConvMode = DISABLE;
 976              		.loc 1 527 33
 977 002c 1A4B     		ldr	r3, .L17
 978 002e 0022     		movs	r2, #0
 979 0030 1A76     		strb	r2, [r3, #24]
 528:Core/Src/main.c ****   hadc1.Init.DiscontinuousConvMode = DISABLE;
 980              		.loc 1 528 36
 981 0032 194B     		ldr	r3, .L17
ARM GAS  C:\Users\Halil\AppData\Local\Temp\cce2uIVz.s 			page 28


 982 0034 0022     		movs	r2, #0
 983 0036 83F82020 		strb	r2, [r3, #32]
 529:Core/Src/main.c ****   hadc1.Init.ExternalTrigConvEdge = ADC_EXTERNALTRIGCONVEDGE_NONE;
 984              		.loc 1 529 35
 985 003a 174B     		ldr	r3, .L17
 986 003c 0022     		movs	r2, #0
 987 003e DA62     		str	r2, [r3, #44]
 530:Core/Src/main.c ****   hadc1.Init.ExternalTrigConv = ADC_SOFTWARE_START;
 988              		.loc 1 530 31
 989 0040 154B     		ldr	r3, .L17
 990 0042 174A     		ldr	r2, .L17+8
 991 0044 9A62     		str	r2, [r3, #40]
 531:Core/Src/main.c ****   hadc1.Init.DataAlign = ADC_DATAALIGN_RIGHT;
 992              		.loc 1 531 24
 993 0046 144B     		ldr	r3, .L17
 994 0048 0022     		movs	r2, #0
 995 004a DA60     		str	r2, [r3, #12]
 532:Core/Src/main.c ****   hadc1.Init.NbrOfConversion = 1;
 996              		.loc 1 532 30
 997 004c 124B     		ldr	r3, .L17
 998 004e 0122     		movs	r2, #1
 999 0050 DA61     		str	r2, [r3, #28]
 533:Core/Src/main.c ****   hadc1.Init.DMAContinuousRequests = DISABLE;
 1000              		.loc 1 533 36
 1001 0052 114B     		ldr	r3, .L17
 1002 0054 0022     		movs	r2, #0
 1003 0056 83F83020 		strb	r2, [r3, #48]
 534:Core/Src/main.c ****   hadc1.Init.EOCSelection = ADC_EOC_SINGLE_CONV;
 1004              		.loc 1 534 27
 1005 005a 0F4B     		ldr	r3, .L17
 1006 005c 0122     		movs	r2, #1
 1007 005e 5A61     		str	r2, [r3, #20]
 535:Core/Src/main.c ****   if (HAL_ADC_Init(&hadc1) != HAL_OK)
 1008              		.loc 1 535 7
 1009 0060 0D48     		ldr	r0, .L17
 1010 0062 FFF7FEFF 		bl	HAL_ADC_Init
 1011 0066 0346     		mov	r3, r0
 1012              		.loc 1 535 6
 1013 0068 002B     		cmp	r3, #0
 1014 006a 01D0     		beq	.L14
 536:Core/Src/main.c ****   {
 537:Core/Src/main.c ****     Error_Handler();
 1015              		.loc 1 537 5
 1016 006c FFF7FEFF 		bl	Error_Handler
 1017              	.L14:
 538:Core/Src/main.c ****   }
 539:Core/Src/main.c **** 
 540:Core/Src/main.c ****   /** Configure for the selected ADC regular channel its corresponding rank in the sequencer and it
 541:Core/Src/main.c ****   */
 542:Core/Src/main.c ****   sConfig.Channel = ADC_CHANNEL_9;
 1018              		.loc 1 542 19
 1019 0070 0923     		movs	r3, #9
 1020 0072 3B60     		str	r3, [r7]
 543:Core/Src/main.c ****   sConfig.Rank = 1;
 1021              		.loc 1 543 16
 1022 0074 0123     		movs	r3, #1
 1023 0076 7B60     		str	r3, [r7, #4]
ARM GAS  C:\Users\Halil\AppData\Local\Temp\cce2uIVz.s 			page 29


 544:Core/Src/main.c ****   sConfig.SamplingTime = ADC_SAMPLETIME_15CYCLES;
 1024              		.loc 1 544 24
 1025 0078 0123     		movs	r3, #1
 1026 007a BB60     		str	r3, [r7, #8]
 545:Core/Src/main.c ****   if (HAL_ADC_ConfigChannel(&hadc1, &sConfig) != HAL_OK)
 1027              		.loc 1 545 7
 1028 007c 3B46     		mov	r3, r7
 1029 007e 1946     		mov	r1, r3
 1030 0080 0548     		ldr	r0, .L17
 1031 0082 FFF7FEFF 		bl	HAL_ADC_ConfigChannel
 1032 0086 0346     		mov	r3, r0
 1033              		.loc 1 545 6
 1034 0088 002B     		cmp	r3, #0
 1035 008a 01D0     		beq	.L16
 546:Core/Src/main.c ****   {
 547:Core/Src/main.c ****     Error_Handler();
 1036              		.loc 1 547 5
 1037 008c FFF7FEFF 		bl	Error_Handler
 1038              	.L16:
 548:Core/Src/main.c ****   }
 549:Core/Src/main.c ****   /* USER CODE BEGIN ADC1_Init 2 */
 550:Core/Src/main.c **** 
 551:Core/Src/main.c ****   /* USER CODE END ADC1_Init 2 */
 552:Core/Src/main.c **** 
 553:Core/Src/main.c **** }
 1039              		.loc 1 553 1
 1040 0090 00BF     		nop
 1041 0092 1037     		adds	r7, r7, #16
 1042              		.cfi_def_cfa_offset 8
 1043 0094 BD46     		mov	sp, r7
 1044              		.cfi_def_cfa_register 13
 1045              		@ sp needed
 1046 0096 80BD     		pop	{r7, pc}
 1047              	.L18:
 1048              		.align	2
 1049              	.L17:
 1050 0098 00000000 		.word	hadc1
 1051 009c 00200140 		.word	1073815552
 1052 00a0 0100000F 		.word	251658241
 1053              		.cfi_endproc
 1054              	.LFE248:
 1056              		.section	.text.MX_ADC2_Init,"ax",%progbits
 1057              		.align	1
 1058              		.syntax unified
 1059              		.thumb
 1060              		.thumb_func
 1062              	MX_ADC2_Init:
 1063              	.LFB249:
 554:Core/Src/main.c **** 
 555:Core/Src/main.c **** /**
 556:Core/Src/main.c ****   * @brief ADC2 Initialization Function
 557:Core/Src/main.c ****   * @param None
 558:Core/Src/main.c ****   * @retval None
 559:Core/Src/main.c ****   */
 560:Core/Src/main.c **** static void MX_ADC2_Init(void)
 561:Core/Src/main.c **** {
 1064              		.loc 1 561 1
ARM GAS  C:\Users\Halil\AppData\Local\Temp\cce2uIVz.s 			page 30


 1065              		.cfi_startproc
 1066              		@ args = 0, pretend = 0, frame = 16
 1067              		@ frame_needed = 1, uses_anonymous_args = 0
 1068 0000 80B5     		push	{r7, lr}
 1069              		.cfi_def_cfa_offset 8
 1070              		.cfi_offset 7, -8
 1071              		.cfi_offset 14, -4
 1072 0002 84B0     		sub	sp, sp, #16
 1073              		.cfi_def_cfa_offset 24
 1074 0004 00AF     		add	r7, sp, #0
 1075              		.cfi_def_cfa_register 7
 562:Core/Src/main.c **** 
 563:Core/Src/main.c ****   /* USER CODE BEGIN ADC2_Init 0 */
 564:Core/Src/main.c **** 
 565:Core/Src/main.c ****   /* USER CODE END ADC2_Init 0 */
 566:Core/Src/main.c **** 
 567:Core/Src/main.c ****   ADC_ChannelConfTypeDef sConfig = {0};
 1076              		.loc 1 567 26
 1077 0006 3B46     		mov	r3, r7
 1078 0008 0022     		movs	r2, #0
 1079 000a 1A60     		str	r2, [r3]
 1080 000c 5A60     		str	r2, [r3, #4]
 1081 000e 9A60     		str	r2, [r3, #8]
 1082 0010 DA60     		str	r2, [r3, #12]
 568:Core/Src/main.c **** 
 569:Core/Src/main.c ****   /* USER CODE BEGIN ADC2_Init 1 */
 570:Core/Src/main.c **** 
 571:Core/Src/main.c ****   /* USER CODE END ADC2_Init 1 */
 572:Core/Src/main.c **** 
 573:Core/Src/main.c ****   /** Configure the global features of the ADC (Clock, Resolution, Data Alignment and number of con
 574:Core/Src/main.c ****   */
 575:Core/Src/main.c ****   hadc2.Instance = ADC2;
 1083              		.loc 1 575 18
 1084 0012 214B     		ldr	r3, .L23
 1085 0014 214A     		ldr	r2, .L23+4
 1086 0016 1A60     		str	r2, [r3]
 576:Core/Src/main.c ****   hadc2.Init.ClockPrescaler = ADC_CLOCK_SYNC_PCLK_DIV4;
 1087              		.loc 1 576 29
 1088 0018 1F4B     		ldr	r3, .L23
 1089 001a 4FF48032 		mov	r2, #65536
 1090 001e 5A60     		str	r2, [r3, #4]
 577:Core/Src/main.c ****   hadc2.Init.Resolution = ADC_RESOLUTION_12B;
 1091              		.loc 1 577 25
 1092 0020 1D4B     		ldr	r3, .L23
 1093 0022 0022     		movs	r2, #0
 1094 0024 9A60     		str	r2, [r3, #8]
 578:Core/Src/main.c ****   hadc2.Init.ScanConvMode = DISABLE;
 1095              		.loc 1 578 27
 1096 0026 1C4B     		ldr	r3, .L23
 1097 0028 0022     		movs	r2, #0
 1098 002a 1A61     		str	r2, [r3, #16]
 579:Core/Src/main.c ****   hadc2.Init.ContinuousConvMode = DISABLE;
 1099              		.loc 1 579 33
 1100 002c 1A4B     		ldr	r3, .L23
 1101 002e 0022     		movs	r2, #0
 1102 0030 1A76     		strb	r2, [r3, #24]
 580:Core/Src/main.c ****   hadc2.Init.DiscontinuousConvMode = DISABLE;
ARM GAS  C:\Users\Halil\AppData\Local\Temp\cce2uIVz.s 			page 31


 1103              		.loc 1 580 36
 1104 0032 194B     		ldr	r3, .L23
 1105 0034 0022     		movs	r2, #0
 1106 0036 83F82020 		strb	r2, [r3, #32]
 581:Core/Src/main.c ****   hadc2.Init.ExternalTrigConvEdge = ADC_EXTERNALTRIGCONVEDGE_NONE;
 1107              		.loc 1 581 35
 1108 003a 174B     		ldr	r3, .L23
 1109 003c 0022     		movs	r2, #0
 1110 003e DA62     		str	r2, [r3, #44]
 582:Core/Src/main.c ****   hadc2.Init.ExternalTrigConv = ADC_SOFTWARE_START;
 1111              		.loc 1 582 31
 1112 0040 154B     		ldr	r3, .L23
 1113 0042 174A     		ldr	r2, .L23+8
 1114 0044 9A62     		str	r2, [r3, #40]
 583:Core/Src/main.c ****   hadc2.Init.DataAlign = ADC_DATAALIGN_RIGHT;
 1115              		.loc 1 583 24
 1116 0046 144B     		ldr	r3, .L23
 1117 0048 0022     		movs	r2, #0
 1118 004a DA60     		str	r2, [r3, #12]
 584:Core/Src/main.c ****   hadc2.Init.NbrOfConversion = 1;
 1119              		.loc 1 584 30
 1120 004c 124B     		ldr	r3, .L23
 1121 004e 0122     		movs	r2, #1
 1122 0050 DA61     		str	r2, [r3, #28]
 585:Core/Src/main.c ****   hadc2.Init.DMAContinuousRequests = DISABLE;
 1123              		.loc 1 585 36
 1124 0052 114B     		ldr	r3, .L23
 1125 0054 0022     		movs	r2, #0
 1126 0056 83F83020 		strb	r2, [r3, #48]
 586:Core/Src/main.c ****   hadc2.Init.EOCSelection = ADC_EOC_SINGLE_CONV;
 1127              		.loc 1 586 27
 1128 005a 0F4B     		ldr	r3, .L23
 1129 005c 0122     		movs	r2, #1
 1130 005e 5A61     		str	r2, [r3, #20]
 587:Core/Src/main.c ****   if (HAL_ADC_Init(&hadc2) != HAL_OK)
 1131              		.loc 1 587 7
 1132 0060 0D48     		ldr	r0, .L23
 1133 0062 FFF7FEFF 		bl	HAL_ADC_Init
 1134 0066 0346     		mov	r3, r0
 1135              		.loc 1 587 6
 1136 0068 002B     		cmp	r3, #0
 1137 006a 01D0     		beq	.L20
 588:Core/Src/main.c ****   {
 589:Core/Src/main.c ****     Error_Handler();
 1138              		.loc 1 589 5
 1139 006c FFF7FEFF 		bl	Error_Handler
 1140              	.L20:
 590:Core/Src/main.c ****   }
 591:Core/Src/main.c **** 
 592:Core/Src/main.c ****   /** Configure for the selected ADC regular channel its corresponding rank in the sequencer and it
 593:Core/Src/main.c ****   */
 594:Core/Src/main.c ****   sConfig.Channel = ADC_CHANNEL_10;
 1141              		.loc 1 594 19
 1142 0070 0A23     		movs	r3, #10
 1143 0072 3B60     		str	r3, [r7]
 595:Core/Src/main.c ****   sConfig.Rank = 1;
 1144              		.loc 1 595 16
ARM GAS  C:\Users\Halil\AppData\Local\Temp\cce2uIVz.s 			page 32


 1145 0074 0123     		movs	r3, #1
 1146 0076 7B60     		str	r3, [r7, #4]
 596:Core/Src/main.c ****   sConfig.SamplingTime = ADC_SAMPLETIME_15CYCLES;
 1147              		.loc 1 596 24
 1148 0078 0123     		movs	r3, #1
 1149 007a BB60     		str	r3, [r7, #8]
 597:Core/Src/main.c ****   if (HAL_ADC_ConfigChannel(&hadc2, &sConfig) != HAL_OK)
 1150              		.loc 1 597 7
 1151 007c 3B46     		mov	r3, r7
 1152 007e 1946     		mov	r1, r3
 1153 0080 0548     		ldr	r0, .L23
 1154 0082 FFF7FEFF 		bl	HAL_ADC_ConfigChannel
 1155 0086 0346     		mov	r3, r0
 1156              		.loc 1 597 6
 1157 0088 002B     		cmp	r3, #0
 1158 008a 01D0     		beq	.L22
 598:Core/Src/main.c ****   {
 599:Core/Src/main.c ****     Error_Handler();
 1159              		.loc 1 599 5
 1160 008c FFF7FEFF 		bl	Error_Handler
 1161              	.L22:
 600:Core/Src/main.c ****   }
 601:Core/Src/main.c ****   /* USER CODE BEGIN ADC2_Init 2 */
 602:Core/Src/main.c **** 
 603:Core/Src/main.c ****   /* USER CODE END ADC2_Init 2 */
 604:Core/Src/main.c **** 
 605:Core/Src/main.c **** }
 1162              		.loc 1 605 1
 1163 0090 00BF     		nop
 1164 0092 1037     		adds	r7, r7, #16
 1165              		.cfi_def_cfa_offset 8
 1166 0094 BD46     		mov	sp, r7
 1167              		.cfi_def_cfa_register 13
 1168              		@ sp needed
 1169 0096 80BD     		pop	{r7, pc}
 1170              	.L24:
 1171              		.align	2
 1172              	.L23:
 1173 0098 00000000 		.word	hadc2
 1174 009c 00210140 		.word	1073815808
 1175 00a0 0100000F 		.word	251658241
 1176              		.cfi_endproc
 1177              	.LFE249:
 1179              		.section	.text.MX_ADC3_Init,"ax",%progbits
 1180              		.align	1
 1181              		.syntax unified
 1182              		.thumb
 1183              		.thumb_func
 1185              	MX_ADC3_Init:
 1186              	.LFB250:
 606:Core/Src/main.c **** 
 607:Core/Src/main.c **** /**
 608:Core/Src/main.c ****   * @brief ADC3 Initialization Function
 609:Core/Src/main.c ****   * @param None
 610:Core/Src/main.c ****   * @retval None
 611:Core/Src/main.c ****   */
 612:Core/Src/main.c **** static void MX_ADC3_Init(void)
ARM GAS  C:\Users\Halil\AppData\Local\Temp\cce2uIVz.s 			page 33


 613:Core/Src/main.c **** {
 1187              		.loc 1 613 1
 1188              		.cfi_startproc
 1189              		@ args = 0, pretend = 0, frame = 16
 1190              		@ frame_needed = 1, uses_anonymous_args = 0
 1191 0000 80B5     		push	{r7, lr}
 1192              		.cfi_def_cfa_offset 8
 1193              		.cfi_offset 7, -8
 1194              		.cfi_offset 14, -4
 1195 0002 84B0     		sub	sp, sp, #16
 1196              		.cfi_def_cfa_offset 24
 1197 0004 00AF     		add	r7, sp, #0
 1198              		.cfi_def_cfa_register 7
 614:Core/Src/main.c **** 
 615:Core/Src/main.c ****   /* USER CODE BEGIN ADC3_Init 0 */
 616:Core/Src/main.c **** 
 617:Core/Src/main.c ****   /* USER CODE END ADC3_Init 0 */
 618:Core/Src/main.c **** 
 619:Core/Src/main.c ****   ADC_ChannelConfTypeDef sConfig = {0};
 1199              		.loc 1 619 26
 1200 0006 3B46     		mov	r3, r7
 1201 0008 0022     		movs	r2, #0
 1202 000a 1A60     		str	r2, [r3]
 1203 000c 5A60     		str	r2, [r3, #4]
 1204 000e 9A60     		str	r2, [r3, #8]
 1205 0010 DA60     		str	r2, [r3, #12]
 620:Core/Src/main.c **** 
 621:Core/Src/main.c ****   /* USER CODE BEGIN ADC3_Init 1 */
 622:Core/Src/main.c **** 
 623:Core/Src/main.c ****   /* USER CODE END ADC3_Init 1 */
 624:Core/Src/main.c **** 
 625:Core/Src/main.c ****   /** Configure the global features of the ADC (Clock, Resolution, Data Alignment and number of con
 626:Core/Src/main.c ****   */
 627:Core/Src/main.c ****   hadc3.Instance = ADC3;
 1206              		.loc 1 627 18
 1207 0012 214B     		ldr	r3, .L29
 1208 0014 214A     		ldr	r2, .L29+4
 1209 0016 1A60     		str	r2, [r3]
 628:Core/Src/main.c ****   hadc3.Init.ClockPrescaler = ADC_CLOCK_SYNC_PCLK_DIV4;
 1210              		.loc 1 628 29
 1211 0018 1F4B     		ldr	r3, .L29
 1212 001a 4FF48032 		mov	r2, #65536
 1213 001e 5A60     		str	r2, [r3, #4]
 629:Core/Src/main.c ****   hadc3.Init.Resolution = ADC_RESOLUTION_12B;
 1214              		.loc 1 629 25
 1215 0020 1D4B     		ldr	r3, .L29
 1216 0022 0022     		movs	r2, #0
 1217 0024 9A60     		str	r2, [r3, #8]
 630:Core/Src/main.c ****   hadc3.Init.ScanConvMode = DISABLE;
 1218              		.loc 1 630 27
 1219 0026 1C4B     		ldr	r3, .L29
 1220 0028 0022     		movs	r2, #0
 1221 002a 1A61     		str	r2, [r3, #16]
 631:Core/Src/main.c ****   hadc3.Init.ContinuousConvMode = DISABLE;
 1222              		.loc 1 631 33
 1223 002c 1A4B     		ldr	r3, .L29
 1224 002e 0022     		movs	r2, #0
ARM GAS  C:\Users\Halil\AppData\Local\Temp\cce2uIVz.s 			page 34


 1225 0030 1A76     		strb	r2, [r3, #24]
 632:Core/Src/main.c ****   hadc3.Init.DiscontinuousConvMode = DISABLE;
 1226              		.loc 1 632 36
 1227 0032 194B     		ldr	r3, .L29
 1228 0034 0022     		movs	r2, #0
 1229 0036 83F82020 		strb	r2, [r3, #32]
 633:Core/Src/main.c ****   hadc3.Init.ExternalTrigConvEdge = ADC_EXTERNALTRIGCONVEDGE_NONE;
 1230              		.loc 1 633 35
 1231 003a 174B     		ldr	r3, .L29
 1232 003c 0022     		movs	r2, #0
 1233 003e DA62     		str	r2, [r3, #44]
 634:Core/Src/main.c ****   hadc3.Init.ExternalTrigConv = ADC_SOFTWARE_START;
 1234              		.loc 1 634 31
 1235 0040 154B     		ldr	r3, .L29
 1236 0042 174A     		ldr	r2, .L29+8
 1237 0044 9A62     		str	r2, [r3, #40]
 635:Core/Src/main.c ****   hadc3.Init.DataAlign = ADC_DATAALIGN_RIGHT;
 1238              		.loc 1 635 24
 1239 0046 144B     		ldr	r3, .L29
 1240 0048 0022     		movs	r2, #0
 1241 004a DA60     		str	r2, [r3, #12]
 636:Core/Src/main.c ****   hadc3.Init.NbrOfConversion = 1;
 1242              		.loc 1 636 30
 1243 004c 124B     		ldr	r3, .L29
 1244 004e 0122     		movs	r2, #1
 1245 0050 DA61     		str	r2, [r3, #28]
 637:Core/Src/main.c ****   hadc3.Init.DMAContinuousRequests = DISABLE;
 1246              		.loc 1 637 36
 1247 0052 114B     		ldr	r3, .L29
 1248 0054 0022     		movs	r2, #0
 1249 0056 83F83020 		strb	r2, [r3, #48]
 638:Core/Src/main.c ****   hadc3.Init.EOCSelection = ADC_EOC_SINGLE_CONV;
 1250              		.loc 1 638 27
 1251 005a 0F4B     		ldr	r3, .L29
 1252 005c 0122     		movs	r2, #1
 1253 005e 5A61     		str	r2, [r3, #20]
 639:Core/Src/main.c ****   if (HAL_ADC_Init(&hadc3) != HAL_OK)
 1254              		.loc 1 639 7
 1255 0060 0D48     		ldr	r0, .L29
 1256 0062 FFF7FEFF 		bl	HAL_ADC_Init
 1257 0066 0346     		mov	r3, r0
 1258              		.loc 1 639 6
 1259 0068 002B     		cmp	r3, #0
 1260 006a 01D0     		beq	.L26
 640:Core/Src/main.c ****   {
 641:Core/Src/main.c ****     Error_Handler();
 1261              		.loc 1 641 5
 1262 006c FFF7FEFF 		bl	Error_Handler
 1263              	.L26:
 642:Core/Src/main.c ****   }
 643:Core/Src/main.c **** 
 644:Core/Src/main.c ****   /** Configure for the selected ADC regular channel its corresponding rank in the sequencer and it
 645:Core/Src/main.c ****   */
 646:Core/Src/main.c ****   sConfig.Channel = ADC_CHANNEL_11;
 1264              		.loc 1 646 19
 1265 0070 0B23     		movs	r3, #11
 1266 0072 3B60     		str	r3, [r7]
ARM GAS  C:\Users\Halil\AppData\Local\Temp\cce2uIVz.s 			page 35


 647:Core/Src/main.c ****   sConfig.Rank = 1;
 1267              		.loc 1 647 16
 1268 0074 0123     		movs	r3, #1
 1269 0076 7B60     		str	r3, [r7, #4]
 648:Core/Src/main.c ****   sConfig.SamplingTime = ADC_SAMPLETIME_15CYCLES;
 1270              		.loc 1 648 24
 1271 0078 0123     		movs	r3, #1
 1272 007a BB60     		str	r3, [r7, #8]
 649:Core/Src/main.c ****   if (HAL_ADC_ConfigChannel(&hadc3, &sConfig) != HAL_OK)
 1273              		.loc 1 649 7
 1274 007c 3B46     		mov	r3, r7
 1275 007e 1946     		mov	r1, r3
 1276 0080 0548     		ldr	r0, .L29
 1277 0082 FFF7FEFF 		bl	HAL_ADC_ConfigChannel
 1278 0086 0346     		mov	r3, r0
 1279              		.loc 1 649 6
 1280 0088 002B     		cmp	r3, #0
 1281 008a 01D0     		beq	.L28
 650:Core/Src/main.c ****   {
 651:Core/Src/main.c ****     Error_Handler();
 1282              		.loc 1 651 5
 1283 008c FFF7FEFF 		bl	Error_Handler
 1284              	.L28:
 652:Core/Src/main.c ****   }
 653:Core/Src/main.c ****   /* USER CODE BEGIN ADC3_Init 2 */
 654:Core/Src/main.c **** 
 655:Core/Src/main.c ****   /* USER CODE END ADC3_Init 2 */
 656:Core/Src/main.c **** 
 657:Core/Src/main.c **** }
 1285              		.loc 1 657 1
 1286 0090 00BF     		nop
 1287 0092 1037     		adds	r7, r7, #16
 1288              		.cfi_def_cfa_offset 8
 1289 0094 BD46     		mov	sp, r7
 1290              		.cfi_def_cfa_register 13
 1291              		@ sp needed
 1292 0096 80BD     		pop	{r7, pc}
 1293              	.L30:
 1294              		.align	2
 1295              	.L29:
 1296 0098 00000000 		.word	hadc3
 1297 009c 00220140 		.word	1073816064
 1298 00a0 0100000F 		.word	251658241
 1299              		.cfi_endproc
 1300              	.LFE250:
 1302              		.section	.text.MX_I2C1_Init,"ax",%progbits
 1303              		.align	1
 1304              		.syntax unified
 1305              		.thumb
 1306              		.thumb_func
 1308              	MX_I2C1_Init:
 1309              	.LFB251:
 658:Core/Src/main.c **** 
 659:Core/Src/main.c **** /**
 660:Core/Src/main.c ****   * @brief I2C1 Initialization Function
 661:Core/Src/main.c ****   * @param None
 662:Core/Src/main.c ****   * @retval None
ARM GAS  C:\Users\Halil\AppData\Local\Temp\cce2uIVz.s 			page 36


 663:Core/Src/main.c ****   */
 664:Core/Src/main.c **** static void MX_I2C1_Init(void)
 665:Core/Src/main.c **** {
 1310              		.loc 1 665 1
 1311              		.cfi_startproc
 1312              		@ args = 0, pretend = 0, frame = 0
 1313              		@ frame_needed = 1, uses_anonymous_args = 0
 1314 0000 80B5     		push	{r7, lr}
 1315              		.cfi_def_cfa_offset 8
 1316              		.cfi_offset 7, -8
 1317              		.cfi_offset 14, -4
 1318 0002 00AF     		add	r7, sp, #0
 1319              		.cfi_def_cfa_register 7
 666:Core/Src/main.c **** 
 667:Core/Src/main.c ****   /* USER CODE BEGIN I2C1_Init 0 */
 668:Core/Src/main.c **** 
 669:Core/Src/main.c ****   /* USER CODE END I2C1_Init 0 */
 670:Core/Src/main.c **** 
 671:Core/Src/main.c ****   /* USER CODE BEGIN I2C1_Init 1 */
 672:Core/Src/main.c **** 
 673:Core/Src/main.c ****   /* USER CODE END I2C1_Init 1 */
 674:Core/Src/main.c ****   hi2c1.Instance = I2C1;
 1320              		.loc 1 674 18
 1321 0004 124B     		ldr	r3, .L34
 1322 0006 134A     		ldr	r2, .L34+4
 1323 0008 1A60     		str	r2, [r3]
 675:Core/Src/main.c ****   hi2c1.Init.ClockSpeed = 100000;
 1324              		.loc 1 675 25
 1325 000a 114B     		ldr	r3, .L34
 1326 000c 124A     		ldr	r2, .L34+8
 1327 000e 5A60     		str	r2, [r3, #4]
 676:Core/Src/main.c ****   hi2c1.Init.DutyCycle = I2C_DUTYCYCLE_2;
 1328              		.loc 1 676 24
 1329 0010 0F4B     		ldr	r3, .L34
 1330 0012 0022     		movs	r2, #0
 1331 0014 9A60     		str	r2, [r3, #8]
 677:Core/Src/main.c ****   hi2c1.Init.OwnAddress1 = 0;
 1332              		.loc 1 677 26
 1333 0016 0E4B     		ldr	r3, .L34
 1334 0018 0022     		movs	r2, #0
 1335 001a DA60     		str	r2, [r3, #12]
 678:Core/Src/main.c ****   hi2c1.Init.AddressingMode = I2C_ADDRESSINGMODE_7BIT;
 1336              		.loc 1 678 29
 1337 001c 0C4B     		ldr	r3, .L34
 1338 001e 4FF48042 		mov	r2, #16384
 1339 0022 1A61     		str	r2, [r3, #16]
 679:Core/Src/main.c ****   hi2c1.Init.DualAddressMode = I2C_DUALADDRESS_DISABLE;
 1340              		.loc 1 679 30
 1341 0024 0A4B     		ldr	r3, .L34
 1342 0026 0022     		movs	r2, #0
 1343 0028 5A61     		str	r2, [r3, #20]
 680:Core/Src/main.c ****   hi2c1.Init.OwnAddress2 = 0;
 1344              		.loc 1 680 26
 1345 002a 094B     		ldr	r3, .L34
 1346 002c 0022     		movs	r2, #0
 1347 002e 9A61     		str	r2, [r3, #24]
 681:Core/Src/main.c ****   hi2c1.Init.GeneralCallMode = I2C_GENERALCALL_DISABLE;
ARM GAS  C:\Users\Halil\AppData\Local\Temp\cce2uIVz.s 			page 37


 1348              		.loc 1 681 30
 1349 0030 074B     		ldr	r3, .L34
 1350 0032 0022     		movs	r2, #0
 1351 0034 DA61     		str	r2, [r3, #28]
 682:Core/Src/main.c ****   hi2c1.Init.NoStretchMode = I2C_NOSTRETCH_DISABLE;
 1352              		.loc 1 682 28
 1353 0036 064B     		ldr	r3, .L34
 1354 0038 0022     		movs	r2, #0
 1355 003a 1A62     		str	r2, [r3, #32]
 683:Core/Src/main.c ****   if (HAL_I2C_Init(&hi2c1) != HAL_OK)
 1356              		.loc 1 683 7
 1357 003c 0448     		ldr	r0, .L34
 1358 003e FFF7FEFF 		bl	HAL_I2C_Init
 1359 0042 0346     		mov	r3, r0
 1360              		.loc 1 683 6
 1361 0044 002B     		cmp	r3, #0
 1362 0046 01D0     		beq	.L33
 684:Core/Src/main.c ****   {
 685:Core/Src/main.c ****     Error_Handler();
 1363              		.loc 1 685 5
 1364 0048 FFF7FEFF 		bl	Error_Handler
 1365              	.L33:
 686:Core/Src/main.c ****   }
 687:Core/Src/main.c ****   /* USER CODE BEGIN I2C1_Init 2 */
 688:Core/Src/main.c **** 
 689:Core/Src/main.c ****   /* USER CODE END I2C1_Init 2 */
 690:Core/Src/main.c **** 
 691:Core/Src/main.c **** }
 1366              		.loc 1 691 1
 1367 004c 00BF     		nop
 1368 004e 80BD     		pop	{r7, pc}
 1369              	.L35:
 1370              		.align	2
 1371              	.L34:
 1372 0050 00000000 		.word	hi2c1
 1373 0054 00540040 		.word	1073763328
 1374 0058 A0860100 		.word	100000
 1375              		.cfi_endproc
 1376              	.LFE251:
 1378              		.section	.text.MX_I2C3_Init,"ax",%progbits
 1379              		.align	1
 1380              		.syntax unified
 1381              		.thumb
 1382              		.thumb_func
 1384              	MX_I2C3_Init:
 1385              	.LFB252:
 692:Core/Src/main.c **** 
 693:Core/Src/main.c **** /**
 694:Core/Src/main.c ****   * @brief I2C3 Initialization Function
 695:Core/Src/main.c ****   * @param None
 696:Core/Src/main.c ****   * @retval None
 697:Core/Src/main.c ****   */
 698:Core/Src/main.c **** static void MX_I2C3_Init(void)
 699:Core/Src/main.c **** {
 1386              		.loc 1 699 1
 1387              		.cfi_startproc
 1388              		@ args = 0, pretend = 0, frame = 0
ARM GAS  C:\Users\Halil\AppData\Local\Temp\cce2uIVz.s 			page 38


 1389              		@ frame_needed = 1, uses_anonymous_args = 0
 1390 0000 80B5     		push	{r7, lr}
 1391              		.cfi_def_cfa_offset 8
 1392              		.cfi_offset 7, -8
 1393              		.cfi_offset 14, -4
 1394 0002 00AF     		add	r7, sp, #0
 1395              		.cfi_def_cfa_register 7
 700:Core/Src/main.c **** 
 701:Core/Src/main.c ****   /* USER CODE BEGIN I2C3_Init 0 */
 702:Core/Src/main.c **** 
 703:Core/Src/main.c ****   /* USER CODE END I2C3_Init 0 */
 704:Core/Src/main.c **** 
 705:Core/Src/main.c ****   /* USER CODE BEGIN I2C3_Init 1 */
 706:Core/Src/main.c **** 
 707:Core/Src/main.c ****   /* USER CODE END I2C3_Init 1 */
 708:Core/Src/main.c ****   hi2c3.Instance = I2C3;
 1396              		.loc 1 708 18
 1397 0004 124B     		ldr	r3, .L39
 1398 0006 134A     		ldr	r2, .L39+4
 1399 0008 1A60     		str	r2, [r3]
 709:Core/Src/main.c ****   hi2c3.Init.ClockSpeed = 100000;
 1400              		.loc 1 709 25
 1401 000a 114B     		ldr	r3, .L39
 1402 000c 124A     		ldr	r2, .L39+8
 1403 000e 5A60     		str	r2, [r3, #4]
 710:Core/Src/main.c ****   hi2c3.Init.DutyCycle = I2C_DUTYCYCLE_2;
 1404              		.loc 1 710 24
 1405 0010 0F4B     		ldr	r3, .L39
 1406 0012 0022     		movs	r2, #0
 1407 0014 9A60     		str	r2, [r3, #8]
 711:Core/Src/main.c ****   hi2c3.Init.OwnAddress1 = 0;
 1408              		.loc 1 711 26
 1409 0016 0E4B     		ldr	r3, .L39
 1410 0018 0022     		movs	r2, #0
 1411 001a DA60     		str	r2, [r3, #12]
 712:Core/Src/main.c ****   hi2c3.Init.AddressingMode = I2C_ADDRESSINGMODE_7BIT;
 1412              		.loc 1 712 29
 1413 001c 0C4B     		ldr	r3, .L39
 1414 001e 4FF48042 		mov	r2, #16384
 1415 0022 1A61     		str	r2, [r3, #16]
 713:Core/Src/main.c ****   hi2c3.Init.DualAddressMode = I2C_DUALADDRESS_DISABLE;
 1416              		.loc 1 713 30
 1417 0024 0A4B     		ldr	r3, .L39
 1418 0026 0022     		movs	r2, #0
 1419 0028 5A61     		str	r2, [r3, #20]
 714:Core/Src/main.c ****   hi2c3.Init.OwnAddress2 = 0;
 1420              		.loc 1 714 26
 1421 002a 094B     		ldr	r3, .L39
 1422 002c 0022     		movs	r2, #0
 1423 002e 9A61     		str	r2, [r3, #24]
 715:Core/Src/main.c ****   hi2c3.Init.GeneralCallMode = I2C_GENERALCALL_DISABLE;
 1424              		.loc 1 715 30
 1425 0030 074B     		ldr	r3, .L39
 1426 0032 0022     		movs	r2, #0
 1427 0034 DA61     		str	r2, [r3, #28]
 716:Core/Src/main.c ****   hi2c3.Init.NoStretchMode = I2C_NOSTRETCH_DISABLE;
 1428              		.loc 1 716 28
ARM GAS  C:\Users\Halil\AppData\Local\Temp\cce2uIVz.s 			page 39


 1429 0036 064B     		ldr	r3, .L39
 1430 0038 0022     		movs	r2, #0
 1431 003a 1A62     		str	r2, [r3, #32]
 717:Core/Src/main.c ****   if (HAL_I2C_Init(&hi2c3) != HAL_OK)
 1432              		.loc 1 717 7
 1433 003c 0448     		ldr	r0, .L39
 1434 003e FFF7FEFF 		bl	HAL_I2C_Init
 1435 0042 0346     		mov	r3, r0
 1436              		.loc 1 717 6
 1437 0044 002B     		cmp	r3, #0
 1438 0046 01D0     		beq	.L38
 718:Core/Src/main.c ****   {
 719:Core/Src/main.c ****     Error_Handler();
 1439              		.loc 1 719 5
 1440 0048 FFF7FEFF 		bl	Error_Handler
 1441              	.L38:
 720:Core/Src/main.c ****   }
 721:Core/Src/main.c ****   /* USER CODE BEGIN I2C3_Init 2 */
 722:Core/Src/main.c **** 
 723:Core/Src/main.c ****   /* USER CODE END I2C3_Init 2 */
 724:Core/Src/main.c **** 
 725:Core/Src/main.c **** }
 1442              		.loc 1 725 1
 1443 004c 00BF     		nop
 1444 004e 80BD     		pop	{r7, pc}
 1445              	.L40:
 1446              		.align	2
 1447              	.L39:
 1448 0050 00000000 		.word	hi2c3
 1449 0054 005C0040 		.word	1073765376
 1450 0058 A0860100 		.word	100000
 1451              		.cfi_endproc
 1452              	.LFE252:
 1454              		.section	.text.MX_SPI1_Init,"ax",%progbits
 1455              		.align	1
 1456              		.syntax unified
 1457              		.thumb
 1458              		.thumb_func
 1460              	MX_SPI1_Init:
 1461              	.LFB253:
 726:Core/Src/main.c **** 
 727:Core/Src/main.c **** /**
 728:Core/Src/main.c ****   * @brief SPI1 Initialization Function
 729:Core/Src/main.c ****   * @param None
 730:Core/Src/main.c ****   * @retval None
 731:Core/Src/main.c ****   */
 732:Core/Src/main.c **** static void MX_SPI1_Init(void)
 733:Core/Src/main.c **** {
 1462              		.loc 1 733 1
 1463              		.cfi_startproc
 1464              		@ args = 0, pretend = 0, frame = 0
 1465              		@ frame_needed = 1, uses_anonymous_args = 0
 1466 0000 80B5     		push	{r7, lr}
 1467              		.cfi_def_cfa_offset 8
 1468              		.cfi_offset 7, -8
 1469              		.cfi_offset 14, -4
 1470 0002 00AF     		add	r7, sp, #0
ARM GAS  C:\Users\Halil\AppData\Local\Temp\cce2uIVz.s 			page 40


 1471              		.cfi_def_cfa_register 7
 734:Core/Src/main.c **** 
 735:Core/Src/main.c ****   /* USER CODE BEGIN SPI1_Init 0 */
 736:Core/Src/main.c **** 
 737:Core/Src/main.c ****   /* USER CODE END SPI1_Init 0 */
 738:Core/Src/main.c **** 
 739:Core/Src/main.c ****   /* USER CODE BEGIN SPI1_Init 1 */
 740:Core/Src/main.c **** 
 741:Core/Src/main.c ****   /* USER CODE END SPI1_Init 1 */
 742:Core/Src/main.c ****   /* SPI1 parameter configuration*/
 743:Core/Src/main.c ****   hspi1.Instance = SPI1;
 1472              		.loc 1 743 18
 1473 0004 174B     		ldr	r3, .L44
 1474 0006 184A     		ldr	r2, .L44+4
 1475 0008 1A60     		str	r2, [r3]
 744:Core/Src/main.c ****   hspi1.Init.Mode = SPI_MODE_MASTER;
 1476              		.loc 1 744 19
 1477 000a 164B     		ldr	r3, .L44
 1478 000c 4FF48272 		mov	r2, #260
 1479 0010 5A60     		str	r2, [r3, #4]
 745:Core/Src/main.c ****   hspi1.Init.Direction = SPI_DIRECTION_2LINES;
 1480              		.loc 1 745 24
 1481 0012 144B     		ldr	r3, .L44
 1482 0014 0022     		movs	r2, #0
 1483 0016 9A60     		str	r2, [r3, #8]
 746:Core/Src/main.c ****   hspi1.Init.DataSize = SPI_DATASIZE_8BIT;
 1484              		.loc 1 746 23
 1485 0018 124B     		ldr	r3, .L44
 1486 001a 0022     		movs	r2, #0
 1487 001c DA60     		str	r2, [r3, #12]
 747:Core/Src/main.c ****   hspi1.Init.CLKPolarity = SPI_POLARITY_LOW;
 1488              		.loc 1 747 26
 1489 001e 114B     		ldr	r3, .L44
 1490 0020 0022     		movs	r2, #0
 1491 0022 1A61     		str	r2, [r3, #16]
 748:Core/Src/main.c ****   hspi1.Init.CLKPhase = SPI_PHASE_1EDGE;
 1492              		.loc 1 748 23
 1493 0024 0F4B     		ldr	r3, .L44
 1494 0026 0022     		movs	r2, #0
 1495 0028 5A61     		str	r2, [r3, #20]
 749:Core/Src/main.c ****   hspi1.Init.NSS = SPI_NSS_SOFT;
 1496              		.loc 1 749 18
 1497 002a 0E4B     		ldr	r3, .L44
 1498 002c 4FF40072 		mov	r2, #512
 1499 0030 9A61     		str	r2, [r3, #24]
 750:Core/Src/main.c ****   hspi1.Init.BaudRatePrescaler = SPI_BAUDRATEPRESCALER_2;
 1500              		.loc 1 750 32
 1501 0032 0C4B     		ldr	r3, .L44
 1502 0034 0022     		movs	r2, #0
 1503 0036 DA61     		str	r2, [r3, #28]
 751:Core/Src/main.c ****   hspi1.Init.FirstBit = SPI_FIRSTBIT_MSB;
 1504              		.loc 1 751 23
 1505 0038 0A4B     		ldr	r3, .L44
 1506 003a 0022     		movs	r2, #0
 1507 003c 1A62     		str	r2, [r3, #32]
 752:Core/Src/main.c ****   hspi1.Init.TIMode = SPI_TIMODE_DISABLE;
 1508              		.loc 1 752 21
ARM GAS  C:\Users\Halil\AppData\Local\Temp\cce2uIVz.s 			page 41


 1509 003e 094B     		ldr	r3, .L44
 1510 0040 0022     		movs	r2, #0
 1511 0042 5A62     		str	r2, [r3, #36]
 753:Core/Src/main.c ****   hspi1.Init.CRCCalculation = SPI_CRCCALCULATION_DISABLE;
 1512              		.loc 1 753 29
 1513 0044 074B     		ldr	r3, .L44
 1514 0046 0022     		movs	r2, #0
 1515 0048 9A62     		str	r2, [r3, #40]
 754:Core/Src/main.c ****   hspi1.Init.CRCPolynomial = 10;
 1516              		.loc 1 754 28
 1517 004a 064B     		ldr	r3, .L44
 1518 004c 0A22     		movs	r2, #10
 1519 004e DA62     		str	r2, [r3, #44]
 755:Core/Src/main.c ****   if (HAL_SPI_Init(&hspi1) != HAL_OK)
 1520              		.loc 1 755 7
 1521 0050 0448     		ldr	r0, .L44
 1522 0052 FFF7FEFF 		bl	HAL_SPI_Init
 1523 0056 0346     		mov	r3, r0
 1524              		.loc 1 755 6
 1525 0058 002B     		cmp	r3, #0
 1526 005a 01D0     		beq	.L43
 756:Core/Src/main.c ****   {
 757:Core/Src/main.c ****     Error_Handler();
 1527              		.loc 1 757 5
 1528 005c FFF7FEFF 		bl	Error_Handler
 1529              	.L43:
 758:Core/Src/main.c ****   }
 759:Core/Src/main.c ****   /* USER CODE BEGIN SPI1_Init 2 */
 760:Core/Src/main.c **** 
 761:Core/Src/main.c ****   /* USER CODE END SPI1_Init 2 */
 762:Core/Src/main.c **** 
 763:Core/Src/main.c **** }
 1530              		.loc 1 763 1
 1531 0060 00BF     		nop
 1532 0062 80BD     		pop	{r7, pc}
 1533              	.L45:
 1534              		.align	2
 1535              	.L44:
 1536 0064 00000000 		.word	hspi1
 1537 0068 00300140 		.word	1073819648
 1538              		.cfi_endproc
 1539              	.LFE253:
 1541              		.section	.text.MX_SPI3_Init,"ax",%progbits
 1542              		.align	1
 1543              		.syntax unified
 1544              		.thumb
 1545              		.thumb_func
 1547              	MX_SPI3_Init:
 1548              	.LFB254:
 764:Core/Src/main.c **** 
 765:Core/Src/main.c **** /**
 766:Core/Src/main.c ****   * @brief SPI3 Initialization Function
 767:Core/Src/main.c ****   * @param None
 768:Core/Src/main.c ****   * @retval None
 769:Core/Src/main.c ****   */
 770:Core/Src/main.c **** static void MX_SPI3_Init(void)
 771:Core/Src/main.c **** {
ARM GAS  C:\Users\Halil\AppData\Local\Temp\cce2uIVz.s 			page 42


 1549              		.loc 1 771 1
 1550              		.cfi_startproc
 1551              		@ args = 0, pretend = 0, frame = 0
 1552              		@ frame_needed = 1, uses_anonymous_args = 0
 1553 0000 80B5     		push	{r7, lr}
 1554              		.cfi_def_cfa_offset 8
 1555              		.cfi_offset 7, -8
 1556              		.cfi_offset 14, -4
 1557 0002 00AF     		add	r7, sp, #0
 1558              		.cfi_def_cfa_register 7
 772:Core/Src/main.c **** 
 773:Core/Src/main.c ****   /* USER CODE BEGIN SPI3_Init 0 */
 774:Core/Src/main.c **** 
 775:Core/Src/main.c ****   /* USER CODE END SPI3_Init 0 */
 776:Core/Src/main.c **** 
 777:Core/Src/main.c ****   /* USER CODE BEGIN SPI3_Init 1 */
 778:Core/Src/main.c **** 
 779:Core/Src/main.c ****   /* USER CODE END SPI3_Init 1 */
 780:Core/Src/main.c ****   /* SPI3 parameter configuration*/
 781:Core/Src/main.c ****   hspi3.Instance = SPI3;
 1559              		.loc 1 781 18
 1560 0004 174B     		ldr	r3, .L49
 1561 0006 184A     		ldr	r2, .L49+4
 1562 0008 1A60     		str	r2, [r3]
 782:Core/Src/main.c ****   hspi3.Init.Mode = SPI_MODE_MASTER;
 1563              		.loc 1 782 19
 1564 000a 164B     		ldr	r3, .L49
 1565 000c 4FF48272 		mov	r2, #260
 1566 0010 5A60     		str	r2, [r3, #4]
 783:Core/Src/main.c ****   hspi3.Init.Direction = SPI_DIRECTION_2LINES;
 1567              		.loc 1 783 24
 1568 0012 144B     		ldr	r3, .L49
 1569 0014 0022     		movs	r2, #0
 1570 0016 9A60     		str	r2, [r3, #8]
 784:Core/Src/main.c ****   hspi3.Init.DataSize = SPI_DATASIZE_8BIT;
 1571              		.loc 1 784 23
 1572 0018 124B     		ldr	r3, .L49
 1573 001a 0022     		movs	r2, #0
 1574 001c DA60     		str	r2, [r3, #12]
 785:Core/Src/main.c ****   hspi3.Init.CLKPolarity = SPI_POLARITY_LOW;
 1575              		.loc 1 785 26
 1576 001e 114B     		ldr	r3, .L49
 1577 0020 0022     		movs	r2, #0
 1578 0022 1A61     		str	r2, [r3, #16]
 786:Core/Src/main.c ****   hspi3.Init.CLKPhase = SPI_PHASE_1EDGE;
 1579              		.loc 1 786 23
 1580 0024 0F4B     		ldr	r3, .L49
 1581 0026 0022     		movs	r2, #0
 1582 0028 5A61     		str	r2, [r3, #20]
 787:Core/Src/main.c ****   hspi3.Init.NSS = SPI_NSS_SOFT;
 1583              		.loc 1 787 18
 1584 002a 0E4B     		ldr	r3, .L49
 1585 002c 4FF40072 		mov	r2, #512
 1586 0030 9A61     		str	r2, [r3, #24]
 788:Core/Src/main.c ****   hspi3.Init.BaudRatePrescaler = SPI_BAUDRATEPRESCALER_2;
 1587              		.loc 1 788 32
 1588 0032 0C4B     		ldr	r3, .L49
ARM GAS  C:\Users\Halil\AppData\Local\Temp\cce2uIVz.s 			page 43


 1589 0034 0022     		movs	r2, #0
 1590 0036 DA61     		str	r2, [r3, #28]
 789:Core/Src/main.c ****   hspi3.Init.FirstBit = SPI_FIRSTBIT_MSB;
 1591              		.loc 1 789 23
 1592 0038 0A4B     		ldr	r3, .L49
 1593 003a 0022     		movs	r2, #0
 1594 003c 1A62     		str	r2, [r3, #32]
 790:Core/Src/main.c ****   hspi3.Init.TIMode = SPI_TIMODE_DISABLE;
 1595              		.loc 1 790 21
 1596 003e 094B     		ldr	r3, .L49
 1597 0040 0022     		movs	r2, #0
 1598 0042 5A62     		str	r2, [r3, #36]
 791:Core/Src/main.c ****   hspi3.Init.CRCCalculation = SPI_CRCCALCULATION_DISABLE;
 1599              		.loc 1 791 29
 1600 0044 074B     		ldr	r3, .L49
 1601 0046 0022     		movs	r2, #0
 1602 0048 9A62     		str	r2, [r3, #40]
 792:Core/Src/main.c ****   hspi3.Init.CRCPolynomial = 10;
 1603              		.loc 1 792 28
 1604 004a 064B     		ldr	r3, .L49
 1605 004c 0A22     		movs	r2, #10
 1606 004e DA62     		str	r2, [r3, #44]
 793:Core/Src/main.c ****   if (HAL_SPI_Init(&hspi3) != HAL_OK)
 1607              		.loc 1 793 7
 1608 0050 0448     		ldr	r0, .L49
 1609 0052 FFF7FEFF 		bl	HAL_SPI_Init
 1610 0056 0346     		mov	r3, r0
 1611              		.loc 1 793 6
 1612 0058 002B     		cmp	r3, #0
 1613 005a 01D0     		beq	.L48
 794:Core/Src/main.c ****   {
 795:Core/Src/main.c ****     Error_Handler();
 1614              		.loc 1 795 5
 1615 005c FFF7FEFF 		bl	Error_Handler
 1616              	.L48:
 796:Core/Src/main.c ****   }
 797:Core/Src/main.c ****   /* USER CODE BEGIN SPI3_Init 2 */
 798:Core/Src/main.c **** 
 799:Core/Src/main.c ****   /* USER CODE END SPI3_Init 2 */
 800:Core/Src/main.c **** 
 801:Core/Src/main.c **** }
 1617              		.loc 1 801 1
 1618 0060 00BF     		nop
 1619 0062 80BD     		pop	{r7, pc}
 1620              	.L50:
 1621              		.align	2
 1622              	.L49:
 1623 0064 00000000 		.word	hspi3
 1624 0068 003C0040 		.word	1073757184
 1625              		.cfi_endproc
 1626              	.LFE254:
 1628              		.section	.text.MX_TIM2_Init,"ax",%progbits
 1629              		.align	1
 1630              		.syntax unified
 1631              		.thumb
 1632              		.thumb_func
 1634              	MX_TIM2_Init:
ARM GAS  C:\Users\Halil\AppData\Local\Temp\cce2uIVz.s 			page 44


 1635              	.LFB255:
 802:Core/Src/main.c **** 
 803:Core/Src/main.c **** /**
 804:Core/Src/main.c ****   * @brief TIM2 Initialization Function
 805:Core/Src/main.c ****   * @param None
 806:Core/Src/main.c ****   * @retval None
 807:Core/Src/main.c ****   */
 808:Core/Src/main.c **** static void MX_TIM2_Init(void)
 809:Core/Src/main.c **** {
 1636              		.loc 1 809 1
 1637              		.cfi_startproc
 1638              		@ args = 0, pretend = 0, frame = 24
 1639              		@ frame_needed = 1, uses_anonymous_args = 0
 1640 0000 80B5     		push	{r7, lr}
 1641              		.cfi_def_cfa_offset 8
 1642              		.cfi_offset 7, -8
 1643              		.cfi_offset 14, -4
 1644 0002 86B0     		sub	sp, sp, #24
 1645              		.cfi_def_cfa_offset 32
 1646 0004 00AF     		add	r7, sp, #0
 1647              		.cfi_def_cfa_register 7
 810:Core/Src/main.c **** 
 811:Core/Src/main.c ****   /* USER CODE BEGIN TIM2_Init 0 */
 812:Core/Src/main.c **** 
 813:Core/Src/main.c ****   /* USER CODE END TIM2_Init 0 */
 814:Core/Src/main.c **** 
 815:Core/Src/main.c ****   TIM_ClockConfigTypeDef sClockSourceConfig = {0};
 1648              		.loc 1 815 26
 1649 0006 07F10803 		add	r3, r7, #8
 1650 000a 0022     		movs	r2, #0
 1651 000c 1A60     		str	r2, [r3]
 1652 000e 5A60     		str	r2, [r3, #4]
 1653 0010 9A60     		str	r2, [r3, #8]
 1654 0012 DA60     		str	r2, [r3, #12]
 816:Core/Src/main.c ****   TIM_MasterConfigTypeDef sMasterConfig = {0};
 1655              		.loc 1 816 27
 1656 0014 3B46     		mov	r3, r7
 1657 0016 0022     		movs	r2, #0
 1658 0018 1A60     		str	r2, [r3]
 1659 001a 5A60     		str	r2, [r3, #4]
 817:Core/Src/main.c **** 
 818:Core/Src/main.c ****   /* USER CODE BEGIN TIM2_Init 1 */
 819:Core/Src/main.c **** 
 820:Core/Src/main.c ****   /* USER CODE END TIM2_Init 1 */
 821:Core/Src/main.c ****   htim2.Instance = TIM2;
 1660              		.loc 1 821 18
 1661 001c 1E4B     		ldr	r3, .L56
 1662 001e 4FF08042 		mov	r2, #1073741824
 1663 0022 1A60     		str	r2, [r3]
 822:Core/Src/main.c ****   htim2.Init.Prescaler = 8399;
 1664              		.loc 1 822 24
 1665 0024 1C4B     		ldr	r3, .L56
 1666 0026 42F2CF02 		movw	r2, #8399
 1667 002a 5A60     		str	r2, [r3, #4]
 823:Core/Src/main.c ****   htim2.Init.CounterMode = TIM_COUNTERMODE_UP;
 1668              		.loc 1 823 26
 1669 002c 1A4B     		ldr	r3, .L56
ARM GAS  C:\Users\Halil\AppData\Local\Temp\cce2uIVz.s 			page 45


 1670 002e 0022     		movs	r2, #0
 1671 0030 9A60     		str	r2, [r3, #8]
 824:Core/Src/main.c ****   htim2.Init.Period = 999;
 1672              		.loc 1 824 21
 1673 0032 194B     		ldr	r3, .L56
 1674 0034 40F2E732 		movw	r2, #999
 1675 0038 DA60     		str	r2, [r3, #12]
 825:Core/Src/main.c ****   htim2.Init.ClockDivision = TIM_CLOCKDIVISION_DIV1;
 1676              		.loc 1 825 28
 1677 003a 174B     		ldr	r3, .L56
 1678 003c 0022     		movs	r2, #0
 1679 003e 1A61     		str	r2, [r3, #16]
 826:Core/Src/main.c ****   htim2.Init.AutoReloadPreload = TIM_AUTORELOAD_PRELOAD_DISABLE;
 1680              		.loc 1 826 32
 1681 0040 154B     		ldr	r3, .L56
 1682 0042 0022     		movs	r2, #0
 1683 0044 9A61     		str	r2, [r3, #24]
 827:Core/Src/main.c ****   if (HAL_TIM_Base_Init(&htim2) != HAL_OK)
 1684              		.loc 1 827 7
 1685 0046 1448     		ldr	r0, .L56
 1686 0048 FFF7FEFF 		bl	HAL_TIM_Base_Init
 1687 004c 0346     		mov	r3, r0
 1688              		.loc 1 827 6
 1689 004e 002B     		cmp	r3, #0
 1690 0050 01D0     		beq	.L52
 828:Core/Src/main.c ****   {
 829:Core/Src/main.c ****     Error_Handler();
 1691              		.loc 1 829 5
 1692 0052 FFF7FEFF 		bl	Error_Handler
 1693              	.L52:
 830:Core/Src/main.c ****   }
 831:Core/Src/main.c ****   sClockSourceConfig.ClockSource = TIM_CLOCKSOURCE_INTERNAL;
 1694              		.loc 1 831 34
 1695 0056 4FF48053 		mov	r3, #4096
 1696 005a BB60     		str	r3, [r7, #8]
 832:Core/Src/main.c ****   if (HAL_TIM_ConfigClockSource(&htim2, &sClockSourceConfig) != HAL_OK)
 1697              		.loc 1 832 7
 1698 005c 07F10803 		add	r3, r7, #8
 1699 0060 1946     		mov	r1, r3
 1700 0062 0D48     		ldr	r0, .L56
 1701 0064 FFF7FEFF 		bl	HAL_TIM_ConfigClockSource
 1702 0068 0346     		mov	r3, r0
 1703              		.loc 1 832 6
 1704 006a 002B     		cmp	r3, #0
 1705 006c 01D0     		beq	.L53
 833:Core/Src/main.c ****   {
 834:Core/Src/main.c ****     Error_Handler();
 1706              		.loc 1 834 5
 1707 006e FFF7FEFF 		bl	Error_Handler
 1708              	.L53:
 835:Core/Src/main.c ****   }
 836:Core/Src/main.c ****   sMasterConfig.MasterOutputTrigger = TIM_TRGO_RESET;
 1709              		.loc 1 836 37
 1710 0072 0023     		movs	r3, #0
 1711 0074 3B60     		str	r3, [r7]
 837:Core/Src/main.c ****   sMasterConfig.MasterSlaveMode = TIM_MASTERSLAVEMODE_DISABLE;
 1712              		.loc 1 837 33
ARM GAS  C:\Users\Halil\AppData\Local\Temp\cce2uIVz.s 			page 46


 1713 0076 0023     		movs	r3, #0
 1714 0078 7B60     		str	r3, [r7, #4]
 838:Core/Src/main.c ****   if (HAL_TIMEx_MasterConfigSynchronization(&htim2, &sMasterConfig) != HAL_OK)
 1715              		.loc 1 838 7
 1716 007a 3B46     		mov	r3, r7
 1717 007c 1946     		mov	r1, r3
 1718 007e 0648     		ldr	r0, .L56
 1719 0080 FFF7FEFF 		bl	HAL_TIMEx_MasterConfigSynchronization
 1720 0084 0346     		mov	r3, r0
 1721              		.loc 1 838 6
 1722 0086 002B     		cmp	r3, #0
 1723 0088 01D0     		beq	.L55
 839:Core/Src/main.c ****   {
 840:Core/Src/main.c ****     Error_Handler();
 1724              		.loc 1 840 5
 1725 008a FFF7FEFF 		bl	Error_Handler
 1726              	.L55:
 841:Core/Src/main.c ****   }
 842:Core/Src/main.c ****   /* USER CODE BEGIN TIM2_Init 2 */
 843:Core/Src/main.c **** 
 844:Core/Src/main.c ****   /* USER CODE END TIM2_Init 2 */
 845:Core/Src/main.c **** 
 846:Core/Src/main.c **** }
 1727              		.loc 1 846 1
 1728 008e 00BF     		nop
 1729 0090 1837     		adds	r7, r7, #24
 1730              		.cfi_def_cfa_offset 8
 1731 0092 BD46     		mov	sp, r7
 1732              		.cfi_def_cfa_register 13
 1733              		@ sp needed
 1734 0094 80BD     		pop	{r7, pc}
 1735              	.L57:
 1736 0096 00BF     		.align	2
 1737              	.L56:
 1738 0098 00000000 		.word	htim2
 1739              		.cfi_endproc
 1740              	.LFE255:
 1742              		.section	.text.MX_UART4_Init,"ax",%progbits
 1743              		.align	1
 1744              		.syntax unified
 1745              		.thumb
 1746              		.thumb_func
 1748              	MX_UART4_Init:
 1749              	.LFB256:
 847:Core/Src/main.c **** 
 848:Core/Src/main.c **** /**
 849:Core/Src/main.c ****   * @brief UART4 Initialization Function
 850:Core/Src/main.c ****   * @param None
 851:Core/Src/main.c ****   * @retval None
 852:Core/Src/main.c ****   */
 853:Core/Src/main.c **** static void MX_UART4_Init(void)
 854:Core/Src/main.c **** {
 1750              		.loc 1 854 1
 1751              		.cfi_startproc
 1752              		@ args = 0, pretend = 0, frame = 0
 1753              		@ frame_needed = 1, uses_anonymous_args = 0
 1754 0000 80B5     		push	{r7, lr}
ARM GAS  C:\Users\Halil\AppData\Local\Temp\cce2uIVz.s 			page 47


 1755              		.cfi_def_cfa_offset 8
 1756              		.cfi_offset 7, -8
 1757              		.cfi_offset 14, -4
 1758 0002 00AF     		add	r7, sp, #0
 1759              		.cfi_def_cfa_register 7
 855:Core/Src/main.c **** 
 856:Core/Src/main.c ****   /* USER CODE BEGIN UART4_Init 0 */
 857:Core/Src/main.c **** 
 858:Core/Src/main.c ****   /* USER CODE END UART4_Init 0 */
 859:Core/Src/main.c **** 
 860:Core/Src/main.c ****   /* USER CODE BEGIN UART4_Init 1 */
 861:Core/Src/main.c **** 
 862:Core/Src/main.c ****   /* USER CODE END UART4_Init 1 */
 863:Core/Src/main.c ****   huart4.Instance = UART4;
 1760              		.loc 1 863 19
 1761 0004 114B     		ldr	r3, .L61
 1762 0006 124A     		ldr	r2, .L61+4
 1763 0008 1A60     		str	r2, [r3]
 864:Core/Src/main.c ****   huart4.Init.BaudRate = 9600;
 1764              		.loc 1 864 24
 1765 000a 104B     		ldr	r3, .L61
 1766 000c 4FF41652 		mov	r2, #9600
 1767 0010 5A60     		str	r2, [r3, #4]
 865:Core/Src/main.c ****   huart4.Init.WordLength = UART_WORDLENGTH_8B;
 1768              		.loc 1 865 26
 1769 0012 0E4B     		ldr	r3, .L61
 1770 0014 0022     		movs	r2, #0
 1771 0016 9A60     		str	r2, [r3, #8]
 866:Core/Src/main.c ****   huart4.Init.StopBits = UART_STOPBITS_1;
 1772              		.loc 1 866 24
 1773 0018 0C4B     		ldr	r3, .L61
 1774 001a 0022     		movs	r2, #0
 1775 001c DA60     		str	r2, [r3, #12]
 867:Core/Src/main.c ****   huart4.Init.Parity = UART_PARITY_NONE;
 1776              		.loc 1 867 22
 1777 001e 0B4B     		ldr	r3, .L61
 1778 0020 0022     		movs	r2, #0
 1779 0022 1A61     		str	r2, [r3, #16]
 868:Core/Src/main.c ****   huart4.Init.Mode = UART_MODE_TX_RX;
 1780              		.loc 1 868 20
 1781 0024 094B     		ldr	r3, .L61
 1782 0026 0C22     		movs	r2, #12
 1783 0028 5A61     		str	r2, [r3, #20]
 869:Core/Src/main.c ****   huart4.Init.HwFlowCtl = UART_HWCONTROL_NONE;
 1784              		.loc 1 869 25
 1785 002a 084B     		ldr	r3, .L61
 1786 002c 0022     		movs	r2, #0
 1787 002e 9A61     		str	r2, [r3, #24]
 870:Core/Src/main.c ****   huart4.Init.OverSampling = UART_OVERSAMPLING_16;
 1788              		.loc 1 870 28
 1789 0030 064B     		ldr	r3, .L61
 1790 0032 0022     		movs	r2, #0
 1791 0034 DA61     		str	r2, [r3, #28]
 871:Core/Src/main.c ****   if (HAL_UART_Init(&huart4) != HAL_OK)
 1792              		.loc 1 871 7
 1793 0036 0548     		ldr	r0, .L61
 1794 0038 FFF7FEFF 		bl	HAL_UART_Init
ARM GAS  C:\Users\Halil\AppData\Local\Temp\cce2uIVz.s 			page 48


 1795 003c 0346     		mov	r3, r0
 1796              		.loc 1 871 6
 1797 003e 002B     		cmp	r3, #0
 1798 0040 01D0     		beq	.L60
 872:Core/Src/main.c ****   {
 873:Core/Src/main.c ****     Error_Handler();
 1799              		.loc 1 873 5
 1800 0042 FFF7FEFF 		bl	Error_Handler
 1801              	.L60:
 874:Core/Src/main.c ****   }
 875:Core/Src/main.c ****   /* USER CODE BEGIN UART4_Init 2 */
 876:Core/Src/main.c **** 
 877:Core/Src/main.c ****   /* USER CODE END UART4_Init 2 */
 878:Core/Src/main.c **** 
 879:Core/Src/main.c **** }
 1802              		.loc 1 879 1
 1803 0046 00BF     		nop
 1804 0048 80BD     		pop	{r7, pc}
 1805              	.L62:
 1806 004a 00BF     		.align	2
 1807              	.L61:
 1808 004c 00000000 		.word	huart4
 1809 0050 004C0040 		.word	1073761280
 1810              		.cfi_endproc
 1811              	.LFE256:
 1813              		.section	.text.MX_USART2_UART_Init,"ax",%progbits
 1814              		.align	1
 1815              		.syntax unified
 1816              		.thumb
 1817              		.thumb_func
 1819              	MX_USART2_UART_Init:
 1820              	.LFB257:
 880:Core/Src/main.c **** 
 881:Core/Src/main.c **** /**
 882:Core/Src/main.c ****   * @brief USART2 Initialization Function
 883:Core/Src/main.c ****   * @param None
 884:Core/Src/main.c ****   * @retval None
 885:Core/Src/main.c ****   */
 886:Core/Src/main.c **** static void MX_USART2_UART_Init(void)
 887:Core/Src/main.c **** {
 1821              		.loc 1 887 1
 1822              		.cfi_startproc
 1823              		@ args = 0, pretend = 0, frame = 0
 1824              		@ frame_needed = 1, uses_anonymous_args = 0
 1825 0000 80B5     		push	{r7, lr}
 1826              		.cfi_def_cfa_offset 8
 1827              		.cfi_offset 7, -8
 1828              		.cfi_offset 14, -4
 1829 0002 00AF     		add	r7, sp, #0
 1830              		.cfi_def_cfa_register 7
 888:Core/Src/main.c **** 
 889:Core/Src/main.c ****   /* USER CODE BEGIN USART2_Init 0 */
 890:Core/Src/main.c **** 
 891:Core/Src/main.c ****   /* USER CODE END USART2_Init 0 */
 892:Core/Src/main.c **** 
 893:Core/Src/main.c ****   /* USER CODE BEGIN USART2_Init 1 */
 894:Core/Src/main.c **** 
ARM GAS  C:\Users\Halil\AppData\Local\Temp\cce2uIVz.s 			page 49


 895:Core/Src/main.c ****   /* USER CODE END USART2_Init 1 */
 896:Core/Src/main.c ****   huart2.Instance = USART2;
 1831              		.loc 1 896 19
 1832 0004 114B     		ldr	r3, .L66
 1833 0006 124A     		ldr	r2, .L66+4
 1834 0008 1A60     		str	r2, [r3]
 897:Core/Src/main.c ****   huart2.Init.BaudRate = 115200;
 1835              		.loc 1 897 24
 1836 000a 104B     		ldr	r3, .L66
 1837 000c 4FF4E132 		mov	r2, #115200
 1838 0010 5A60     		str	r2, [r3, #4]
 898:Core/Src/main.c ****   huart2.Init.WordLength = UART_WORDLENGTH_8B;
 1839              		.loc 1 898 26
 1840 0012 0E4B     		ldr	r3, .L66
 1841 0014 0022     		movs	r2, #0
 1842 0016 9A60     		str	r2, [r3, #8]
 899:Core/Src/main.c ****   huart2.Init.StopBits = UART_STOPBITS_1;
 1843              		.loc 1 899 24
 1844 0018 0C4B     		ldr	r3, .L66
 1845 001a 0022     		movs	r2, #0
 1846 001c DA60     		str	r2, [r3, #12]
 900:Core/Src/main.c ****   huart2.Init.Parity = UART_PARITY_NONE;
 1847              		.loc 1 900 22
 1848 001e 0B4B     		ldr	r3, .L66
 1849 0020 0022     		movs	r2, #0
 1850 0022 1A61     		str	r2, [r3, #16]
 901:Core/Src/main.c ****   huart2.Init.Mode = UART_MODE_TX_RX;
 1851              		.loc 1 901 20
 1852 0024 094B     		ldr	r3, .L66
 1853 0026 0C22     		movs	r2, #12
 1854 0028 5A61     		str	r2, [r3, #20]
 902:Core/Src/main.c ****   huart2.Init.HwFlowCtl = UART_HWCONTROL_NONE;
 1855              		.loc 1 902 25
 1856 002a 084B     		ldr	r3, .L66
 1857 002c 0022     		movs	r2, #0
 1858 002e 9A61     		str	r2, [r3, #24]
 903:Core/Src/main.c ****   huart2.Init.OverSampling = UART_OVERSAMPLING_16;
 1859              		.loc 1 903 28
 1860 0030 064B     		ldr	r3, .L66
 1861 0032 0022     		movs	r2, #0
 1862 0034 DA61     		str	r2, [r3, #28]
 904:Core/Src/main.c ****   if (HAL_UART_Init(&huart2) != HAL_OK)
 1863              		.loc 1 904 7
 1864 0036 0548     		ldr	r0, .L66
 1865 0038 FFF7FEFF 		bl	HAL_UART_Init
 1866 003c 0346     		mov	r3, r0
 1867              		.loc 1 904 6
 1868 003e 002B     		cmp	r3, #0
 1869 0040 01D0     		beq	.L65
 905:Core/Src/main.c ****   {
 906:Core/Src/main.c ****     Error_Handler();
 1870              		.loc 1 906 5
 1871 0042 FFF7FEFF 		bl	Error_Handler
 1872              	.L65:
 907:Core/Src/main.c ****   }
 908:Core/Src/main.c ****   /* USER CODE BEGIN USART2_Init 2 */
 909:Core/Src/main.c **** 
ARM GAS  C:\Users\Halil\AppData\Local\Temp\cce2uIVz.s 			page 50


 910:Core/Src/main.c ****   /* USER CODE END USART2_Init 2 */
 911:Core/Src/main.c **** 
 912:Core/Src/main.c **** }
 1873              		.loc 1 912 1
 1874 0046 00BF     		nop
 1875 0048 80BD     		pop	{r7, pc}
 1876              	.L67:
 1877 004a 00BF     		.align	2
 1878              	.L66:
 1879 004c 00000000 		.word	huart2
 1880 0050 00440040 		.word	1073759232
 1881              		.cfi_endproc
 1882              	.LFE257:
 1884              		.section	.text.MX_USART6_UART_Init,"ax",%progbits
 1885              		.align	1
 1886              		.syntax unified
 1887              		.thumb
 1888              		.thumb_func
 1890              	MX_USART6_UART_Init:
 1891              	.LFB258:
 913:Core/Src/main.c **** 
 914:Core/Src/main.c **** /**
 915:Core/Src/main.c ****   * @brief USART6 Initialization Function
 916:Core/Src/main.c ****   * @param None
 917:Core/Src/main.c ****   * @retval None
 918:Core/Src/main.c ****   */
 919:Core/Src/main.c **** static void MX_USART6_UART_Init(void)
 920:Core/Src/main.c **** {
 1892              		.loc 1 920 1
 1893              		.cfi_startproc
 1894              		@ args = 0, pretend = 0, frame = 0
 1895              		@ frame_needed = 1, uses_anonymous_args = 0
 1896 0000 80B5     		push	{r7, lr}
 1897              		.cfi_def_cfa_offset 8
 1898              		.cfi_offset 7, -8
 1899              		.cfi_offset 14, -4
 1900 0002 00AF     		add	r7, sp, #0
 1901              		.cfi_def_cfa_register 7
 921:Core/Src/main.c **** 
 922:Core/Src/main.c ****   /* USER CODE BEGIN USART6_Init 0 */
 923:Core/Src/main.c **** 
 924:Core/Src/main.c ****   /* USER CODE END USART6_Init 0 */
 925:Core/Src/main.c **** 
 926:Core/Src/main.c ****   /* USER CODE BEGIN USART6_Init 1 */
 927:Core/Src/main.c **** 
 928:Core/Src/main.c ****   /* USER CODE END USART6_Init 1 */
 929:Core/Src/main.c ****   huart6.Instance = USART6;
 1902              		.loc 1 929 19
 1903 0004 114B     		ldr	r3, .L71
 1904 0006 124A     		ldr	r2, .L71+4
 1905 0008 1A60     		str	r2, [r3]
 930:Core/Src/main.c ****   huart6.Init.BaudRate = 9600;
 1906              		.loc 1 930 24
 1907 000a 104B     		ldr	r3, .L71
 1908 000c 4FF41652 		mov	r2, #9600
 1909 0010 5A60     		str	r2, [r3, #4]
 931:Core/Src/main.c ****   huart6.Init.WordLength = UART_WORDLENGTH_8B;
ARM GAS  C:\Users\Halil\AppData\Local\Temp\cce2uIVz.s 			page 51


 1910              		.loc 1 931 26
 1911 0012 0E4B     		ldr	r3, .L71
 1912 0014 0022     		movs	r2, #0
 1913 0016 9A60     		str	r2, [r3, #8]
 932:Core/Src/main.c ****   huart6.Init.StopBits = UART_STOPBITS_1;
 1914              		.loc 1 932 24
 1915 0018 0C4B     		ldr	r3, .L71
 1916 001a 0022     		movs	r2, #0
 1917 001c DA60     		str	r2, [r3, #12]
 933:Core/Src/main.c ****   huart6.Init.Parity = UART_PARITY_NONE;
 1918              		.loc 1 933 22
 1919 001e 0B4B     		ldr	r3, .L71
 1920 0020 0022     		movs	r2, #0
 1921 0022 1A61     		str	r2, [r3, #16]
 934:Core/Src/main.c ****   huart6.Init.Mode = UART_MODE_TX_RX;
 1922              		.loc 1 934 20
 1923 0024 094B     		ldr	r3, .L71
 1924 0026 0C22     		movs	r2, #12
 1925 0028 5A61     		str	r2, [r3, #20]
 935:Core/Src/main.c ****   huart6.Init.HwFlowCtl = UART_HWCONTROL_NONE;
 1926              		.loc 1 935 25
 1927 002a 084B     		ldr	r3, .L71
 1928 002c 0022     		movs	r2, #0
 1929 002e 9A61     		str	r2, [r3, #24]
 936:Core/Src/main.c ****   huart6.Init.OverSampling = UART_OVERSAMPLING_16;
 1930              		.loc 1 936 28
 1931 0030 064B     		ldr	r3, .L71
 1932 0032 0022     		movs	r2, #0
 1933 0034 DA61     		str	r2, [r3, #28]
 937:Core/Src/main.c ****   if (HAL_UART_Init(&huart6) != HAL_OK)
 1934              		.loc 1 937 7
 1935 0036 0548     		ldr	r0, .L71
 1936 0038 FFF7FEFF 		bl	HAL_UART_Init
 1937 003c 0346     		mov	r3, r0
 1938              		.loc 1 937 6
 1939 003e 002B     		cmp	r3, #0
 1940 0040 01D0     		beq	.L70
 938:Core/Src/main.c ****   {
 939:Core/Src/main.c ****     Error_Handler();
 1941              		.loc 1 939 5
 1942 0042 FFF7FEFF 		bl	Error_Handler
 1943              	.L70:
 940:Core/Src/main.c ****   }
 941:Core/Src/main.c ****   /* USER CODE BEGIN USART6_Init 2 */
 942:Core/Src/main.c **** 
 943:Core/Src/main.c ****   /* USER CODE END USART6_Init 2 */
 944:Core/Src/main.c **** 
 945:Core/Src/main.c **** }
 1944              		.loc 1 945 1
 1945 0046 00BF     		nop
 1946 0048 80BD     		pop	{r7, pc}
 1947              	.L72:
 1948 004a 00BF     		.align	2
 1949              	.L71:
 1950 004c 00000000 		.word	huart6
 1951 0050 00140140 		.word	1073812480
 1952              		.cfi_endproc
ARM GAS  C:\Users\Halil\AppData\Local\Temp\cce2uIVz.s 			page 52


 1953              	.LFE258:
 1955              		.section	.text.MX_DMA_Init,"ax",%progbits
 1956              		.align	1
 1957              		.syntax unified
 1958              		.thumb
 1959              		.thumb_func
 1961              	MX_DMA_Init:
 1962              	.LFB259:
 946:Core/Src/main.c **** 
 947:Core/Src/main.c **** /**
 948:Core/Src/main.c ****   * Enable DMA controller clock
 949:Core/Src/main.c ****   */
 950:Core/Src/main.c **** static void MX_DMA_Init(void)
 951:Core/Src/main.c **** {
 1963              		.loc 1 951 1
 1964              		.cfi_startproc
 1965              		@ args = 0, pretend = 0, frame = 8
 1966              		@ frame_needed = 1, uses_anonymous_args = 0
 1967 0000 80B5     		push	{r7, lr}
 1968              		.cfi_def_cfa_offset 8
 1969              		.cfi_offset 7, -8
 1970              		.cfi_offset 14, -4
 1971 0002 82B0     		sub	sp, sp, #8
 1972              		.cfi_def_cfa_offset 16
 1973 0004 00AF     		add	r7, sp, #0
 1974              		.cfi_def_cfa_register 7
 1975              	.LBB6:
 952:Core/Src/main.c **** 
 953:Core/Src/main.c ****   /* DMA controller clock enable */
 954:Core/Src/main.c ****   __HAL_RCC_DMA2_CLK_ENABLE();
 1976              		.loc 1 954 3
 1977 0006 0023     		movs	r3, #0
 1978 0008 7B60     		str	r3, [r7, #4]
 1979 000a 1F4B     		ldr	r3, .L74
 1980 000c 1B6B     		ldr	r3, [r3, #48]
 1981 000e 1E4A     		ldr	r2, .L74
 1982 0010 43F48003 		orr	r3, r3, #4194304
 1983 0014 1363     		str	r3, [r2, #48]
 1984 0016 1C4B     		ldr	r3, .L74
 1985 0018 1B6B     		ldr	r3, [r3, #48]
 1986 001a 03F48003 		and	r3, r3, #4194304
 1987 001e 7B60     		str	r3, [r7, #4]
 1988 0020 7B68     		ldr	r3, [r7, #4]
 1989              	.LBE6:
 1990              	.LBB7:
 955:Core/Src/main.c ****   __HAL_RCC_DMA1_CLK_ENABLE();
 1991              		.loc 1 955 3
 1992 0022 0023     		movs	r3, #0
 1993 0024 3B60     		str	r3, [r7]
 1994 0026 184B     		ldr	r3, .L74
 1995 0028 1B6B     		ldr	r3, [r3, #48]
 1996 002a 174A     		ldr	r2, .L74
 1997 002c 43F40013 		orr	r3, r3, #2097152
 1998 0030 1363     		str	r3, [r2, #48]
 1999 0032 154B     		ldr	r3, .L74
 2000 0034 1B6B     		ldr	r3, [r3, #48]
 2001 0036 03F40013 		and	r3, r3, #2097152
ARM GAS  C:\Users\Halil\AppData\Local\Temp\cce2uIVz.s 			page 53


 2002 003a 3B60     		str	r3, [r7]
 2003 003c 3B68     		ldr	r3, [r7]
 2004              	.LBE7:
 956:Core/Src/main.c **** 
 957:Core/Src/main.c ****   /* DMA interrupt init */
 958:Core/Src/main.c ****   /* DMA1_Stream0_IRQn interrupt configuration */
 959:Core/Src/main.c ****   HAL_NVIC_SetPriority(DMA1_Stream0_IRQn, 5, 0);
 2005              		.loc 1 959 3
 2006 003e 0022     		movs	r2, #0
 2007 0040 0521     		movs	r1, #5
 2008 0042 0B20     		movs	r0, #11
 2009 0044 FFF7FEFF 		bl	HAL_NVIC_SetPriority
 960:Core/Src/main.c ****   HAL_NVIC_EnableIRQ(DMA1_Stream0_IRQn);
 2010              		.loc 1 960 3
 2011 0048 0B20     		movs	r0, #11
 2012 004a FFF7FEFF 		bl	HAL_NVIC_EnableIRQ
 961:Core/Src/main.c ****   /* DMA1_Stream4_IRQn interrupt configuration */
 962:Core/Src/main.c ****   HAL_NVIC_SetPriority(DMA1_Stream4_IRQn, 5, 0);
 2013              		.loc 1 962 3
 2014 004e 0022     		movs	r2, #0
 2015 0050 0521     		movs	r1, #5
 2016 0052 0F20     		movs	r0, #15
 2017 0054 FFF7FEFF 		bl	HAL_NVIC_SetPriority
 963:Core/Src/main.c ****   HAL_NVIC_EnableIRQ(DMA1_Stream4_IRQn);
 2018              		.loc 1 963 3
 2019 0058 0F20     		movs	r0, #15
 2020 005a FFF7FEFF 		bl	HAL_NVIC_EnableIRQ
 964:Core/Src/main.c ****   /* DMA1_Stream6_IRQn interrupt configuration */
 965:Core/Src/main.c ****   HAL_NVIC_SetPriority(DMA1_Stream6_IRQn, 5, 0);
 2021              		.loc 1 965 3
 2022 005e 0022     		movs	r2, #0
 2023 0060 0521     		movs	r1, #5
 2024 0062 1120     		movs	r0, #17
 2025 0064 FFF7FEFF 		bl	HAL_NVIC_SetPriority
 966:Core/Src/main.c ****   HAL_NVIC_EnableIRQ(DMA1_Stream6_IRQn);
 2026              		.loc 1 966 3
 2027 0068 1120     		movs	r0, #17
 2028 006a FFF7FEFF 		bl	HAL_NVIC_EnableIRQ
 967:Core/Src/main.c ****   /* DMA2_Stream2_IRQn interrupt configuration */
 968:Core/Src/main.c ****   HAL_NVIC_SetPriority(DMA2_Stream2_IRQn, 5, 0);
 2029              		.loc 1 968 3
 2030 006e 0022     		movs	r2, #0
 2031 0070 0521     		movs	r1, #5
 2032 0072 3A20     		movs	r0, #58
 2033 0074 FFF7FEFF 		bl	HAL_NVIC_SetPriority
 969:Core/Src/main.c ****   HAL_NVIC_EnableIRQ(DMA2_Stream2_IRQn);
 2034              		.loc 1 969 3
 2035 0078 3A20     		movs	r0, #58
 2036 007a FFF7FEFF 		bl	HAL_NVIC_EnableIRQ
 970:Core/Src/main.c **** 
 971:Core/Src/main.c **** }
 2037              		.loc 1 971 1
 2038 007e 00BF     		nop
 2039 0080 0837     		adds	r7, r7, #8
 2040              		.cfi_def_cfa_offset 8
 2041 0082 BD46     		mov	sp, r7
 2042              		.cfi_def_cfa_register 13
ARM GAS  C:\Users\Halil\AppData\Local\Temp\cce2uIVz.s 			page 54


 2043              		@ sp needed
 2044 0084 80BD     		pop	{r7, pc}
 2045              	.L75:
 2046 0086 00BF     		.align	2
 2047              	.L74:
 2048 0088 00380240 		.word	1073887232
 2049              		.cfi_endproc
 2050              	.LFE259:
 2052              		.section	.text.MX_GPIO_Init,"ax",%progbits
 2053              		.align	1
 2054              		.syntax unified
 2055              		.thumb
 2056              		.thumb_func
 2058              	MX_GPIO_Init:
 2059              	.LFB260:
 972:Core/Src/main.c **** 
 973:Core/Src/main.c **** /**
 974:Core/Src/main.c ****   * @brief GPIO Initialization Function
 975:Core/Src/main.c ****   * @param None
 976:Core/Src/main.c ****   * @retval None
 977:Core/Src/main.c ****   */
 978:Core/Src/main.c **** static void MX_GPIO_Init(void)
 979:Core/Src/main.c **** {
 2060              		.loc 1 979 1
 2061              		.cfi_startproc
 2062              		@ args = 0, pretend = 0, frame = 40
 2063              		@ frame_needed = 1, uses_anonymous_args = 0
 2064 0000 80B5     		push	{r7, lr}
 2065              		.cfi_def_cfa_offset 8
 2066              		.cfi_offset 7, -8
 2067              		.cfi_offset 14, -4
 2068 0002 8AB0     		sub	sp, sp, #40
 2069              		.cfi_def_cfa_offset 48
 2070 0004 00AF     		add	r7, sp, #0
 2071              		.cfi_def_cfa_register 7
 980:Core/Src/main.c ****   GPIO_InitTypeDef GPIO_InitStruct = {0};
 2072              		.loc 1 980 20
 2073 0006 07F11403 		add	r3, r7, #20
 2074 000a 0022     		movs	r2, #0
 2075 000c 1A60     		str	r2, [r3]
 2076 000e 5A60     		str	r2, [r3, #4]
 2077 0010 9A60     		str	r2, [r3, #8]
 2078 0012 DA60     		str	r2, [r3, #12]
 2079 0014 1A61     		str	r2, [r3, #16]
 2080              	.LBB8:
 981:Core/Src/main.c ****   /* USER CODE BEGIN MX_GPIO_Init_1 */
 982:Core/Src/main.c ****   /* USER CODE END MX_GPIO_Init_1 */
 983:Core/Src/main.c **** 
 984:Core/Src/main.c ****   /* GPIO Ports Clock Enable */
 985:Core/Src/main.c ****   __HAL_RCC_GPIOC_CLK_ENABLE();
 2081              		.loc 1 985 3
 2082 0016 0023     		movs	r3, #0
 2083 0018 3B61     		str	r3, [r7, #16]
 2084 001a 514B     		ldr	r3, .L77
 2085 001c 1B6B     		ldr	r3, [r3, #48]
 2086 001e 504A     		ldr	r2, .L77
 2087 0020 43F00403 		orr	r3, r3, #4
ARM GAS  C:\Users\Halil\AppData\Local\Temp\cce2uIVz.s 			page 55


 2088 0024 1363     		str	r3, [r2, #48]
 2089 0026 4E4B     		ldr	r3, .L77
 2090 0028 1B6B     		ldr	r3, [r3, #48]
 2091 002a 03F00403 		and	r3, r3, #4
 2092 002e 3B61     		str	r3, [r7, #16]
 2093 0030 3B69     		ldr	r3, [r7, #16]
 2094              	.LBE8:
 2095              	.LBB9:
 986:Core/Src/main.c ****   __HAL_RCC_GPIOH_CLK_ENABLE();
 2096              		.loc 1 986 3
 2097 0032 0023     		movs	r3, #0
 2098 0034 FB60     		str	r3, [r7, #12]
 2099 0036 4A4B     		ldr	r3, .L77
 2100 0038 1B6B     		ldr	r3, [r3, #48]
 2101 003a 494A     		ldr	r2, .L77
 2102 003c 43F08003 		orr	r3, r3, #128
 2103 0040 1363     		str	r3, [r2, #48]
 2104 0042 474B     		ldr	r3, .L77
 2105 0044 1B6B     		ldr	r3, [r3, #48]
 2106 0046 03F08003 		and	r3, r3, #128
 2107 004a FB60     		str	r3, [r7, #12]
 2108 004c FB68     		ldr	r3, [r7, #12]
 2109              	.LBE9:
 2110              	.LBB10:
 987:Core/Src/main.c ****   __HAL_RCC_GPIOA_CLK_ENABLE();
 2111              		.loc 1 987 3
 2112 004e 0023     		movs	r3, #0
 2113 0050 BB60     		str	r3, [r7, #8]
 2114 0052 434B     		ldr	r3, .L77
 2115 0054 1B6B     		ldr	r3, [r3, #48]
 2116 0056 424A     		ldr	r2, .L77
 2117 0058 43F00103 		orr	r3, r3, #1
 2118 005c 1363     		str	r3, [r2, #48]
 2119 005e 404B     		ldr	r3, .L77
 2120 0060 1B6B     		ldr	r3, [r3, #48]
 2121 0062 03F00103 		and	r3, r3, #1
 2122 0066 BB60     		str	r3, [r7, #8]
 2123 0068 BB68     		ldr	r3, [r7, #8]
 2124              	.LBE10:
 2125              	.LBB11:
 988:Core/Src/main.c ****   __HAL_RCC_GPIOB_CLK_ENABLE();
 2126              		.loc 1 988 3
 2127 006a 0023     		movs	r3, #0
 2128 006c 7B60     		str	r3, [r7, #4]
 2129 006e 3C4B     		ldr	r3, .L77
 2130 0070 1B6B     		ldr	r3, [r3, #48]
 2131 0072 3B4A     		ldr	r2, .L77
 2132 0074 43F00203 		orr	r3, r3, #2
 2133 0078 1363     		str	r3, [r2, #48]
 2134 007a 394B     		ldr	r3, .L77
 2135 007c 1B6B     		ldr	r3, [r3, #48]
 2136 007e 03F00203 		and	r3, r3, #2
 2137 0082 7B60     		str	r3, [r7, #4]
 2138 0084 7B68     		ldr	r3, [r7, #4]
 2139              	.LBE11:
 989:Core/Src/main.c **** 
 990:Core/Src/main.c ****   /*Configure GPIO pin Output Level */
ARM GAS  C:\Users\Halil\AppData\Local\Temp\cce2uIVz.s 			page 56


 991:Core/Src/main.c ****   HAL_GPIO_WritePin(GPIOC, RF_M0_Pin|RF_M1_Pin, GPIO_PIN_RESET);
 2140              		.loc 1 991 3
 2141 0086 0022     		movs	r2, #0
 2142 0088 0C21     		movs	r1, #12
 2143 008a 3648     		ldr	r0, .L77+4
 2144 008c FFF7FEFF 		bl	HAL_GPIO_WritePin
 992:Core/Src/main.c **** 
 993:Core/Src/main.c ****   /*Configure GPIO pin Output Level */
 994:Core/Src/main.c ****   HAL_GPIO_WritePin(GPIOA, SD_CS_Pin|W25_FLASH_CS_Pin, GPIO_PIN_RESET);
 2145              		.loc 1 994 3
 2146 0090 0022     		movs	r2, #0
 2147 0092 48F21001 		movw	r1, #32784
 2148 0096 3448     		ldr	r0, .L77+8
 2149 0098 FFF7FEFF 		bl	HAL_GPIO_WritePin
 995:Core/Src/main.c **** 
 996:Core/Src/main.c ****   /*Configure GPIO pin Output Level */
 997:Core/Src/main.c ****   HAL_GPIO_WritePin(GPIOB, GPIO_PIN_12|BUZZER_Pin, GPIO_PIN_RESET);
 2150              		.loc 1 997 3
 2151 009c 0022     		movs	r2, #0
 2152 009e 4FF4A041 		mov	r1, #20480
 2153 00a2 3248     		ldr	r0, .L77+12
 2154 00a4 FFF7FEFF 		bl	HAL_GPIO_WritePin
 998:Core/Src/main.c **** 
 999:Core/Src/main.c ****   /*Configure GPIO pins : RF_M0_Pin RF_M1_Pin */
1000:Core/Src/main.c ****   GPIO_InitStruct.Pin = RF_M0_Pin|RF_M1_Pin;
 2155              		.loc 1 1000 23
 2156 00a8 0C23     		movs	r3, #12
 2157 00aa 7B61     		str	r3, [r7, #20]
1001:Core/Src/main.c ****   GPIO_InitStruct.Mode = GPIO_MODE_OUTPUT_PP;
 2158              		.loc 1 1001 24
 2159 00ac 0123     		movs	r3, #1
 2160 00ae BB61     		str	r3, [r7, #24]
1002:Core/Src/main.c ****   GPIO_InitStruct.Pull = GPIO_NOPULL;
 2161              		.loc 1 1002 24
 2162 00b0 0023     		movs	r3, #0
 2163 00b2 FB61     		str	r3, [r7, #28]
1003:Core/Src/main.c ****   GPIO_InitStruct.Speed = GPIO_SPEED_FREQ_LOW;
 2164              		.loc 1 1003 25
 2165 00b4 0023     		movs	r3, #0
 2166 00b6 3B62     		str	r3, [r7, #32]
1004:Core/Src/main.c ****   HAL_GPIO_Init(GPIOC, &GPIO_InitStruct);
 2167              		.loc 1 1004 3
 2168 00b8 07F11403 		add	r3, r7, #20
 2169 00bc 1946     		mov	r1, r3
 2170 00be 2948     		ldr	r0, .L77+4
 2171 00c0 FFF7FEFF 		bl	HAL_GPIO_Init
1005:Core/Src/main.c **** 
1006:Core/Src/main.c ****   /*Configure GPIO pins : SD_CS_Pin W25_FLASH_CS_Pin */
1007:Core/Src/main.c ****   GPIO_InitStruct.Pin = SD_CS_Pin|W25_FLASH_CS_Pin;
 2172              		.loc 1 1007 23
 2173 00c4 48F21003 		movw	r3, #32784
 2174 00c8 7B61     		str	r3, [r7, #20]
1008:Core/Src/main.c ****   GPIO_InitStruct.Mode = GPIO_MODE_OUTPUT_PP;
 2175              		.loc 1 1008 24
 2176 00ca 0123     		movs	r3, #1
 2177 00cc BB61     		str	r3, [r7, #24]
1009:Core/Src/main.c ****   GPIO_InitStruct.Pull = GPIO_NOPULL;
ARM GAS  C:\Users\Halil\AppData\Local\Temp\cce2uIVz.s 			page 57


 2178              		.loc 1 1009 24
 2179 00ce 0023     		movs	r3, #0
 2180 00d0 FB61     		str	r3, [r7, #28]
1010:Core/Src/main.c ****   GPIO_InitStruct.Speed = GPIO_SPEED_FREQ_LOW;
 2181              		.loc 1 1010 25
 2182 00d2 0023     		movs	r3, #0
 2183 00d4 3B62     		str	r3, [r7, #32]
1011:Core/Src/main.c ****   HAL_GPIO_Init(GPIOA, &GPIO_InitStruct);
 2184              		.loc 1 1011 3
 2185 00d6 07F11403 		add	r3, r7, #20
 2186 00da 1946     		mov	r1, r3
 2187 00dc 2248     		ldr	r0, .L77+8
 2188 00de FFF7FEFF 		bl	HAL_GPIO_Init
1012:Core/Src/main.c **** 
1013:Core/Src/main.c ****   /*Configure GPIO pin : PB12 */
1014:Core/Src/main.c ****   GPIO_InitStruct.Pin = GPIO_PIN_12;
 2189              		.loc 1 1014 23
 2190 00e2 4FF48053 		mov	r3, #4096
 2191 00e6 7B61     		str	r3, [r7, #20]
1015:Core/Src/main.c ****   GPIO_InitStruct.Mode = GPIO_MODE_OUTPUT_PP;
 2192              		.loc 1 1015 24
 2193 00e8 0123     		movs	r3, #1
 2194 00ea BB61     		str	r3, [r7, #24]
1016:Core/Src/main.c ****   GPIO_InitStruct.Pull = GPIO_NOPULL;
 2195              		.loc 1 1016 24
 2196 00ec 0023     		movs	r3, #0
 2197 00ee FB61     		str	r3, [r7, #28]
1017:Core/Src/main.c ****   GPIO_InitStruct.Speed = GPIO_SPEED_FREQ_VERY_HIGH;
 2198              		.loc 1 1017 25
 2199 00f0 0323     		movs	r3, #3
 2200 00f2 3B62     		str	r3, [r7, #32]
1018:Core/Src/main.c ****   HAL_GPIO_Init(GPIOB, &GPIO_InitStruct);
 2201              		.loc 1 1018 3
 2202 00f4 07F11403 		add	r3, r7, #20
 2203 00f8 1946     		mov	r1, r3
 2204 00fa 1C48     		ldr	r0, .L77+12
 2205 00fc FFF7FEFF 		bl	HAL_GPIO_Init
1019:Core/Src/main.c **** 
1020:Core/Src/main.c ****   /*Configure GPIO pin : BUZZER_Pin */
1021:Core/Src/main.c ****   GPIO_InitStruct.Pin = BUZZER_Pin;
 2206              		.loc 1 1021 23
 2207 0100 4FF48043 		mov	r3, #16384
 2208 0104 7B61     		str	r3, [r7, #20]
1022:Core/Src/main.c ****   GPIO_InitStruct.Mode = GPIO_MODE_OUTPUT_PP;
 2209              		.loc 1 1022 24
 2210 0106 0123     		movs	r3, #1
 2211 0108 BB61     		str	r3, [r7, #24]
1023:Core/Src/main.c ****   GPIO_InitStruct.Pull = GPIO_NOPULL;
 2212              		.loc 1 1023 24
 2213 010a 0023     		movs	r3, #0
 2214 010c FB61     		str	r3, [r7, #28]
1024:Core/Src/main.c ****   GPIO_InitStruct.Speed = GPIO_SPEED_FREQ_LOW;
 2215              		.loc 1 1024 25
 2216 010e 0023     		movs	r3, #0
 2217 0110 3B62     		str	r3, [r7, #32]
1025:Core/Src/main.c ****   HAL_GPIO_Init(BUZZER_GPIO_Port, &GPIO_InitStruct);
 2218              		.loc 1 1025 3
ARM GAS  C:\Users\Halil\AppData\Local\Temp\cce2uIVz.s 			page 58


 2219 0112 07F11403 		add	r3, r7, #20
 2220 0116 1946     		mov	r1, r3
 2221 0118 1448     		ldr	r0, .L77+12
 2222 011a FFF7FEFF 		bl	HAL_GPIO_Init
1026:Core/Src/main.c **** 
1027:Core/Src/main.c ****   /*Configure GPIO pins : PB3 PB4 */
1028:Core/Src/main.c ****   GPIO_InitStruct.Pin = GPIO_PIN_3|GPIO_PIN_4;
 2223              		.loc 1 1028 23
 2224 011e 1823     		movs	r3, #24
 2225 0120 7B61     		str	r3, [r7, #20]
1029:Core/Src/main.c ****   GPIO_InitStruct.Mode = GPIO_MODE_IT_RISING;
 2226              		.loc 1 1029 24
 2227 0122 4FF48813 		mov	r3, #1114112
 2228 0126 BB61     		str	r3, [r7, #24]
1030:Core/Src/main.c ****   GPIO_InitStruct.Pull = GPIO_NOPULL;
 2229              		.loc 1 1030 24
 2230 0128 0023     		movs	r3, #0
 2231 012a FB61     		str	r3, [r7, #28]
1031:Core/Src/main.c ****   HAL_GPIO_Init(GPIOB, &GPIO_InitStruct);
 2232              		.loc 1 1031 3
 2233 012c 07F11403 		add	r3, r7, #20
 2234 0130 1946     		mov	r1, r3
 2235 0132 0E48     		ldr	r0, .L77+12
 2236 0134 FFF7FEFF 		bl	HAL_GPIO_Init
1032:Core/Src/main.c **** 
1033:Core/Src/main.c ****   /* EXTI interrupt init*/
1034:Core/Src/main.c ****   HAL_NVIC_SetPriority(EXTI3_IRQn, 5, 0);
 2237              		.loc 1 1034 3
 2238 0138 0022     		movs	r2, #0
 2239 013a 0521     		movs	r1, #5
 2240 013c 0920     		movs	r0, #9
 2241 013e FFF7FEFF 		bl	HAL_NVIC_SetPriority
1035:Core/Src/main.c ****   HAL_NVIC_EnableIRQ(EXTI3_IRQn);
 2242              		.loc 1 1035 3
 2243 0142 0920     		movs	r0, #9
 2244 0144 FFF7FEFF 		bl	HAL_NVIC_EnableIRQ
1036:Core/Src/main.c **** 
1037:Core/Src/main.c ****   HAL_NVIC_SetPriority(EXTI4_IRQn, 5, 0);
 2245              		.loc 1 1037 3
 2246 0148 0022     		movs	r2, #0
 2247 014a 0521     		movs	r1, #5
 2248 014c 0A20     		movs	r0, #10
 2249 014e FFF7FEFF 		bl	HAL_NVIC_SetPriority
1038:Core/Src/main.c ****   HAL_NVIC_EnableIRQ(EXTI4_IRQn);
 2250              		.loc 1 1038 3
 2251 0152 0A20     		movs	r0, #10
 2252 0154 FFF7FEFF 		bl	HAL_NVIC_EnableIRQ
1039:Core/Src/main.c **** 
1040:Core/Src/main.c ****   /* USER CODE BEGIN MX_GPIO_Init_2 */
1041:Core/Src/main.c ****   /* USER CODE END MX_GPIO_Init_2 */
1042:Core/Src/main.c **** }
 2253              		.loc 1 1042 1
 2254 0158 00BF     		nop
 2255 015a 2837     		adds	r7, r7, #40
 2256              		.cfi_def_cfa_offset 8
 2257 015c BD46     		mov	sp, r7
 2258              		.cfi_def_cfa_register 13
ARM GAS  C:\Users\Halil\AppData\Local\Temp\cce2uIVz.s 			page 59


 2259              		@ sp needed
 2260 015e 80BD     		pop	{r7, pc}
 2261              	.L78:
 2262              		.align	2
 2263              	.L77:
 2264 0160 00380240 		.word	1073887232
 2265 0164 00080240 		.word	1073874944
 2266 0168 00000240 		.word	1073872896
 2267 016c 00040240 		.word	1073873920
 2268              		.cfi_endproc
 2269              	.LFE260:
 2271              		.section	.text.bmi_imu_init,"ax",%progbits
 2272              		.align	1
 2273              		.global	bmi_imu_init
 2274              		.syntax unified
 2275              		.thumb
 2276              		.thumb_func
 2278              	bmi_imu_init:
 2279              	.LFB261:
1043:Core/Src/main.c **** 
1044:Core/Src/main.c **** /* USER CODE BEGIN 4 */
1045:Core/Src/main.c **** 
1046:Core/Src/main.c **** /**
1047:Core/Src/main.c ****  * @brief Initialize BMI088 IMU sensor
1048:Core/Src/main.c ****  * @return Initialization status
1049:Core/Src/main.c ****  * @note Configures both accelerometer and gyroscope with optimal settings
1050:Core/Src/main.c ****  */
1051:Core/Src/main.c **** uint8_t bmi_imu_init(void)
1052:Core/Src/main.c **** {
 2280              		.loc 1 1052 1
 2281              		.cfi_startproc
 2282              		@ args = 0, pretend = 0, frame = 0
 2283              		@ frame_needed = 1, uses_anonymous_args = 0
 2284 0000 80B5     		push	{r7, lr}
 2285              		.cfi_def_cfa_offset 8
 2286              		.cfi_offset 7, -8
 2287              		.cfi_offset 14, -4
 2288 0002 00AF     		add	r7, sp, #0
 2289              		.cfi_def_cfa_register 7
1053:Core/Src/main.c ****   // Accelerometer configuration
1054:Core/Src/main.c ****   BMI_sensor.device_config.acc_bandwith = ACC_BWP_OSR4;
 2290              		.loc 1 1054 41
 2291 0004 134B     		ldr	r3, .L81
 2292 0006 0822     		movs	r2, #8
 2293 0008 9A72     		strb	r2, [r3, #10]
1055:Core/Src/main.c ****   BMI_sensor.device_config.acc_outputDateRate = ACC_ODR_400;
 2294              		.loc 1 1055 47
 2295 000a 124B     		ldr	r3, .L81
 2296 000c 0A22     		movs	r2, #10
 2297 000e DA72     		strb	r2, [r3, #11]
1056:Core/Src/main.c ****   BMI_sensor.device_config.acc_powerMode = ACC_PWR_SAVE_ACTIVE;
 2298              		.loc 1 1056 42
 2299 0010 104B     		ldr	r3, .L81
 2300 0012 0022     		movs	r2, #0
 2301 0014 1A72     		strb	r2, [r3, #8]
1057:Core/Src/main.c ****   BMI_sensor.device_config.acc_range = ACC_RANGE_24G;
 2302              		.loc 1 1057 38
ARM GAS  C:\Users\Halil\AppData\Local\Temp\cce2uIVz.s 			page 60


 2303 0016 0F4B     		ldr	r3, .L81
 2304 0018 0322     		movs	r2, #3
 2305 001a 5A72     		strb	r2, [r3, #9]
1058:Core/Src/main.c **** 
1059:Core/Src/main.c ****   // Gyroscope configuration
1060:Core/Src/main.c ****   BMI_sensor.device_config.gyro_bandWidth = GYRO_BW_23;
 2306              		.loc 1 1060 43
 2307 001c 0D4B     		ldr	r3, .L81
 2308 001e 0422     		movs	r2, #4
 2309 0020 5A73     		strb	r2, [r3, #13]
1061:Core/Src/main.c ****   BMI_sensor.device_config.gyro_range = GYRO_RANGE_2000;
 2310              		.loc 1 1061 39
 2311 0022 0C4B     		ldr	r3, .L81
 2312 0024 0022     		movs	r2, #0
 2313 0026 9A73     		strb	r2, [r3, #14]
1062:Core/Src/main.c ****   BMI_sensor.device_config.gyro_powerMode = GYRO_LPM_NORMAL;
 2314              		.loc 1 1062 43
 2315 0028 0A4B     		ldr	r3, .L81
 2316 002a 0022     		movs	r2, #0
 2317 002c 1A73     		strb	r2, [r3, #12]
1063:Core/Src/main.c **** 
1064:Core/Src/main.c ****   // Interrupt and I2C configuration
1065:Core/Src/main.c ****   BMI_sensor.device_config.acc_IRQ = EXTI3_IRQn;
 2318              		.loc 1 1065 36
 2319 002e 094B     		ldr	r3, .L81
 2320 0030 0922     		movs	r2, #9
 2321 0032 1A75     		strb	r2, [r3, #20]
1066:Core/Src/main.c ****   BMI_sensor.device_config.gyro_IRQ = EXTI4_IRQn;
 2322              		.loc 1 1066 37
 2323 0034 074B     		ldr	r3, .L81
 2324 0036 0A22     		movs	r2, #10
 2325 0038 5A75     		strb	r2, [r3, #21]
1067:Core/Src/main.c ****   BMI_sensor.device_config.BMI_I2c = &IMU_I2C_HNDLR;
 2326              		.loc 1 1067 36
 2327 003a 064B     		ldr	r3, .L81
 2328 003c 064A     		ldr	r2, .L81+4
 2329 003e 1A61     		str	r2, [r3, #16]
1068:Core/Src/main.c ****   BMI_sensor.device_config.offsets = NULL; // Offset data stored in backup SRAM
 2330              		.loc 1 1068 36
 2331 0040 044B     		ldr	r3, .L81
 2332 0042 0022     		movs	r2, #0
 2333 0044 9A61     		str	r2, [r3, #24]
1069:Core/Src/main.c **** 
1070:Core/Src/main.c ****   return bmi088_init(&BMI_sensor);
 2334              		.loc 1 1070 10
 2335 0046 0348     		ldr	r0, .L81
 2336 0048 FFF7FEFF 		bl	bmi088_init
 2337 004c 0346     		mov	r3, r0
1071:Core/Src/main.c **** }
 2338              		.loc 1 1071 1
 2339 004e 1846     		mov	r0, r3
 2340 0050 80BD     		pop	{r7, pc}
 2341              	.L82:
 2342 0052 00BF     		.align	2
 2343              	.L81:
 2344 0054 00000000 		.word	BMI_sensor
 2345 0058 00000000 		.word	hi2c1
ARM GAS  C:\Users\Halil\AppData\Local\Temp\cce2uIVz.s 			page 61


 2346              		.cfi_endproc
 2347              	.LFE261:
 2349              		.section	.text.HAL_GPIO_EXTI_Callback,"ax",%progbits
 2350              		.align	1
 2351              		.global	HAL_GPIO_EXTI_Callback
 2352              		.syntax unified
 2353              		.thumb
 2354              		.thumb_func
 2356              	HAL_GPIO_EXTI_Callback:
 2357              	.LFB262:
1072:Core/Src/main.c **** 
1073:Core/Src/main.c **** /**
1074:Core/Src/main.c ****  * @brief GPIO external interrupt callback
1075:Core/Src/main.c ****  * @param GPIO_Pin The pin that triggered the interrupt
1076:Core/Src/main.c ****  * @note Handles BMI088 accelerometer and gyroscope data ready interrupts
1077:Core/Src/main.c ****  * @note Releases semaphore to wake up BMI task (interrupt-driven approach)
1078:Core/Src/main.c ****  */
1079:Core/Src/main.c **** void HAL_GPIO_EXTI_Callback(uint16_t GPIO_Pin)
1080:Core/Src/main.c **** {
 2358              		.loc 1 1080 1
 2359              		.cfi_startproc
 2360              		@ args = 0, pretend = 0, frame = 16
 2361              		@ frame_needed = 1, uses_anonymous_args = 0
 2362 0000 80B5     		push	{r7, lr}
 2363              		.cfi_def_cfa_offset 8
 2364              		.cfi_offset 7, -8
 2365              		.cfi_offset 14, -4
 2366 0002 84B0     		sub	sp, sp, #16
 2367              		.cfi_def_cfa_offset 24
 2368 0004 00AF     		add	r7, sp, #0
 2369              		.cfi_def_cfa_register 7
 2370 0006 0346     		mov	r3, r0
 2371 0008 FB80     		strh	r3, [r7, #6]	@ movhi
1081:Core/Src/main.c ****   BaseType_t xHigherPriorityTaskWoken = pdFALSE;
 2372              		.loc 1 1081 14
 2373 000a 0023     		movs	r3, #0
 2374 000c FB60     		str	r3, [r7, #12]
1082:Core/Src/main.c **** 
1083:Core/Src/main.c ****   if(GPIO_Pin == GPIO_PIN_3)
 2375              		.loc 1 1083 5
 2376 000e FB88     		ldrh	r3, [r7, #6]
 2377 0010 082B     		cmp	r3, #8
 2378 0012 07D1     		bne	.L84
1084:Core/Src/main.c ****   {
1085:Core/Src/main.c ****     // Gyroscope data ready interrupt (EXTI3)
1086:Core/Src/main.c ****     bmi088_set_gyro_INT(&BMI_sensor);
 2379              		.loc 1 1086 5
 2380 0014 1048     		ldr	r0, .L88
 2381 0016 FFF7FEFF 		bl	bmi088_set_gyro_INT
1087:Core/Src/main.c **** 
1088:Core/Src/main.c ****     // Release semaphore from ISR to wake up BMI task
1089:Core/Src/main.c ****     osSemaphoreRelease(bmiDataReadySemaphoreHandle);
 2382              		.loc 1 1089 5
 2383 001a 104B     		ldr	r3, .L88+4
 2384 001c 1B68     		ldr	r3, [r3]
 2385 001e 1846     		mov	r0, r3
 2386 0020 FFF7FEFF 		bl	osSemaphoreRelease
ARM GAS  C:\Users\Halil\AppData\Local\Temp\cce2uIVz.s 			page 62


 2387              	.L84:
1090:Core/Src/main.c ****   }
1091:Core/Src/main.c ****   if(GPIO_Pin == GPIO_PIN_4)
 2388              		.loc 1 1091 5
 2389 0024 FB88     		ldrh	r3, [r7, #6]
 2390 0026 102B     		cmp	r3, #16
 2391 0028 07D1     		bne	.L85
1092:Core/Src/main.c ****   {
1093:Core/Src/main.c ****     // Accelerometer data ready interrupt (EXTI4)
1094:Core/Src/main.c ****     bmi088_set_accel_INT(&BMI_sensor);
 2392              		.loc 1 1094 5
 2393 002a 0B48     		ldr	r0, .L88
 2394 002c FFF7FEFF 		bl	bmi088_set_accel_INT
1095:Core/Src/main.c **** 
1096:Core/Src/main.c ****     // Release semaphore from ISR to wake up BMI task
1097:Core/Src/main.c ****     osSemaphoreRelease(bmiDataReadySemaphoreHandle);
 2395              		.loc 1 1097 5
 2396 0030 0A4B     		ldr	r3, .L88+4
 2397 0032 1B68     		ldr	r3, [r3]
 2398 0034 1846     		mov	r0, r3
 2399 0036 FFF7FEFF 		bl	osSemaphoreRelease
 2400              	.L85:
1098:Core/Src/main.c ****   }
1099:Core/Src/main.c **** 
1100:Core/Src/main.c ****   // Request context switch if higher priority task was woken
1101:Core/Src/main.c ****   portYIELD_FROM_ISR(xHigherPriorityTaskWoken);
 2401              		.loc 1 1101 3
 2402 003a FB68     		ldr	r3, [r7, #12]
 2403 003c 002B     		cmp	r3, #0
 2404 003e 07D0     		beq	.L87
 2405              		.loc 1 1101 3 is_stmt 0 discriminator 1
 2406 0040 074B     		ldr	r3, .L88+8
 2407 0042 4FF08052 		mov	r2, #268435456
 2408 0046 1A60     		str	r2, [r3]
 2409              		.syntax unified
 2410              	@ 1101 "Core/Src/main.c" 1
 2411 0048 BFF34F8F 		dsb
 2412              	@ 0 "" 2
 2413              	@ 1101 "Core/Src/main.c" 1
 2414 004c BFF36F8F 		isb
 2415              	@ 0 "" 2
 2416              		.thumb
 2417              		.syntax unified
 2418              	.L87:
1102:Core/Src/main.c **** }
 2419              		.loc 1 1102 1 is_stmt 1
 2420 0050 00BF     		nop
 2421 0052 1037     		adds	r7, r7, #16
 2422              		.cfi_def_cfa_offset 8
 2423 0054 BD46     		mov	sp, r7
 2424              		.cfi_def_cfa_register 13
 2425              		@ sp needed
 2426 0056 80BD     		pop	{r7, pc}
 2427              	.L89:
 2428              		.align	2
 2429              	.L88:
 2430 0058 00000000 		.word	BMI_sensor
ARM GAS  C:\Users\Halil\AppData\Local\Temp\cce2uIVz.s 			page 63


 2431 005c 00000000 		.word	bmiDataReadySemaphoreHandle
 2432 0060 04ED00E0 		.word	-536810236
 2433              		.cfi_endproc
 2434              	.LFE262:
 2436              		.section	.text.HAL_UART_TxCpltCallback,"ax",%progbits
 2437              		.align	1
 2438              		.global	HAL_UART_TxCpltCallback
 2439              		.syntax unified
 2440              		.thumb
 2441              		.thumb_func
 2443              	HAL_UART_TxCpltCallback:
 2444              	.LFB263:
1103:Core/Src/main.c **** 
1104:Core/Src/main.c **** /**
1105:Core/Src/main.c ****  * @brief UART transmission complete callback
1106:Core/Src/main.c ****  * @param huart UART handle
1107:Core/Src/main.c ****  * @note Clears transmission busy flag
1108:Core/Src/main.c ****  */
1109:Core/Src/main.c **** void HAL_UART_TxCpltCallback(UART_HandleTypeDef *huart)
1110:Core/Src/main.c **** {
 2445              		.loc 1 1110 1
 2446              		.cfi_startproc
 2447              		@ args = 0, pretend = 0, frame = 8
 2448              		@ frame_needed = 1, uses_anonymous_args = 0
 2449              		@ link register save eliminated.
 2450 0000 80B4     		push	{r7}
 2451              		.cfi_def_cfa_offset 4
 2452              		.cfi_offset 7, -4
 2453 0002 83B0     		sub	sp, sp, #12
 2454              		.cfi_def_cfa_offset 16
 2455 0004 00AF     		add	r7, sp, #0
 2456              		.cfi_def_cfa_register 7
 2457 0006 7860     		str	r0, [r7, #4]
1111:Core/Src/main.c ****     if (huart->Instance == USART2) {
 2458              		.loc 1 1111 14
 2459 0008 7B68     		ldr	r3, [r7, #4]
 2460 000a 1B68     		ldr	r3, [r3]
 2461              		.loc 1 1111 8
 2462 000c 054A     		ldr	r2, .L93
 2463 000e 9342     		cmp	r3, r2
 2464 0010 02D1     		bne	.L92
1112:Core/Src/main.c ****         usart2_tx_busy = 0;
 2465              		.loc 1 1112 24
 2466 0012 054B     		ldr	r3, .L93+4
 2467 0014 0022     		movs	r2, #0
 2468 0016 1A70     		strb	r2, [r3]
 2469              	.L92:
1113:Core/Src/main.c ****     }
1114:Core/Src/main.c **** }
 2470              		.loc 1 1114 1
 2471 0018 00BF     		nop
 2472 001a 0C37     		adds	r7, r7, #12
 2473              		.cfi_def_cfa_offset 4
 2474 001c BD46     		mov	sp, r7
 2475              		.cfi_def_cfa_register 13
 2476              		@ sp needed
 2477 001e 5DF8047B 		ldr	r7, [sp], #4
ARM GAS  C:\Users\Halil\AppData\Local\Temp\cce2uIVz.s 			page 64


 2478              		.cfi_restore 7
 2479              		.cfi_def_cfa_offset 0
 2480 0022 7047     		bx	lr
 2481              	.L94:
 2482              		.align	2
 2483              	.L93:
 2484 0024 00440040 		.word	1073759232
 2485 0028 00000000 		.word	usart2_tx_busy
 2486              		.cfi_endproc
 2487              	.LFE263:
 2489              		.section	.text.uart2_send_packet_dma,"ax",%progbits
 2490              		.align	1
 2491              		.global	uart2_send_packet_dma
 2492              		.syntax unified
 2493              		.thumb
 2494              		.thumb_func
 2496              	uart2_send_packet_dma:
 2497              	.LFB264:
1115:Core/Src/main.c **** 
1116:Core/Src/main.c **** /**
1117:Core/Src/main.c ****  * @brief Send packet via UART2 using DMA
1118:Core/Src/main.c ****  * @param data Pointer to data buffer
1119:Core/Src/main.c ****  * @param size Size of data to send
1120:Core/Src/main.c ****  * @note Non-blocking transmission using DMA
1121:Core/Src/main.c ****  */
1122:Core/Src/main.c **** void uart2_send_packet_dma(uint8_t *data, uint16_t size)
1123:Core/Src/main.c **** {
 2498              		.loc 1 1123 1
 2499              		.cfi_startproc
 2500              		@ args = 0, pretend = 0, frame = 8
 2501              		@ frame_needed = 1, uses_anonymous_args = 0
 2502 0000 80B5     		push	{r7, lr}
 2503              		.cfi_def_cfa_offset 8
 2504              		.cfi_offset 7, -8
 2505              		.cfi_offset 14, -4
 2506 0002 82B0     		sub	sp, sp, #8
 2507              		.cfi_def_cfa_offset 16
 2508 0004 00AF     		add	r7, sp, #0
 2509              		.cfi_def_cfa_register 7
 2510 0006 7860     		str	r0, [r7, #4]
 2511 0008 0B46     		mov	r3, r1
 2512 000a 7B80     		strh	r3, [r7, #2]	@ movhi
1124:Core/Src/main.c ****     if (!usart2_tx_busy) {
 2513              		.loc 1 1124 9
 2514 000c 084B     		ldr	r3, .L98
 2515 000e 1B78     		ldrb	r3, [r3]
 2516 0010 DBB2     		uxtb	r3, r3
 2517              		.loc 1 1124 8
 2518 0012 002B     		cmp	r3, #0
 2519 0014 08D1     		bne	.L97
1125:Core/Src/main.c ****         usart2_tx_busy = 1;
 2520              		.loc 1 1125 24
 2521 0016 064B     		ldr	r3, .L98
 2522 0018 0122     		movs	r2, #1
 2523 001a 1A70     		strb	r2, [r3]
1126:Core/Src/main.c ****         HAL_UART_Transmit_DMA(&huart2, data, size);
 2524              		.loc 1 1126 9
ARM GAS  C:\Users\Halil\AppData\Local\Temp\cce2uIVz.s 			page 65


 2525 001c 7B88     		ldrh	r3, [r7, #2]
 2526 001e 1A46     		mov	r2, r3
 2527 0020 7968     		ldr	r1, [r7, #4]
 2528 0022 0448     		ldr	r0, .L98+4
 2529 0024 FFF7FEFF 		bl	HAL_UART_Transmit_DMA
 2530              	.L97:
1127:Core/Src/main.c ****     }
1128:Core/Src/main.c **** }
 2531              		.loc 1 1128 1
 2532 0028 00BF     		nop
 2533 002a 0837     		adds	r7, r7, #8
 2534              		.cfi_def_cfa_offset 8
 2535 002c BD46     		mov	sp, r7
 2536              		.cfi_def_cfa_register 13
 2537              		@ sp needed
 2538 002e 80BD     		pop	{r7, pc}
 2539              	.L99:
 2540              		.align	2
 2541              	.L98:
 2542 0030 00000000 		.word	usart2_tx_busy
 2543 0034 00000000 		.word	huart2
 2544              		.cfi_endproc
 2545              	.LFE264:
 2547              		.section	.text.HAL_I2C_MemRxCpltCallback,"ax",%progbits
 2548              		.align	1
 2549              		.global	HAL_I2C_MemRxCpltCallback
 2550              		.syntax unified
 2551              		.thumb
 2552              		.thumb_func
 2554              	HAL_I2C_MemRxCpltCallback:
 2555              	.LFB265:
1129:Core/Src/main.c **** 
1130:Core/Src/main.c **** /**
1131:Core/Src/main.c ****  * @brief I2C Memory read complete callback (DMA)
1132:Core/Src/main.c ****  * @param hi2c I2C handle
1133:Core/Src/main.c ****  * @note Handles BMI088 sensor data DMA transfer completion
1134:Core/Src/main.c ****  */
1135:Core/Src/main.c **** void HAL_I2C_MemRxCpltCallback(I2C_HandleTypeDef *hi2c)
1136:Core/Src/main.c **** {
 2556              		.loc 1 1136 1
 2557              		.cfi_startproc
 2558              		@ args = 0, pretend = 0, frame = 8
 2559              		@ frame_needed = 1, uses_anonymous_args = 0
 2560 0000 80B5     		push	{r7, lr}
 2561              		.cfi_def_cfa_offset 8
 2562              		.cfi_offset 7, -8
 2563              		.cfi_offset 14, -4
 2564 0002 82B0     		sub	sp, sp, #8
 2565              		.cfi_def_cfa_offset 16
 2566 0004 00AF     		add	r7, sp, #0
 2567              		.cfi_def_cfa_register 7
 2568 0006 7860     		str	r0, [r7, #4]
1137:Core/Src/main.c ****     // Debug: increment a counter to see if this callback is called
1138:Core/Src/main.c ****     static uint32_t i2c_callback_counter = 0;
1139:Core/Src/main.c ****     i2c_callback_counter++;
 2569              		.loc 1 1139 25
 2570 0008 0E4B     		ldr	r3, .L104
ARM GAS  C:\Users\Halil\AppData\Local\Temp\cce2uIVz.s 			page 66


 2571 000a 1B68     		ldr	r3, [r3]
 2572 000c 0133     		adds	r3, r3, #1
 2573 000e 0D4A     		ldr	r2, .L104
 2574 0010 1360     		str	r3, [r2]
1140:Core/Src/main.c **** 
1141:Core/Src/main.c ****     if (hi2c->Instance == I2C1) {
 2575              		.loc 1 1141 13
 2576 0012 7B68     		ldr	r3, [r7, #4]
 2577 0014 1B68     		ldr	r3, [r3]
 2578              		.loc 1 1141 8
 2579 0016 0C4A     		ldr	r2, .L104+4
 2580 0018 9342     		cmp	r3, r2
 2581 001a 0ED1     		bne	.L103
1142:Core/Src/main.c ****         if (hi2c->Devaddress == ACC_I2C_ADD) {
 2582              		.loc 1 1142 17
 2583 001c 7B68     		ldr	r3, [r7, #4]
 2584 001e 5B6C     		ldr	r3, [r3, #68]
 2585              		.loc 1 1142 12
 2586 0020 302B     		cmp	r3, #48
 2587 0022 03D1     		bne	.L102
1143:Core/Src/main.c ****             // Accelerometer data received (9 bytes: XYZ + sensor time)
1144:Core/Src/main.c ****             bmi088_accel_dma_complete_callback(&BMI_sensor);
 2588              		.loc 1 1144 13
 2589 0024 0948     		ldr	r0, .L104+8
 2590 0026 FFF7FEFF 		bl	bmi088_accel_dma_complete_callback
1145:Core/Src/main.c ****         }
1146:Core/Src/main.c ****         else if (hi2c->Devaddress == GYRO_I2C_ADD) {
1147:Core/Src/main.c ****             // Gyroscope data received (6 bytes: XYZ)
1148:Core/Src/main.c ****             bmi088_gyro_dma_complete_callback(&BMI_sensor);
1149:Core/Src/main.c ****         }
1150:Core/Src/main.c ****     }
1151:Core/Src/main.c **** }
 2591              		.loc 1 1151 1
 2592 002a 06E0     		b	.L103
 2593              	.L102:
1146:Core/Src/main.c ****             // Gyroscope data received (6 bytes: XYZ)
 2594              		.loc 1 1146 22
 2595 002c 7B68     		ldr	r3, [r7, #4]
 2596 002e 5B6C     		ldr	r3, [r3, #68]
1146:Core/Src/main.c ****             // Gyroscope data received (6 bytes: XYZ)
 2597              		.loc 1 1146 17
 2598 0030 D02B     		cmp	r3, #208
 2599 0032 02D1     		bne	.L103
1148:Core/Src/main.c ****         }
 2600              		.loc 1 1148 13
 2601 0034 0548     		ldr	r0, .L104+8
 2602 0036 FFF7FEFF 		bl	bmi088_gyro_dma_complete_callback
 2603              	.L103:
 2604              		.loc 1 1151 1
 2605 003a 00BF     		nop
 2606 003c 0837     		adds	r7, r7, #8
 2607              		.cfi_def_cfa_offset 8
 2608 003e BD46     		mov	sp, r7
 2609              		.cfi_def_cfa_register 13
 2610              		@ sp needed
 2611 0040 80BD     		pop	{r7, pc}
 2612              	.L105:
ARM GAS  C:\Users\Halil\AppData\Local\Temp\cce2uIVz.s 			page 67


 2613 0042 00BF     		.align	2
 2614              	.L104:
 2615 0044 00000000 		.word	i2c_callback_counter.3
 2616 0048 00540040 		.word	1073763328
 2617 004c 00000000 		.word	BMI_sensor
 2618              		.cfi_endproc
 2619              	.LFE265:
 2621              		.section	.text.StartTelemetryTask,"ax",%progbits
 2622              		.align	1
 2623              		.global	StartTelemetryTask
 2624              		.syntax unified
 2625              		.thumb
 2626              		.thumb_func
 2628              	StartTelemetryTask:
 2629              	.LFB266:
1152:Core/Src/main.c **** 
1153:Core/Src/main.c **** /**
1154:Core/Src/main.c ****   * @brief  Function implementing the telemetry task.
1155:Core/Src/main.c ****   * @param  argument: Not used
1156:Core/Src/main.c ****   * @retval None
1157:Core/Src/main.c ****   */
1158:Core/Src/main.c **** void StartTelemetryTask(void *argument)
1159:Core/Src/main.c **** {
 2630              		.loc 1 1159 1
 2631              		.cfi_startproc
 2632              		@ args = 0, pretend = 0, frame = 8
 2633              		@ frame_needed = 1, uses_anonymous_args = 0
 2634 0000 80B5     		push	{r7, lr}
 2635              		.cfi_def_cfa_offset 8
 2636              		.cfi_offset 7, -8
 2637              		.cfi_offset 14, -4
 2638 0002 82B0     		sub	sp, sp, #8
 2639              		.cfi_def_cfa_offset 16
 2640 0004 00AF     		add	r7, sp, #0
 2641              		.cfi_def_cfa_register 7
 2642 0006 7860     		str	r0, [r7, #4]
 2643              	.L107:
1160:Core/Src/main.c ****   /* USER CODE BEGIN StartTelemetryTask */
1161:Core/Src/main.c ****   /* Infinite loop */
1162:Core/Src/main.c ****   for(;;)
1163:Core/Src/main.c ****   {
1164:Core/Src/main.c ****     // Create telemetry packets
1165:Core/Src/main.c ****     addDataPacketNormal(&BME280_sensor, &BMI_sensor, &sensor_output, &gnss_data, hmc1021_gauss, vol
 2644              		.loc 1 1165 5 discriminator 1
 2645 0008 0E4B     		ldr	r3, .L108
 2646 000a D3ED007A 		vldr.32	s15, [r3]
 2647 000e 0E4B     		ldr	r3, .L108+4
 2648 0010 93ED007A 		vldr.32	s14, [r3]
 2649 0014 0D4B     		ldr	r3, .L108+8
 2650 0016 D3ED006A 		vldr.32	s13, [r3]
 2651 001a B0EE661A 		vmov.f32	s2, s13
 2652 001e F0EE470A 		vmov.f32	s1, s14
 2653 0022 B0EE670A 		vmov.f32	s0, s15
 2654 0026 0A4B     		ldr	r3, .L108+12
 2655 0028 0A4A     		ldr	r2, .L108+16
 2656 002a 0B49     		ldr	r1, .L108+20
 2657 002c 0B48     		ldr	r0, .L108+24
ARM GAS  C:\Users\Halil\AppData\Local\Temp\cce2uIVz.s 			page 68


 2658 002e FFF7FEFF 		bl	addDataPacketNormal
1166:Core/Src/main.c **** 
1167:Core/Src/main.c ****     // Send data via UART2 using DMA
1168:Core/Src/main.c ****     uart2_send_packet_dma((uint8_t*)normal_paket, 50);
 2659              		.loc 1 1168 5 discriminator 1
 2660 0032 3221     		movs	r1, #50
 2661 0034 0A48     		ldr	r0, .L108+28
 2662 0036 FFF7FEFF 		bl	uart2_send_packet_dma
1169:Core/Src/main.c **** 
1170:Core/Src/main.c ****     // Send data via LoRa using DMA
1171:Core/Src/main.c ****     //lora_send_packet_dma((uint8_t*)normal_paket, 50);
1172:Core/Src/main.c **** 
1173:Core/Src/main.c ****     // Wait for 100ms before next transmission (10Hz telemetry rate)
1174:Core/Src/main.c ****     osDelay(100);
 2663              		.loc 1 1174 5 discriminator 1
 2664 003a 6420     		movs	r0, #100
 2665 003c FFF7FEFF 		bl	osDelay
1165:Core/Src/main.c **** 
 2666              		.loc 1 1165 5 discriminator 1
 2667 0040 00BF     		nop
 2668 0042 E1E7     		b	.L107
 2669              	.L109:
 2670              		.align	2
 2671              	.L108:
 2672 0044 00000000 		.word	hmc1021_gauss
 2673 0048 00000000 		.word	voltage_V
 2674 004c 00000000 		.word	current_mA
 2675 0050 00000000 		.word	gnss_data
 2676 0054 00000000 		.word	sensor_output
 2677 0058 00000000 		.word	BMI_sensor
 2678 005c 00000000 		.word	BME280_sensor
 2679 0060 00000000 		.word	normal_paket
 2680              		.cfi_endproc
 2681              	.LFE266:
 2683              		.section	.text.StartBMITask,"ax",%progbits
 2684              		.align	1
 2685              		.global	StartBMITask
 2686              		.syntax unified
 2687              		.thumb
 2688              		.thumb_func
 2690              	StartBMITask:
 2691              	.LFB267:
1175:Core/Src/main.c ****   }
1176:Core/Src/main.c ****   /* USER CODE END StartTelemetryTask */
1177:Core/Src/main.c **** }
1178:Core/Src/main.c **** 
1179:Core/Src/main.c **** /**
1180:Core/Src/main.c ****   * @brief  Function implementing the BMI088 sensor task.
1181:Core/Src/main.c ****   * @param  argument: Not used
1182:Core/Src/main.c ****   * @retval None
1183:Core/Src/main.c ****   * @note   Interrupt-driven: Task blocks on semaphore, wakes up on EXTI interrupt
1184:Core/Src/main.c ****   * @note   Uses system tick for delta_time calculation (more reliable in FreeRTOS)
1185:Core/Src/main.c ****   */
1186:Core/Src/main.c **** void StartBMITask(void *argument)
1187:Core/Src/main.c **** {
 2692              		.loc 1 1187 1
 2693              		.cfi_startproc
ARM GAS  C:\Users\Halil\AppData\Local\Temp\cce2uIVz.s 			page 69


 2694              		@ args = 0, pretend = 0, frame = 8
 2695              		@ frame_needed = 1, uses_anonymous_args = 0
 2696 0000 80B5     		push	{r7, lr}
 2697              		.cfi_def_cfa_offset 8
 2698              		.cfi_offset 7, -8
 2699              		.cfi_offset 14, -4
 2700 0002 82B0     		sub	sp, sp, #8
 2701              		.cfi_def_cfa_offset 16
 2702 0004 00AF     		add	r7, sp, #0
 2703              		.cfi_def_cfa_register 7
 2704 0006 7860     		str	r0, [r7, #4]
 2705              	.L112:
1188:Core/Src/main.c ****   /* USER CODE BEGIN StartBMITask */
1189:Core/Src/main.c ****   /* Infinite loop */
1190:Core/Src/main.c ****   for(;;)
1191:Core/Src/main.c ****   {
1192:Core/Src/main.c ****     // Block and wait for BMI088 data ready interrupt (semaphore from ISR)
1193:Core/Src/main.c ****     if(osSemaphoreAcquire(bmiDataReadySemaphoreHandle, osWaitForever) == osOK)
 2706              		.loc 1 1193 8
 2707 0008 0E4B     		ldr	r3, .L113
 2708 000a 1B68     		ldr	r3, [r3]
 2709 000c 4FF0FF31 		mov	r1, #-1
 2710 0010 1846     		mov	r0, r3
 2711 0012 FFF7FEFF 		bl	osSemaphoreAcquire
 2712 0016 0346     		mov	r3, r0
 2713              		.loc 1 1193 7
 2714 0018 002B     		cmp	r3, #0
 2715 001a 0ED1     		bne	.L111
1194:Core/Src/main.c ****     {
1195:Core/Src/main.c ****       // Acquire I2C bus mutex for thread-safe access
1196:Core/Src/main.c ****       osMutexAcquire(i2cMutexHandle, osWaitForever);
 2716              		.loc 1 1196 7
 2717 001c 0A4B     		ldr	r3, .L113+4
 2718 001e 1B68     		ldr	r3, [r3]
 2719 0020 4FF0FF31 		mov	r1, #-1
 2720 0024 1846     		mov	r0, r3
 2721 0026 FFF7FEFF 		bl	osMutexAcquire
1197:Core/Src/main.c **** 
1198:Core/Src/main.c ****       // Read BMI088 sensor data
1199:Core/Src/main.c ****       bmi088_update(&BMI_sensor);
 2722              		.loc 1 1199 7
 2723 002a 0848     		ldr	r0, .L113+8
 2724 002c FFF7FEFF 		bl	bmi088_update
1200:Core/Src/main.c **** 
1201:Core/Src/main.c ****       // Release I2C bus mutex
1202:Core/Src/main.c ****       osMutexRelease(i2cMutexHandle);
 2725              		.loc 1 1202 7
 2726 0030 054B     		ldr	r3, .L113+4
 2727 0032 1B68     		ldr	r3, [r3]
 2728 0034 1846     		mov	r0, r3
 2729 0036 FFF7FEFF 		bl	osMutexRelease
 2730              	.L111:
1203:Core/Src/main.c ****     }
1204:Core/Src/main.c ****     osDelay(1);
 2731              		.loc 1 1204 5
 2732 003a 0120     		movs	r0, #1
 2733 003c FFF7FEFF 		bl	osDelay
ARM GAS  C:\Users\Halil\AppData\Local\Temp\cce2uIVz.s 			page 70


1193:Core/Src/main.c ****     {
 2734              		.loc 1 1193 7
 2735 0040 E2E7     		b	.L112
 2736              	.L114:
 2737 0042 00BF     		.align	2
 2738              	.L113:
 2739 0044 00000000 		.word	bmiDataReadySemaphoreHandle
 2740 0048 00000000 		.word	i2cMutexHandle
 2741 004c 00000000 		.word	BMI_sensor
 2742              		.cfi_endproc
 2743              	.LFE267:
 2745              		.section	.text.StartBMETask,"ax",%progbits
 2746              		.align	1
 2747              		.global	StartBMETask
 2748              		.syntax unified
 2749              		.thumb
 2750              		.thumb_func
 2752              	StartBMETask:
 2753              	.LFB268:
1205:Core/Src/main.c ****   }
1206:Core/Src/main.c ****   /* USER CODE END StartBMITask */
1207:Core/Src/main.c **** }
1208:Core/Src/main.c **** 
1209:Core/Src/main.c **** /**
1210:Core/Src/main.c ****   * @brief  Function implementing the BME280 sensor task.
1211:Core/Src/main.c ****   * @param  argument: Not used
1212:Core/Src/main.c ****   * @retval None
1213:Core/Src/main.c ****   */
1214:Core/Src/main.c **** void StartBMETask(void *argument)
1215:Core/Src/main.c **** {
 2754              		.loc 1 1215 1
 2755              		.cfi_startproc
 2756              		@ args = 0, pretend = 0, frame = 8
 2757              		@ frame_needed = 1, uses_anonymous_args = 0
 2758 0000 80B5     		push	{r7, lr}
 2759              		.cfi_def_cfa_offset 8
 2760              		.cfi_offset 7, -8
 2761              		.cfi_offset 14, -4
 2762 0002 82B0     		sub	sp, sp, #8
 2763              		.cfi_def_cfa_offset 16
 2764 0004 00AF     		add	r7, sp, #0
 2765              		.cfi_def_cfa_register 7
 2766 0006 7860     		str	r0, [r7, #4]
 2767              	.L116:
1216:Core/Src/main.c ****   /* USER CODE BEGIN StartBMETask */
1217:Core/Src/main.c ****   /* Infinite loop */
1218:Core/Src/main.c ****   for(;;)
1219:Core/Src/main.c ****   {
1220:Core/Src/main.c ****     // Acquire I2C bus mutex for thread-safe access
1221:Core/Src/main.c ****     osMutexAcquire(i2cMutexHandle, osWaitForever);
 2768              		.loc 1 1221 5 discriminator 1
 2769 0008 094B     		ldr	r3, .L117
 2770 000a 1B68     		ldr	r3, [r3]
 2771 000c 4FF0FF31 		mov	r1, #-1
 2772 0010 1846     		mov	r0, r3
 2773 0012 FFF7FEFF 		bl	osMutexAcquire
1222:Core/Src/main.c **** 
ARM GAS  C:\Users\Halil\AppData\Local\Temp\cce2uIVz.s 			page 71


1223:Core/Src/main.c ****     // Update BME280 barometric pressure sensor data
1224:Core/Src/main.c ****     bme280_update();
 2774              		.loc 1 1224 5 discriminator 1
 2775 0016 FFF7FEFF 		bl	bme280_update
1225:Core/Src/main.c **** 
1226:Core/Src/main.c ****     // Release I2C bus mutex
1227:Core/Src/main.c ****     osMutexRelease(i2cMutexHandle);
 2776              		.loc 1 1227 5 discriminator 1
 2777 001a 054B     		ldr	r3, .L117
 2778 001c 1B68     		ldr	r3, [r3]
 2779 001e 1846     		mov	r0, r3
 2780 0020 FFF7FEFF 		bl	osMutexRelease
1228:Core/Src/main.c **** 
1229:Core/Src/main.c ****     // Short delay - barometer updates don't need to be as fast as IMU
1230:Core/Src/main.c ****     osDelay(25);
 2781              		.loc 1 1230 5 discriminator 1
 2782 0024 1920     		movs	r0, #25
 2783 0026 FFF7FEFF 		bl	osDelay
1221:Core/Src/main.c **** 
 2784              		.loc 1 1221 5 discriminator 1
 2785 002a 00BF     		nop
 2786 002c ECE7     		b	.L116
 2787              	.L118:
 2788 002e 00BF     		.align	2
 2789              	.L117:
 2790 0030 00000000 		.word	i2cMutexHandle
 2791              		.cfi_endproc
 2792              	.LFE268:
 2794              		.section	.text.StartSensorFusionTask,"ax",%progbits
 2795              		.align	1
 2796              		.global	StartSensorFusionTask
 2797              		.syntax unified
 2798              		.thumb
 2799              		.thumb_func
 2801              	StartSensorFusionTask:
 2802              	.LFB269:
1231:Core/Src/main.c ****   }
1232:Core/Src/main.c ****   /* USER CODE END StartBMETask */
1233:Core/Src/main.c **** }
1234:Core/Src/main.c **** 
1235:Core/Src/main.c **** /**
1236:Core/Src/main.c ****   * @brief  Function implementing the sensor fusion task.
1237:Core/Src/main.c ****   * @param  argument: Not used
1238:Core/Src/main.c ****   * @retval None
1239:Core/Src/main.c ****   */
1240:Core/Src/main.c **** void StartSensorFusionTask(void *argument)
1241:Core/Src/main.c **** {
 2803              		.loc 1 1241 1
 2804              		.cfi_startproc
 2805              		@ args = 0, pretend = 0, frame = 8
 2806              		@ frame_needed = 1, uses_anonymous_args = 0
 2807 0000 80B5     		push	{r7, lr}
 2808              		.cfi_def_cfa_offset 8
 2809              		.cfi_offset 7, -8
 2810              		.cfi_offset 14, -4
 2811 0002 82B0     		sub	sp, sp, #8
 2812              		.cfi_def_cfa_offset 16
ARM GAS  C:\Users\Halil\AppData\Local\Temp\cce2uIVz.s 			page 72


 2813 0004 00AF     		add	r7, sp, #0
 2814              		.cfi_def_cfa_register 7
 2815 0006 7860     		str	r0, [r7, #4]
 2816              	.L120:
1242:Core/Src/main.c ****   /* USER CODE BEGIN StartSensorFusionTask */
1243:Core/Src/main.c ****   /* Infinite loop */
1244:Core/Src/main.c ****   for(;;)
1245:Core/Src/main.c ****   {
1246:Core/Src/main.c ****     // Perform sensor fusion using Kalman filter
1247:Core/Src/main.c ****     sensor_fusion_update_kalman(&BME280_sensor, &BMI_sensor, &sensor_output);
 2817              		.loc 1 1247 5 discriminator 1
 2818 0008 074A     		ldr	r2, .L121
 2819 000a 0849     		ldr	r1, .L121+4
 2820 000c 0848     		ldr	r0, .L121+8
 2821 000e FFF7FEFF 		bl	sensor_fusion_update_kalman
1248:Core/Src/main.c **** 
1249:Core/Src/main.c ****     // Update flight algorithm (launch detection, apogee, etc.)
1250:Core/Src/main.c ****     flight_algorithm_update(&BME280_sensor, &BMI_sensor, &sensor_output);
 2822              		.loc 1 1250 5 discriminator 1
 2823 0012 054A     		ldr	r2, .L121
 2824 0014 0549     		ldr	r1, .L121+4
 2825 0016 0648     		ldr	r0, .L121+8
 2826 0018 FFF7FEFF 		bl	flight_algorithm_update
1251:Core/Src/main.c **** 
1252:Core/Src/main.c ****     // Run at 10Hz (100ms period) - matches telemetry rate
1253:Core/Src/main.c ****     osDelay(100);
 2827              		.loc 1 1253 5 discriminator 1
 2828 001c 6420     		movs	r0, #100
 2829 001e FFF7FEFF 		bl	osDelay
1247:Core/Src/main.c **** 
 2830              		.loc 1 1247 5 discriminator 1
 2831 0022 00BF     		nop
 2832 0024 F0E7     		b	.L120
 2833              	.L122:
 2834 0026 00BF     		.align	2
 2835              	.L121:
 2836 0028 00000000 		.word	sensor_output
 2837 002c 00000000 		.word	BMI_sensor
 2838 0030 00000000 		.word	BME280_sensor
 2839              		.cfi_endproc
 2840              	.LFE269:
 2842              		.section	.text.StartADCTask,"ax",%progbits
 2843              		.align	1
 2844              		.global	StartADCTask
 2845              		.syntax unified
 2846              		.thumb
 2847              		.thumb_func
 2849              	StartADCTask:
 2850              	.LFB270:
1254:Core/Src/main.c ****   }
1255:Core/Src/main.c ****   /* USER CODE END StartSensorFusionTask */
1256:Core/Src/main.c **** }
1257:Core/Src/main.c **** 
1258:Core/Src/main.c **** /**
1259:Core/Src/main.c ****   * @brief  Function implementing the ADC reading task.
1260:Core/Src/main.c ****   * @param  argument: Not used
1261:Core/Src/main.c ****   * @retval None
ARM GAS  C:\Users\Halil\AppData\Local\Temp\cce2uIVz.s 			page 73


1262:Core/Src/main.c ****   */
1263:Core/Src/main.c **** void StartADCTask(void *argument)
1264:Core/Src/main.c **** {
 2851              		.loc 1 1264 1
 2852              		.cfi_startproc
 2853              		@ args = 0, pretend = 0, frame = 8
 2854              		@ frame_needed = 1, uses_anonymous_args = 0
 2855 0000 80B5     		push	{r7, lr}
 2856              		.cfi_def_cfa_offset 8
 2857              		.cfi_offset 7, -8
 2858              		.cfi_offset 14, -4
 2859 0002 82B0     		sub	sp, sp, #8
 2860              		.cfi_def_cfa_offset 16
 2861 0004 00AF     		add	r7, sp, #0
 2862              		.cfi_def_cfa_register 7
 2863 0006 7860     		str	r0, [r7, #4]
 2864              	.L124:
1265:Core/Src/main.c ****   /* USER CODE BEGIN StartADCTask */
1266:Core/Src/main.c ****   /* Infinite loop */
1267:Core/Src/main.c ****   for(;;)
1268:Core/Src/main.c ****   {
1269:Core/Src/main.c ****     // Read ADC channels (magnetometer, voltage, current)
1270:Core/Src/main.c ****     read_ADC();
 2865              		.loc 1 1270 5 discriminator 1
 2866 0008 FFF7FEFF 		bl	read_ADC
1271:Core/Src/main.c **** 
1272:Core/Src/main.c ****     // Run at 10Hz (100ms period)
1273:Core/Src/main.c ****     osDelay(100);
 2867              		.loc 1 1273 5 discriminator 1
 2868 000c 6420     		movs	r0, #100
 2869 000e FFF7FEFF 		bl	osDelay
1270:Core/Src/main.c **** 
 2870              		.loc 1 1270 5 discriminator 1
 2871 0012 00BF     		nop
 2872 0014 F8E7     		b	.L124
 2873              		.cfi_endproc
 2874              	.LFE270:
 2876              		.section	.text.StartGNSSTask,"ax",%progbits
 2877              		.align	1
 2878              		.global	StartGNSSTask
 2879              		.syntax unified
 2880              		.thumb
 2881              		.thumb_func
 2883              	StartGNSSTask:
 2884              	.LFB271:
1274:Core/Src/main.c ****   }
1275:Core/Src/main.c ****   /* USER CODE END StartADCTask */
1276:Core/Src/main.c **** }
1277:Core/Src/main.c **** 
1278:Core/Src/main.c **** /**
1279:Core/Src/main.c ****   * @brief  Function implementing the GNSS task.
1280:Core/Src/main.c ****   * @param  argument: Not used
1281:Core/Src/main.c ****   * @retval None
1282:Core/Src/main.c ****   */
1283:Core/Src/main.c **** void StartGNSSTask(void *argument)
1284:Core/Src/main.c **** {
 2885              		.loc 1 1284 1
ARM GAS  C:\Users\Halil\AppData\Local\Temp\cce2uIVz.s 			page 74


 2886              		.cfi_startproc
 2887              		@ args = 0, pretend = 0, frame = 8
 2888              		@ frame_needed = 1, uses_anonymous_args = 0
 2889 0000 80B5     		push	{r7, lr}
 2890              		.cfi_def_cfa_offset 8
 2891              		.cfi_offset 7, -8
 2892              		.cfi_offset 14, -4
 2893 0002 82B0     		sub	sp, sp, #8
 2894              		.cfi_def_cfa_offset 16
 2895 0004 00AF     		add	r7, sp, #0
 2896              		.cfi_def_cfa_register 7
 2897 0006 7860     		str	r0, [r7, #4]
 2898              	.L126:
1285:Core/Src/main.c ****   /* USER CODE BEGIN StartGNSSTask */
1286:Core/Src/main.c ****   /* Infinite loop */
1287:Core/Src/main.c ****   for(;;)
1288:Core/Src/main.c ****   {
1289:Core/Src/main.c ****     // Update GPS/GNSS data
1290:Core/Src/main.c ****     L86_GNSS_Update(&gnss_data);
 2899              		.loc 1 1290 5 discriminator 1
 2900 0008 0348     		ldr	r0, .L127
 2901 000a FFF7FEFF 		bl	L86_GNSS_Update
1291:Core/Src/main.c **** 
1292:Core/Src/main.c ****     // Run at 10Hz (100ms period)
1293:Core/Src/main.c ****     osDelay(100);
 2902              		.loc 1 1293 5 discriminator 1
 2903 000e 6420     		movs	r0, #100
 2904 0010 FFF7FEFF 		bl	osDelay
1290:Core/Src/main.c **** 
 2905              		.loc 1 1290 5 discriminator 1
 2906 0014 00BF     		nop
 2907 0016 F7E7     		b	.L126
 2908              	.L128:
 2909              		.align	2
 2910              	.L127:
 2911 0018 00000000 		.word	gnss_data
 2912              		.cfi_endproc
 2913              	.LFE271:
 2915              		.section	.text.StartDataLoggerTask,"ax",%progbits
 2916              		.align	1
 2917              		.global	StartDataLoggerTask
 2918              		.syntax unified
 2919              		.thumb
 2920              		.thumb_func
 2922              	StartDataLoggerTask:
 2923              	.LFB272:
1294:Core/Src/main.c ****   }
1295:Core/Src/main.c ****   /* USER CODE END StartGNSSTask */
1296:Core/Src/main.c **** }
1297:Core/Src/main.c **** 
1298:Core/Src/main.c **** /**
1299:Core/Src/main.c ****   * @brief  Function implementing the data logger task.
1300:Core/Src/main.c ****   * @param  argument: Not used
1301:Core/Src/main.c ****   * @retval None
1302:Core/Src/main.c ****   */
1303:Core/Src/main.c **** void StartDataLoggerTask(void *argument)
1304:Core/Src/main.c **** {
ARM GAS  C:\Users\Halil\AppData\Local\Temp\cce2uIVz.s 			page 75


 2924              		.loc 1 1304 1
 2925              		.cfi_startproc
 2926              		@ args = 0, pretend = 0, frame = 8
 2927              		@ frame_needed = 1, uses_anonymous_args = 0
 2928 0000 80B5     		push	{r7, lr}
 2929              		.cfi_def_cfa_offset 8
 2930              		.cfi_offset 7, -8
 2931              		.cfi_offset 14, -4
 2932 0002 82B0     		sub	sp, sp, #8
 2933              		.cfi_def_cfa_offset 16
 2934 0004 00AF     		add	r7, sp, #0
 2935              		.cfi_def_cfa_register 7
 2936 0006 7860     		str	r0, [r7, #4]
 2937              	.L130:
1305:Core/Src/main.c ****   /* USER CODE BEGIN StartDataLoggerTask */
1306:Core/Src/main.c ****   /* Infinite loop */
1307:Core/Src/main.c ****   for(;;)
1308:Core/Src/main.c ****   {
1309:Core/Src/main.c ****     // Create SD card data packet
1310:Core/Src/main.c ****     addDataPacketSD(&BME280_sensor, &BMI_sensor, &sensor_output, &gnss_data, hmc1021_gauss, voltage
 2938              		.loc 1 1310 5 discriminator 1
 2939 0008 0E4B     		ldr	r3, .L131
 2940 000a D3ED007A 		vldr.32	s15, [r3]
 2941 000e 0E4B     		ldr	r3, .L131+4
 2942 0010 93ED007A 		vldr.32	s14, [r3]
 2943 0014 0D4B     		ldr	r3, .L131+8
 2944 0016 D3ED006A 		vldr.32	s13, [r3]
 2945 001a B0EE661A 		vmov.f32	s2, s13
 2946 001e F0EE470A 		vmov.f32	s1, s14
 2947 0022 B0EE670A 		vmov.f32	s0, s15
 2948 0026 0A4B     		ldr	r3, .L131+12
 2949 0028 0A4A     		ldr	r2, .L131+16
 2950 002a 0B49     		ldr	r1, .L131+20
 2951 002c 0B48     		ldr	r0, .L131+24
 2952 002e FFF7FEFF 		bl	addDataPacketSD
1311:Core/Src/main.c **** 
1312:Core/Src/main.c ****     // Log data to SD card
1313:Core/Src/main.c ****     log_normal_packet_data(sd_paket);
 2953              		.loc 1 1313 5 discriminator 1
 2954 0032 0B48     		ldr	r0, .L131+28
 2955 0034 FFF7FEFF 		bl	log_normal_packet_data
1314:Core/Src/main.c **** 
1315:Core/Src/main.c ****     // Run at 10Hz (100ms period) - matches telemetry rate
1316:Core/Src/main.c ****     osDelay(100);
 2956              		.loc 1 1316 5 discriminator 1
 2957 0038 6420     		movs	r0, #100
 2958 003a FFF7FEFF 		bl	osDelay
1310:Core/Src/main.c **** 
 2959              		.loc 1 1310 5 discriminator 1
 2960 003e 00BF     		nop
 2961 0040 E2E7     		b	.L130
 2962              	.L132:
 2963 0042 00BF     		.align	2
 2964              	.L131:
 2965 0044 00000000 		.word	hmc1021_gauss
 2966 0048 00000000 		.word	voltage_V
 2967 004c 00000000 		.word	current_mA
ARM GAS  C:\Users\Halil\AppData\Local\Temp\cce2uIVz.s 			page 76


 2968 0050 00000000 		.word	gnss_data
 2969 0054 00000000 		.word	sensor_output
 2970 0058 00000000 		.word	BMI_sensor
 2971 005c 00000000 		.word	BME280_sensor
 2972 0060 00000000 		.word	sd_paket
 2973              		.cfi_endproc
 2974              	.LFE272:
 2976              		.section	.text.lora_init,"ax",%progbits
 2977              		.align	1
 2978              		.global	lora_init
 2979              		.syntax unified
 2980              		.thumb
 2981              		.thumb_func
 2983              	lora_init:
 2984              	.LFB273:
1317:Core/Src/main.c ****   }
1318:Core/Src/main.c ****   /* USER CODE END StartDataLoggerTask */
1319:Core/Src/main.c **** }
1320:Core/Src/main.c **** 
1321:Core/Src/main.c **** /* USER CODE BEGIN 4 */
1322:Core/Src/main.c **** 
1323:Core/Src/main.c **** /**
1324:Core/Src/main.c ****  * @brief Initialize LoRa E22 module
1325:Core/Src/main.c ****  * @note Configures LoRa module for telemetry transmission
1326:Core/Src/main.c ****  */
1327:Core/Src/main.c **** void lora_init(void)
1328:Core/Src/main.c **** {
 2985              		.loc 1 1328 1
 2986              		.cfi_startproc
 2987              		@ args = 0, pretend = 0, frame = 0
 2988              		@ frame_needed = 1, uses_anonymous_args = 0
 2989 0000 80B5     		push	{r7, lr}
 2990              		.cfi_def_cfa_offset 8
 2991              		.cfi_offset 7, -8
 2992              		.cfi_offset 14, -4
 2993 0002 00AF     		add	r7, sp, #0
 2994              		.cfi_def_cfa_register 7
1329:Core/Src/main.c **** 	lora_1.baud_rate 		= 	E22_BAUD_RATE_115200;
 2995              		.loc 1 1329 21
 2996 0004 1E4B     		ldr	r3, .L134
 2997 0006 0722     		movs	r2, #7
 2998 0008 DA73     		strb	r2, [r3, #15]
1330:Core/Src/main.c **** 	lora_1.parity_bit		=	E22_PARITY_8N1;
 2999              		.loc 1 1330 21
 3000 000a 1D4B     		ldr	r3, .L134
 3001 000c 0022     		movs	r2, #0
 3002 000e 1A74     		strb	r2, [r3, #16]
1331:Core/Src/main.c **** 	lora_1.air_rate			=	E22_AIR_DATA_RATE_38400;
 3003              		.loc 1 1331 20
 3004 0010 1B4B     		ldr	r3, .L134
 3005 0012 0622     		movs	r2, #6
 3006 0014 5A74     		strb	r2, [r3, #17]
1332:Core/Src/main.c **** 	lora_1.packet_size		=	E22_PACKET_SIZE_64;
 3007              		.loc 1 1332 22
 3008 0016 1A4B     		ldr	r3, .L134
 3009 0018 0222     		movs	r2, #2
 3010 001a 9A74     		strb	r2, [r3, #18]
ARM GAS  C:\Users\Halil\AppData\Local\Temp\cce2uIVz.s 			page 77


1333:Core/Src/main.c **** 	lora_1.rssi_noise		=	E22_RSSI_NOISE_DISABLE;
 3011              		.loc 1 1333 21
 3012 001c 184B     		ldr	r3, .L134
 3013 001e 0022     		movs	r2, #0
 3014 0020 DA74     		strb	r2, [r3, #19]
1334:Core/Src/main.c **** 	lora_1.power			=	E22_TRANSMITTING_POWER_22;
 3015              		.loc 1 1334 17
 3016 0022 174B     		ldr	r3, .L134
 3017 0024 0022     		movs	r2, #0
 3018 0026 1A75     		strb	r2, [r3, #20]
1335:Core/Src/main.c **** 	lora_1.rssi_enable		=	E22_ENABLE_RSSI_DISABLE;
 3019              		.loc 1 1335 22
 3020 0028 154B     		ldr	r3, .L134
 3021 002a 0022     		movs	r2, #0
 3022 002c 9A75     		strb	r2, [r3, #22]
1336:Core/Src/main.c **** 	lora_1.mode				= 	E22_TRANSMISSION_MODE_TRANSPARENT;
 3023              		.loc 1 1336 17
 3024 002e 144B     		ldr	r3, .L134
 3025 0030 0022     		movs	r2, #0
 3026 0032 DA75     		strb	r2, [r3, #23]
1337:Core/Src/main.c **** 	lora_1.repeater_func	=	E22_REPEATER_FUNC_DISABLE;
 3027              		.loc 1 1337 23
 3028 0034 124B     		ldr	r3, .L134
 3029 0036 0022     		movs	r2, #0
 3030 0038 1A76     		strb	r2, [r3, #24]
1338:Core/Src/main.c **** 	lora_1.lbt				=	E22_LBT_DISABLE;
 3031              		.loc 1 1338 16
 3032 003a 114B     		ldr	r3, .L134
 3033 003c 0022     		movs	r2, #0
 3034 003e 5A76     		strb	r2, [r3, #25]
1339:Core/Src/main.c **** 	lora_1.wor				=	E22_WOR_RECEIVER;
 3035              		.loc 1 1339 16
 3036 0040 0F4B     		ldr	r3, .L134
 3037 0042 0022     		movs	r2, #0
 3038 0044 9A76     		strb	r2, [r3, #26]
1340:Core/Src/main.c **** 	lora_1.wor_cycle		=	E22_WOR_CYCLE_1000;
 3039              		.loc 1 1340 20
 3040 0046 0E4B     		ldr	r3, .L134
 3041 0048 0122     		movs	r2, #1
 3042 004a DA76     		strb	r2, [r3, #27]
1341:Core/Src/main.c **** 	lora_1.channel			=	28;
 3043              		.loc 1 1341 19
 3044 004c 0C4B     		ldr	r3, .L134
 3045 004e 1C22     		movs	r2, #28
 3046 0050 5A75     		strb	r2, [r3, #21]
1342:Core/Src/main.c **** 
1343:Core/Src/main.c **** 	e22_init(&lora_1, &huart4);
 3047              		.loc 1 1343 2
 3048 0052 0C49     		ldr	r1, .L134+4
 3049 0054 0A48     		ldr	r0, .L134
 3050 0056 FFF7FEFF 		bl	e22_init
1344:Core/Src/main.c **** 
1345:Core/Src/main.c **** 	HAL_UART_DeInit(&huart4);
 3051              		.loc 1 1345 2
 3052 005a 0A48     		ldr	r0, .L134+4
 3053 005c FFF7FEFF 		bl	HAL_UART_DeInit
1346:Core/Src/main.c **** 	HAL_Delay(20);
ARM GAS  C:\Users\Halil\AppData\Local\Temp\cce2uIVz.s 			page 78


 3054              		.loc 1 1346 2
 3055 0060 1420     		movs	r0, #20
 3056 0062 FFF7FEFF 		bl	HAL_Delay
1347:Core/Src/main.c **** 	huart4.Init.BaudRate = 115200;
 3057              		.loc 1 1347 23
 3058 0066 074B     		ldr	r3, .L134+4
 3059 0068 4FF4E132 		mov	r2, #115200
 3060 006c 5A60     		str	r2, [r3, #4]
1348:Core/Src/main.c **** 	HAL_Delay(20);
 3061              		.loc 1 1348 2
 3062 006e 1420     		movs	r0, #20
 3063 0070 FFF7FEFF 		bl	HAL_Delay
1349:Core/Src/main.c **** 	HAL_UART_Init(&huart4);
 3064              		.loc 1 1349 2
 3065 0074 0348     		ldr	r0, .L134+4
 3066 0076 FFF7FEFF 		bl	HAL_UART_Init
1350:Core/Src/main.c **** }
 3067              		.loc 1 1350 1
 3068 007a 00BF     		nop
 3069 007c 80BD     		pop	{r7, pc}
 3070              	.L135:
 3071 007e 00BF     		.align	2
 3072              	.L134:
 3073 0080 00000000 		.word	lora_1
 3074 0084 00000000 		.word	huart4
 3075              		.cfi_endproc
 3076              	.LFE273:
 3078              		.section	.text.bme280_begin,"ax",%progbits
 3079              		.align	1
 3080              		.syntax unified
 3081              		.thumb
 3082              		.thumb_func
 3084              	bme280_begin:
 3085              	.LFB274:
1351:Core/Src/main.c **** 
1352:Core/Src/main.c **** /**
1353:Core/Src/main.c ****  * @brief Initialize BME280 environmental sensor
1354:Core/Src/main.c ****  * @note Configures BME280 with predefined settings for normal operation
1355:Core/Src/main.c ****  */
1356:Core/Src/main.c **** void bme280_begin()
1357:Core/Src/main.c **** {
 3086              		.loc 1 1357 1
 3087              		.cfi_startproc
 3088              		@ args = 0, pretend = 0, frame = 0
 3089              		@ frame_needed = 1, uses_anonymous_args = 0
 3090 0000 80B5     		push	{r7, lr}
 3091              		.cfi_def_cfa_offset 8
 3092              		.cfi_offset 7, -8
 3093              		.cfi_offset 14, -4
 3094 0002 00AF     		add	r7, sp, #0
 3095              		.cfi_def_cfa_register 7
1358:Core/Src/main.c ****   BME280_sensor.device_config.bme280_filter = BME280_FILTER_2;
 3096              		.loc 1 1358 45
 3097 0004 084B     		ldr	r3, .L137
 3098 0006 0122     		movs	r2, #1
 3099 0008 1A71     		strb	r2, [r3, #4]
1359:Core/Src/main.c ****   BME280_sensor.device_config.bme280_mode = BME280_MODE_NORMAL;
ARM GAS  C:\Users\Halil\AppData\Local\Temp\cce2uIVz.s 			page 79


 3100              		.loc 1 1359 43
 3101 000a 074B     		ldr	r3, .L137
 3102 000c 0322     		movs	r2, #3
 3103 000e 5A71     		strb	r2, [r3, #5]
1360:Core/Src/main.c ****   BME280_sensor.device_config.bme280_output_speed = BME280_OS_4;
 3104              		.loc 1 1360 51
 3105 0010 054B     		ldr	r3, .L137
 3106 0012 0322     		movs	r2, #3
 3107 0014 9A71     		strb	r2, [r3, #6]
1361:Core/Src/main.c ****   BME280_sensor.device_config.bme280_standby_time = BME280_STBY_125;
 3108              		.loc 1 1361 51
 3109 0016 044B     		ldr	r3, .L137
 3110 0018 0222     		movs	r2, #2
 3111 001a DA71     		strb	r2, [r3, #7]
1362:Core/Src/main.c ****   bme280_init(&BME280_sensor, &hi2c3);
 3112              		.loc 1 1362 3
 3113 001c 0349     		ldr	r1, .L137+4
 3114 001e 0248     		ldr	r0, .L137
 3115 0020 FFF7FEFF 		bl	bme280_init
1363:Core/Src/main.c **** }
 3116              		.loc 1 1363 1
 3117 0024 00BF     		nop
 3118 0026 80BD     		pop	{r7, pc}
 3119              	.L138:
 3120              		.align	2
 3121              	.L137:
 3122 0028 00000000 		.word	BME280_sensor
 3123 002c 00000000 		.word	hi2c3
 3124              		.cfi_endproc
 3125              	.LFE274:
 3127              		.section	.text.read_ADC,"ax",%progbits
 3128              		.align	1
 3129              		.global	read_ADC
 3130              		.syntax unified
 3131              		.thumb
 3132              		.thumb_func
 3134              	read_ADC:
 3135              	.LFB275:
1364:Core/Src/main.c **** 
1365:Core/Src/main.c **** /**
1366:Core/Src/main.c ****  * @brief Read HMC1021 magnetometer ADC values
1367:Core/Src/main.c ****  * @note Converts ADC readings to magnetic field strength, voltage and current
1368:Core/Src/main.c ****  */
1369:Core/Src/main.c **** void read_ADC()
1370:Core/Src/main.c **** {
 3136              		.loc 1 1370 1
 3137              		.cfi_startproc
 3138              		@ args = 0, pretend = 0, frame = 0
 3139              		@ frame_needed = 1, uses_anonymous_args = 0
 3140 0000 80B5     		push	{r7, lr}
 3141              		.cfi_def_cfa_offset 8
 3142              		.cfi_offset 7, -8
 3143              		.cfi_offset 14, -4
 3144 0002 00AF     		add	r7, sp, #0
 3145              		.cfi_def_cfa_register 7
1371:Core/Src/main.c ****     static uint16_t adc1_raw = 0;  // ADC1 value (Channel 9 - Magnetometer)
1372:Core/Src/main.c ****     static uint16_t adc2_raw = 0;  // ADC2 value (Channel 10 - Voltage)
ARM GAS  C:\Users\Halil\AppData\Local\Temp\cce2uIVz.s 			page 80


1373:Core/Src/main.c ****     static uint16_t adc3_raw = 0;  // ADC3 value (Channel 11 - Current)
1374:Core/Src/main.c **** 
1375:Core/Src/main.c ****     // Read ADC1 (Magnetometer)
1376:Core/Src/main.c ****     HAL_ADC_Start(&hadc1);
 3146              		.loc 1 1376 5
 3147 0004 4948     		ldr	r0, .L151
 3148 0006 FFF7FEFF 		bl	HAL_ADC_Start
1377:Core/Src/main.c ****     if (HAL_ADC_PollForConversion(&hadc1, 5) == HAL_OK) {
 3149              		.loc 1 1377 9
 3150 000a 0521     		movs	r1, #5
 3151 000c 4748     		ldr	r0, .L151
 3152 000e FFF7FEFF 		bl	HAL_ADC_PollForConversion
 3153 0012 0346     		mov	r3, r0
 3154              		.loc 1 1377 8
 3155 0014 002B     		cmp	r3, #0
 3156 0016 06D1     		bne	.L140
1378:Core/Src/main.c ****         adc1_raw = HAL_ADC_GetValue(&hadc1);
 3157              		.loc 1 1378 20
 3158 0018 4448     		ldr	r0, .L151
 3159 001a FFF7FEFF 		bl	HAL_ADC_GetValue
 3160 001e 0346     		mov	r3, r0
 3161              		.loc 1 1378 18
 3162 0020 9AB2     		uxth	r2, r3
 3163 0022 434B     		ldr	r3, .L151+4
 3164 0024 1A80     		strh	r2, [r3]	@ movhi
 3165              	.L140:
1379:Core/Src/main.c ****     }
1380:Core/Src/main.c ****     HAL_ADC_Stop(&hadc1);
 3166              		.loc 1 1380 5
 3167 0026 4148     		ldr	r0, .L151
 3168 0028 FFF7FEFF 		bl	HAL_ADC_Stop
1381:Core/Src/main.c **** 
1382:Core/Src/main.c ****     // Read ADC2 (Voltage)
1383:Core/Src/main.c ****     HAL_ADC_Start(&hadc2);
 3169              		.loc 1 1383 5
 3170 002c 4148     		ldr	r0, .L151+8
 3171 002e FFF7FEFF 		bl	HAL_ADC_Start
1384:Core/Src/main.c ****     if (HAL_ADC_PollForConversion(&hadc2, 5) == HAL_OK) {
 3172              		.loc 1 1384 9
 3173 0032 0521     		movs	r1, #5
 3174 0034 3F48     		ldr	r0, .L151+8
 3175 0036 FFF7FEFF 		bl	HAL_ADC_PollForConversion
 3176 003a 0346     		mov	r3, r0
 3177              		.loc 1 1384 8
 3178 003c 002B     		cmp	r3, #0
 3179 003e 06D1     		bne	.L141
1385:Core/Src/main.c ****         adc2_raw = HAL_ADC_GetValue(&hadc2);
 3180              		.loc 1 1385 20
 3181 0040 3C48     		ldr	r0, .L151+8
 3182 0042 FFF7FEFF 		bl	HAL_ADC_GetValue
 3183 0046 0346     		mov	r3, r0
 3184              		.loc 1 1385 18
 3185 0048 9AB2     		uxth	r2, r3
 3186 004a 3B4B     		ldr	r3, .L151+12
 3187 004c 1A80     		strh	r2, [r3]	@ movhi
 3188              	.L141:
1386:Core/Src/main.c ****     }
ARM GAS  C:\Users\Halil\AppData\Local\Temp\cce2uIVz.s 			page 81


1387:Core/Src/main.c ****     HAL_ADC_Stop(&hadc2);
 3189              		.loc 1 1387 5
 3190 004e 3948     		ldr	r0, .L151+8
 3191 0050 FFF7FEFF 		bl	HAL_ADC_Stop
1388:Core/Src/main.c **** 
1389:Core/Src/main.c ****     // Read ADC3 (Current)
1390:Core/Src/main.c ****     HAL_ADC_Start(&hadc3);
 3192              		.loc 1 1390 5
 3193 0054 3948     		ldr	r0, .L151+16
 3194 0056 FFF7FEFF 		bl	HAL_ADC_Start
1391:Core/Src/main.c ****     if (HAL_ADC_PollForConversion(&hadc3, 5) == HAL_OK) {
 3195              		.loc 1 1391 9
 3196 005a 0521     		movs	r1, #5
 3197 005c 3748     		ldr	r0, .L151+16
 3198 005e FFF7FEFF 		bl	HAL_ADC_PollForConversion
 3199 0062 0346     		mov	r3, r0
 3200              		.loc 1 1391 8
 3201 0064 002B     		cmp	r3, #0
 3202 0066 06D1     		bne	.L142
1392:Core/Src/main.c ****         adc3_raw = HAL_ADC_GetValue(&hadc3);
 3203              		.loc 1 1392 20
 3204 0068 3448     		ldr	r0, .L151+16
 3205 006a FFF7FEFF 		bl	HAL_ADC_GetValue
 3206 006e 0346     		mov	r3, r0
 3207              		.loc 1 1392 18
 3208 0070 9AB2     		uxth	r2, r3
 3209 0072 334B     		ldr	r3, .L151+20
 3210 0074 1A80     		strh	r2, [r3]	@ movhi
 3211              	.L142:
1393:Core/Src/main.c ****     }
1394:Core/Src/main.c ****     HAL_ADC_Stop(&hadc3);
 3212              		.loc 1 1394 5
 3213 0076 3148     		ldr	r0, .L151+16
 3214 0078 FFF7FEFF 		bl	HAL_ADC_Stop
1395:Core/Src/main.c **** 
1396:Core/Src/main.c ****     // Calculate calibrated values
1397:Core/Src/main.c ****     hmc1021_voltage = (adc1_raw * 3.3f) / 4096.0f;  // 3.3V reference, 12-bit ADC
 3215              		.loc 1 1397 33
 3216 007c 2C4B     		ldr	r3, .L151+4
 3217 007e 1B88     		ldrh	r3, [r3]
 3218 0080 07EE903A 		vmov	s15, r3	@ int
 3219 0084 F8EEE77A 		vcvt.f32.s32	s15, s15
 3220 0088 9FED2E7A 		vldr.32	s14, .L151+24
 3221 008c 27EE877A 		vmul.f32	s14, s15, s14
 3222              		.loc 1 1397 41
 3223 0090 DFED2D6A 		vldr.32	s13, .L151+28
 3224 0094 C7EE267A 		vdiv.f32	s15, s14, s13
 3225              		.loc 1 1397 21
 3226 0098 2C4B     		ldr	r3, .L151+32
 3227 009a C3ED007A 		vstr.32	s15, [r3]
1398:Core/Src/main.c ****     voltage_V = (adc2_raw * 13.2f) / 4096.0f;        // Voltage divider calculation
 3228              		.loc 1 1398 27
 3229 009e 264B     		ldr	r3, .L151+12
 3230 00a0 1B88     		ldrh	r3, [r3]
 3231 00a2 07EE903A 		vmov	s15, r3	@ int
 3232 00a6 F8EEE77A 		vcvt.f32.s32	s15, s15
 3233 00aa 9FED297A 		vldr.32	s14, .L151+36
ARM GAS  C:\Users\Halil\AppData\Local\Temp\cce2uIVz.s 			page 82


 3234 00ae 27EE877A 		vmul.f32	s14, s15, s14
 3235              		.loc 1 1398 36
 3236 00b2 DFED256A 		vldr.32	s13, .L151+28
 3237 00b6 C7EE267A 		vdiv.f32	s15, s14, s13
 3238              		.loc 1 1398 15
 3239 00ba 264B     		ldr	r3, .L151+40
 3240 00bc C3ED007A 		vstr.32	s15, [r3]
1399:Core/Src/main.c ****     current_mA = (adc3_raw * CRNT_COEF);             // Current sensor calibration
 3241              		.loc 1 1399 28
 3242 00c0 1F4B     		ldr	r3, .L151+20
 3243 00c2 1B88     		ldrh	r3, [r3]
 3244 00c4 07EE903A 		vmov	s15, r3	@ int
 3245 00c8 F8EEE77A 		vcvt.f32.s32	s15, s15
 3246 00cc 9FED227A 		vldr.32	s14, .L151+44
 3247 00d0 67EE877A 		vmul.f32	s15, s15, s14
 3248              		.loc 1 1399 16
 3249 00d4 214B     		ldr	r3, .L151+48
 3250 00d6 C3ED007A 		vstr.32	s15, [r3]
1400:Core/Src/main.c ****     hmc1021_gauss = (hmc1021_voltage - 1.65f) / 1.0f; // 1V/Gauss sensitivity
 3251              		.loc 1 1400 47
 3252 00da 1C4B     		ldr	r3, .L151+32
 3253 00dc D3ED007A 		vldr.32	s15, [r3]
 3254 00e0 9FED1F7A 		vldr.32	s14, .L151+52
 3255 00e4 77EEC77A 		vsub.f32	s15, s15, s14
 3256              		.loc 1 1400 19
 3257 00e8 1E4B     		ldr	r3, .L151+56
 3258 00ea C3ED007A 		vstr.32	s15, [r3]
1401:Core/Src/main.c **** 
1402:Core/Src/main.c ****     // LoRa power management based on battery voltage
1403:Core/Src/main.c ****     if(voltage_V < 7.0){
 3259              		.loc 1 1403 18
 3260 00ee 194B     		ldr	r3, .L151+40
 3261 00f0 D3ED007A 		vldr.32	s15, [r3]
 3262              		.loc 1 1403 7
 3263 00f4 B1EE0C7A 		vmov.f32	s14, #7.0e+0
 3264 00f8 F4EEC77A 		vcmpe.f32	s15, s14
 3265 00fc F1EE10FA 		vmrs	APSR_nzcv, FPSCR
 3266 0100 03D5     		bpl	.L149
1404:Core/Src/main.c ****         e22_sleep_mode(&lora_1);
 3267              		.loc 1 1404 9
 3268 0102 1948     		ldr	r0, .L151+60
 3269 0104 FFF7FEFF 		bl	e22_sleep_mode
1405:Core/Src/main.c ****     }else if(voltage_V >= 7.0){
1406:Core/Src/main.c ****         e22_transmit_mode(&lora_1);
1407:Core/Src/main.c ****     }
1408:Core/Src/main.c **** }
 3270              		.loc 1 1408 1
 3271 0108 0DE0     		b	.L150
 3272              	.L149:
1405:Core/Src/main.c ****     }else if(voltage_V >= 7.0){
 3273              		.loc 1 1405 24
 3274 010a 124B     		ldr	r3, .L151+40
 3275 010c D3ED007A 		vldr.32	s15, [r3]
1405:Core/Src/main.c ****     }else if(voltage_V >= 7.0){
 3276              		.loc 1 1405 13
 3277 0110 B1EE0C7A 		vmov.f32	s14, #7.0e+0
 3278 0114 F4EEC77A 		vcmpe.f32	s15, s14
ARM GAS  C:\Users\Halil\AppData\Local\Temp\cce2uIVz.s 			page 83


 3279 0118 F1EE10FA 		vmrs	APSR_nzcv, FPSCR
 3280 011c 00DA     		bge	.L148
 3281              		.loc 1 1408 1
 3282 011e 02E0     		b	.L150
 3283              	.L148:
1406:Core/Src/main.c ****     }
 3284              		.loc 1 1406 9
 3285 0120 1148     		ldr	r0, .L151+60
 3286 0122 FFF7FEFF 		bl	e22_transmit_mode
 3287              	.L150:
 3288              		.loc 1 1408 1
 3289 0126 00BF     		nop
 3290 0128 80BD     		pop	{r7, pc}
 3291              	.L152:
 3292 012a 00BF     		.align	2
 3293              	.L151:
 3294 012c 00000000 		.word	hadc1
 3295 0130 00000000 		.word	adc1_raw.2
 3296 0134 00000000 		.word	hadc2
 3297 0138 00000000 		.word	adc2_raw.1
 3298 013c 00000000 		.word	hadc3
 3299 0140 00000000 		.word	adc3_raw.0
 3300 0144 33335340 		.word	1079194419
 3301 0148 00008045 		.word	1166016512
 3302 014c 00000000 		.word	hmc1021_voltage
 3303 0150 33335341 		.word	1095971635
 3304 0154 00000000 		.word	voltage_V
 3305 0158 3433533A 		.word	978531124
 3306 015c 00000000 		.word	current_mA
 3307 0160 3333D33F 		.word	1070805811
 3308 0164 00000000 		.word	hmc1021_gauss
 3309 0168 00000000 		.word	lora_1
 3310              		.cfi_endproc
 3311              	.LFE275:
 3313              		.section	.text.lora_send_packet_dma,"ax",%progbits
 3314              		.align	1
 3315              		.global	lora_send_packet_dma
 3316              		.syntax unified
 3317              		.thumb
 3318              		.thumb_func
 3320              	lora_send_packet_dma:
 3321              	.LFB276:
1409:Core/Src/main.c **** 
1410:Core/Src/main.c **** 
1411:Core/Src/main.c **** /**
1412:Core/Src/main.c ****  * @brief Send packet with LORA using DMA
1413:Core/Src/main.c ****  * @param data Pointer to data buffer
1414:Core/Src/main.c ****  * @param size Size of data to send
1415:Core/Src/main.c ****  * @note Non-blocking transmission using DMA
1416:Core/Src/main.c ****  */
1417:Core/Src/main.c **** void lora_send_packet_dma(uint8_t *data, uint16_t size)
1418:Core/Src/main.c **** {
 3322              		.loc 1 1418 1
 3323              		.cfi_startproc
 3324              		@ args = 0, pretend = 0, frame = 8
 3325              		@ frame_needed = 1, uses_anonymous_args = 0
 3326 0000 80B5     		push	{r7, lr}
ARM GAS  C:\Users\Halil\AppData\Local\Temp\cce2uIVz.s 			page 84


 3327              		.cfi_def_cfa_offset 8
 3328              		.cfi_offset 7, -8
 3329              		.cfi_offset 14, -4
 3330 0002 82B0     		sub	sp, sp, #8
 3331              		.cfi_def_cfa_offset 16
 3332 0004 00AF     		add	r7, sp, #0
 3333              		.cfi_def_cfa_register 7
 3334 0006 7860     		str	r0, [r7, #4]
 3335 0008 0B46     		mov	r3, r1
 3336 000a 7B80     		strh	r3, [r7, #2]	@ movhi
1419:Core/Src/main.c **** 	if (!usart4_tx_busy) {
 3337              		.loc 1 1419 6
 3338 000c 084B     		ldr	r3, .L156
 3339 000e 1B78     		ldrb	r3, [r3]
 3340 0010 DBB2     		uxtb	r3, r3
 3341              		.loc 1 1419 5
 3342 0012 002B     		cmp	r3, #0
 3343 0014 08D1     		bne	.L155
1420:Core/Src/main.c **** 		usart4_tx_busy = 1;
 3344              		.loc 1 1420 18
 3345 0016 064B     		ldr	r3, .L156
 3346 0018 0122     		movs	r2, #1
 3347 001a 1A70     		strb	r2, [r3]
1421:Core/Src/main.c **** 		HAL_UART_Transmit_DMA(&huart4, data, size);
 3348              		.loc 1 1421 3
 3349 001c 7B88     		ldrh	r3, [r7, #2]
 3350 001e 1A46     		mov	r2, r3
 3351 0020 7968     		ldr	r1, [r7, #4]
 3352 0022 0448     		ldr	r0, .L156+4
 3353 0024 FFF7FEFF 		bl	HAL_UART_Transmit_DMA
 3354              	.L155:
1422:Core/Src/main.c **** 	}
1423:Core/Src/main.c **** }
 3355              		.loc 1 1423 1
 3356 0028 00BF     		nop
 3357 002a 0837     		adds	r7, r7, #8
 3358              		.cfi_def_cfa_offset 8
 3359 002c BD46     		mov	sp, r7
 3360              		.cfi_def_cfa_register 13
 3361              		@ sp needed
 3362 002e 80BD     		pop	{r7, pc}
 3363              	.L157:
 3364              		.align	2
 3365              	.L156:
 3366 0030 00000000 		.word	usart4_tx_busy
 3367 0034 00000000 		.word	huart4
 3368              		.cfi_endproc
 3369              	.LFE276:
 3371              		.section	.text.StartDefaultTask,"ax",%progbits
 3372              		.align	1
 3373              		.global	StartDefaultTask
 3374              		.syntax unified
 3375              		.thumb
 3376              		.thumb_func
 3378              	StartDefaultTask:
 3379              	.LFB277:
1424:Core/Src/main.c **** 
ARM GAS  C:\Users\Halil\AppData\Local\Temp\cce2uIVz.s 			page 85


1425:Core/Src/main.c **** /* USER CODE END 4 */
1426:Core/Src/main.c **** 
1427:Core/Src/main.c **** /* USER CODE BEGIN Header_StartDefaultTask */
1428:Core/Src/main.c **** /**
1429:Core/Src/main.c ****   * @brief  Function implementing the BMI088 sensor update task.
1430:Core/Src/main.c ****   * @param  argument: Not used
1431:Core/Src/main.c ****   * @retval None
1432:Core/Src/main.c ****   */
1433:Core/Src/main.c **** /* USER CODE END Header_StartDefaultTask */
1434:Core/Src/main.c **** void StartDefaultTask(void *argument)
1435:Core/Src/main.c **** {
 3380              		.loc 1 1435 1
 3381              		.cfi_startproc
 3382              		@ args = 0, pretend = 0, frame = 8
 3383              		@ frame_needed = 1, uses_anonymous_args = 0
 3384 0000 80B5     		push	{r7, lr}
 3385              		.cfi_def_cfa_offset 8
 3386              		.cfi_offset 7, -8
 3387              		.cfi_offset 14, -4
 3388 0002 82B0     		sub	sp, sp, #8
 3389              		.cfi_def_cfa_offset 16
 3390 0004 00AF     		add	r7, sp, #0
 3391              		.cfi_def_cfa_register 7
 3392 0006 7860     		str	r0, [r7, #4]
1436:Core/Src/main.c ****   /* USER CODE BEGIN 5 */
1437:Core/Src/main.c ****   /* Start SEGGER SystemView once at the beginning */
1438:Core/Src/main.c ****   SEGGER_SYSVIEW_Start();
 3393              		.loc 1 1438 3
 3394 0008 FFF7FEFF 		bl	SEGGER_SYSVIEW_Start
 3395              	.L159:
1439:Core/Src/main.c **** 
1440:Core/Src/main.c ****   /* Infinite loop */
1441:Core/Src/main.c ****   for(;;)
1442:Core/Src/main.c ****   {
1443:Core/Src/main.c ****     osDelay(100); // 100ms delay - reduced frequency for lighter task
 3396              		.loc 1 1443 5 discriminator 1
 3397 000c 6420     		movs	r0, #100
 3398 000e FFF7FEFF 		bl	osDelay
 3399 0012 FBE7     		b	.L159
 3400              		.cfi_endproc
 3401              	.LFE277:
 3403              		.section	.text.HAL_TIM_PeriodElapsedCallback,"ax",%progbits
 3404              		.align	1
 3405              		.global	HAL_TIM_PeriodElapsedCallback
 3406              		.syntax unified
 3407              		.thumb
 3408              		.thumb_func
 3410              	HAL_TIM_PeriodElapsedCallback:
 3411              	.LFB278:
1444:Core/Src/main.c ****   }
1445:Core/Src/main.c ****   /* USER CODE END 5 */
1446:Core/Src/main.c **** }
1447:Core/Src/main.c **** 
1448:Core/Src/main.c **** /**
1449:Core/Src/main.c ****   * @brief  Period elapsed callback in non blocking mode
1450:Core/Src/main.c ****   * @note   This function is called  when TIM6 interrupt took place, inside
1451:Core/Src/main.c ****   * HAL_TIM_IRQHandler(). It makes a direct call to HAL_IncTick() to increment
ARM GAS  C:\Users\Halil\AppData\Local\Temp\cce2uIVz.s 			page 86


1452:Core/Src/main.c ****   * a global variable "uwTick" used as application time base.
1453:Core/Src/main.c ****   * @param  htim : TIM handle
1454:Core/Src/main.c ****   * @retval None
1455:Core/Src/main.c ****   */
1456:Core/Src/main.c **** void HAL_TIM_PeriodElapsedCallback(TIM_HandleTypeDef *htim)
1457:Core/Src/main.c **** {
 3412              		.loc 1 1457 1
 3413              		.cfi_startproc
 3414              		@ args = 0, pretend = 0, frame = 8
 3415              		@ frame_needed = 1, uses_anonymous_args = 0
 3416 0000 80B5     		push	{r7, lr}
 3417              		.cfi_def_cfa_offset 8
 3418              		.cfi_offset 7, -8
 3419              		.cfi_offset 14, -4
 3420 0002 82B0     		sub	sp, sp, #8
 3421              		.cfi_def_cfa_offset 16
 3422 0004 00AF     		add	r7, sp, #0
 3423              		.cfi_def_cfa_register 7
 3424 0006 7860     		str	r0, [r7, #4]
1458:Core/Src/main.c ****   /* USER CODE BEGIN Callback 0 */
1459:Core/Src/main.c **** 
1460:Core/Src/main.c ****   /* USER CODE END Callback 0 */
1461:Core/Src/main.c ****   if (htim->Instance == TIM6)
 3425              		.loc 1 1461 11
 3426 0008 7B68     		ldr	r3, [r7, #4]
 3427 000a 1B68     		ldr	r3, [r3]
 3428              		.loc 1 1461 6
 3429 000c 044A     		ldr	r2, .L163
 3430 000e 9342     		cmp	r3, r2
 3431 0010 01D1     		bne	.L162
1462:Core/Src/main.c ****   {
1463:Core/Src/main.c ****     HAL_IncTick();
 3432              		.loc 1 1463 5
 3433 0012 FFF7FEFF 		bl	HAL_IncTick
 3434              	.L162:
1464:Core/Src/main.c ****   }
1465:Core/Src/main.c ****   /* USER CODE BEGIN Callback 1 */
1466:Core/Src/main.c **** 
1467:Core/Src/main.c ****   /* USER CODE END Callback 1 */
1468:Core/Src/main.c **** }
 3435              		.loc 1 1468 1
 3436 0016 00BF     		nop
 3437 0018 0837     		adds	r7, r7, #8
 3438              		.cfi_def_cfa_offset 8
 3439 001a BD46     		mov	sp, r7
 3440              		.cfi_def_cfa_register 13
 3441              		@ sp needed
 3442 001c 80BD     		pop	{r7, pc}
 3443              	.L164:
 3444 001e 00BF     		.align	2
 3445              	.L163:
 3446 0020 00100040 		.word	1073745920
 3447              		.cfi_endproc
 3448              	.LFE278:
 3450              		.section	.text.Error_Handler,"ax",%progbits
 3451              		.align	1
 3452              		.global	Error_Handler
ARM GAS  C:\Users\Halil\AppData\Local\Temp\cce2uIVz.s 			page 87


 3453              		.syntax unified
 3454              		.thumb
 3455              		.thumb_func
 3457              	Error_Handler:
 3458              	.LFB279:
1469:Core/Src/main.c **** 
1470:Core/Src/main.c **** /**
1471:Core/Src/main.c ****   * @brief  This function is executed in case of error occurrence.
1472:Core/Src/main.c ****   * @retval None
1473:Core/Src/main.c ****   */
1474:Core/Src/main.c **** void Error_Handler(void)
1475:Core/Src/main.c **** {
 3459              		.loc 1 1475 1
 3460              		.cfi_startproc
 3461              		@ args = 0, pretend = 0, frame = 0
 3462              		@ frame_needed = 1, uses_anonymous_args = 0
 3463              		@ link register save eliminated.
 3464 0000 80B4     		push	{r7}
 3465              		.cfi_def_cfa_offset 4
 3466              		.cfi_offset 7, -4
 3467 0002 00AF     		add	r7, sp, #0
 3468              		.cfi_def_cfa_register 7
 3469              	.LBB12:
 3470              	.LBB13:
 3471              		.file 2 "Drivers/CMSIS/Include/cmsis_gcc.h"
   1:Drivers/CMSIS/Include/cmsis_gcc.h **** /**************************************************************************//**
   2:Drivers/CMSIS/Include/cmsis_gcc.h ****  * @file     cmsis_gcc.h
   3:Drivers/CMSIS/Include/cmsis_gcc.h ****  * @brief    CMSIS compiler GCC header file
   4:Drivers/CMSIS/Include/cmsis_gcc.h ****  * @version  V5.4.1
   5:Drivers/CMSIS/Include/cmsis_gcc.h ****  * @date     27. May 2021
   6:Drivers/CMSIS/Include/cmsis_gcc.h ****  ******************************************************************************/
   7:Drivers/CMSIS/Include/cmsis_gcc.h **** /*
   8:Drivers/CMSIS/Include/cmsis_gcc.h ****  * Copyright (c) 2009-2021 Arm Limited. All rights reserved.
   9:Drivers/CMSIS/Include/cmsis_gcc.h ****  *
  10:Drivers/CMSIS/Include/cmsis_gcc.h ****  * SPDX-License-Identifier: Apache-2.0
  11:Drivers/CMSIS/Include/cmsis_gcc.h ****  *
  12:Drivers/CMSIS/Include/cmsis_gcc.h ****  * Licensed under the Apache License, Version 2.0 (the License); you may
  13:Drivers/CMSIS/Include/cmsis_gcc.h ****  * not use this file except in compliance with the License.
  14:Drivers/CMSIS/Include/cmsis_gcc.h ****  * You may obtain a copy of the License at
  15:Drivers/CMSIS/Include/cmsis_gcc.h ****  *
  16:Drivers/CMSIS/Include/cmsis_gcc.h ****  * www.apache.org/licenses/LICENSE-2.0
  17:Drivers/CMSIS/Include/cmsis_gcc.h ****  *
  18:Drivers/CMSIS/Include/cmsis_gcc.h ****  * Unless required by applicable law or agreed to in writing, software
  19:Drivers/CMSIS/Include/cmsis_gcc.h ****  * distributed under the License is distributed on an AS IS BASIS, WITHOUT
  20:Drivers/CMSIS/Include/cmsis_gcc.h ****  * WARRANTIES OR CONDITIONS OF ANY KIND, either express or implied.
  21:Drivers/CMSIS/Include/cmsis_gcc.h ****  * See the License for the specific language governing permissions and
  22:Drivers/CMSIS/Include/cmsis_gcc.h ****  * limitations under the License.
  23:Drivers/CMSIS/Include/cmsis_gcc.h ****  */
  24:Drivers/CMSIS/Include/cmsis_gcc.h **** 
  25:Drivers/CMSIS/Include/cmsis_gcc.h **** #ifndef __CMSIS_GCC_H
  26:Drivers/CMSIS/Include/cmsis_gcc.h **** #define __CMSIS_GCC_H
  27:Drivers/CMSIS/Include/cmsis_gcc.h **** 
  28:Drivers/CMSIS/Include/cmsis_gcc.h **** /* ignore some GCC warnings */
  29:Drivers/CMSIS/Include/cmsis_gcc.h **** #pragma GCC diagnostic push
  30:Drivers/CMSIS/Include/cmsis_gcc.h **** #pragma GCC diagnostic ignored "-Wsign-conversion"
  31:Drivers/CMSIS/Include/cmsis_gcc.h **** #pragma GCC diagnostic ignored "-Wconversion"
  32:Drivers/CMSIS/Include/cmsis_gcc.h **** #pragma GCC diagnostic ignored "-Wunused-parameter"
ARM GAS  C:\Users\Halil\AppData\Local\Temp\cce2uIVz.s 			page 88


  33:Drivers/CMSIS/Include/cmsis_gcc.h **** 
  34:Drivers/CMSIS/Include/cmsis_gcc.h **** /* Fallback for __has_builtin */
  35:Drivers/CMSIS/Include/cmsis_gcc.h **** #ifndef __has_builtin
  36:Drivers/CMSIS/Include/cmsis_gcc.h ****   #define __has_builtin(x) (0)
  37:Drivers/CMSIS/Include/cmsis_gcc.h **** #endif
  38:Drivers/CMSIS/Include/cmsis_gcc.h **** 
  39:Drivers/CMSIS/Include/cmsis_gcc.h **** /* CMSIS compiler specific defines */
  40:Drivers/CMSIS/Include/cmsis_gcc.h **** #ifndef   __ASM
  41:Drivers/CMSIS/Include/cmsis_gcc.h ****   #define __ASM                                  __asm
  42:Drivers/CMSIS/Include/cmsis_gcc.h **** #endif
  43:Drivers/CMSIS/Include/cmsis_gcc.h **** #ifndef   __INLINE
  44:Drivers/CMSIS/Include/cmsis_gcc.h ****   #define __INLINE                               inline
  45:Drivers/CMSIS/Include/cmsis_gcc.h **** #endif
  46:Drivers/CMSIS/Include/cmsis_gcc.h **** #ifndef   __STATIC_INLINE
  47:Drivers/CMSIS/Include/cmsis_gcc.h ****   #define __STATIC_INLINE                        static inline
  48:Drivers/CMSIS/Include/cmsis_gcc.h **** #endif
  49:Drivers/CMSIS/Include/cmsis_gcc.h **** #ifndef   __STATIC_FORCEINLINE
  50:Drivers/CMSIS/Include/cmsis_gcc.h ****   #define __STATIC_FORCEINLINE                   __attribute__((always_inline)) static inline
  51:Drivers/CMSIS/Include/cmsis_gcc.h **** #endif
  52:Drivers/CMSIS/Include/cmsis_gcc.h **** #ifndef   __NO_RETURN
  53:Drivers/CMSIS/Include/cmsis_gcc.h ****   #define __NO_RETURN                            __attribute__((__noreturn__))
  54:Drivers/CMSIS/Include/cmsis_gcc.h **** #endif
  55:Drivers/CMSIS/Include/cmsis_gcc.h **** #ifndef   __USED
  56:Drivers/CMSIS/Include/cmsis_gcc.h ****   #define __USED                                 __attribute__((used))
  57:Drivers/CMSIS/Include/cmsis_gcc.h **** #endif
  58:Drivers/CMSIS/Include/cmsis_gcc.h **** #ifndef   __WEAK
  59:Drivers/CMSIS/Include/cmsis_gcc.h ****   #define __WEAK                                 __attribute__((weak))
  60:Drivers/CMSIS/Include/cmsis_gcc.h **** #endif
  61:Drivers/CMSIS/Include/cmsis_gcc.h **** #ifndef   __PACKED
  62:Drivers/CMSIS/Include/cmsis_gcc.h ****   #define __PACKED                               __attribute__((packed, aligned(1)))
  63:Drivers/CMSIS/Include/cmsis_gcc.h **** #endif
  64:Drivers/CMSIS/Include/cmsis_gcc.h **** #ifndef   __PACKED_STRUCT
  65:Drivers/CMSIS/Include/cmsis_gcc.h ****   #define __PACKED_STRUCT                        struct __attribute__((packed, aligned(1)))
  66:Drivers/CMSIS/Include/cmsis_gcc.h **** #endif
  67:Drivers/CMSIS/Include/cmsis_gcc.h **** #ifndef   __PACKED_UNION
  68:Drivers/CMSIS/Include/cmsis_gcc.h ****   #define __PACKED_UNION                         union __attribute__((packed, aligned(1)))
  69:Drivers/CMSIS/Include/cmsis_gcc.h **** #endif
  70:Drivers/CMSIS/Include/cmsis_gcc.h **** #ifndef   __UNALIGNED_UINT32        /* deprecated */
  71:Drivers/CMSIS/Include/cmsis_gcc.h ****   #pragma GCC diagnostic push
  72:Drivers/CMSIS/Include/cmsis_gcc.h ****   #pragma GCC diagnostic ignored "-Wpacked"
  73:Drivers/CMSIS/Include/cmsis_gcc.h ****   #pragma GCC diagnostic ignored "-Wattributes"
  74:Drivers/CMSIS/Include/cmsis_gcc.h ****   struct __attribute__((packed)) T_UINT32 { uint32_t v; };
  75:Drivers/CMSIS/Include/cmsis_gcc.h ****   #pragma GCC diagnostic pop
  76:Drivers/CMSIS/Include/cmsis_gcc.h ****   #define __UNALIGNED_UINT32(x)                  (((struct T_UINT32 *)(x))->v)
  77:Drivers/CMSIS/Include/cmsis_gcc.h **** #endif
  78:Drivers/CMSIS/Include/cmsis_gcc.h **** #ifndef   __UNALIGNED_UINT16_WRITE
  79:Drivers/CMSIS/Include/cmsis_gcc.h ****   #pragma GCC diagnostic push
  80:Drivers/CMSIS/Include/cmsis_gcc.h ****   #pragma GCC diagnostic ignored "-Wpacked"
  81:Drivers/CMSIS/Include/cmsis_gcc.h ****   #pragma GCC diagnostic ignored "-Wattributes"
  82:Drivers/CMSIS/Include/cmsis_gcc.h ****   __PACKED_STRUCT T_UINT16_WRITE { uint16_t v; };
  83:Drivers/CMSIS/Include/cmsis_gcc.h ****   #pragma GCC diagnostic pop
  84:Drivers/CMSIS/Include/cmsis_gcc.h ****   #define __UNALIGNED_UINT16_WRITE(addr, val)    (void)((((struct T_UINT16_WRITE *)(void *)(addr))-
  85:Drivers/CMSIS/Include/cmsis_gcc.h **** #endif
  86:Drivers/CMSIS/Include/cmsis_gcc.h **** #ifndef   __UNALIGNED_UINT16_READ
  87:Drivers/CMSIS/Include/cmsis_gcc.h ****   #pragma GCC diagnostic push
  88:Drivers/CMSIS/Include/cmsis_gcc.h ****   #pragma GCC diagnostic ignored "-Wpacked"
  89:Drivers/CMSIS/Include/cmsis_gcc.h ****   #pragma GCC diagnostic ignored "-Wattributes"
ARM GAS  C:\Users\Halil\AppData\Local\Temp\cce2uIVz.s 			page 89


  90:Drivers/CMSIS/Include/cmsis_gcc.h ****   __PACKED_STRUCT T_UINT16_READ { uint16_t v; };
  91:Drivers/CMSIS/Include/cmsis_gcc.h ****   #pragma GCC diagnostic pop
  92:Drivers/CMSIS/Include/cmsis_gcc.h ****   #define __UNALIGNED_UINT16_READ(addr)          (((const struct T_UINT16_READ *)(const void *)(add
  93:Drivers/CMSIS/Include/cmsis_gcc.h **** #endif
  94:Drivers/CMSIS/Include/cmsis_gcc.h **** #ifndef   __UNALIGNED_UINT32_WRITE
  95:Drivers/CMSIS/Include/cmsis_gcc.h ****   #pragma GCC diagnostic push
  96:Drivers/CMSIS/Include/cmsis_gcc.h ****   #pragma GCC diagnostic ignored "-Wpacked"
  97:Drivers/CMSIS/Include/cmsis_gcc.h ****   #pragma GCC diagnostic ignored "-Wattributes"
  98:Drivers/CMSIS/Include/cmsis_gcc.h ****   __PACKED_STRUCT T_UINT32_WRITE { uint32_t v; };
  99:Drivers/CMSIS/Include/cmsis_gcc.h ****   #pragma GCC diagnostic pop
 100:Drivers/CMSIS/Include/cmsis_gcc.h ****   #define __UNALIGNED_UINT32_WRITE(addr, val)    (void)((((struct T_UINT32_WRITE *)(void *)(addr))-
 101:Drivers/CMSIS/Include/cmsis_gcc.h **** #endif
 102:Drivers/CMSIS/Include/cmsis_gcc.h **** #ifndef   __UNALIGNED_UINT32_READ
 103:Drivers/CMSIS/Include/cmsis_gcc.h ****   #pragma GCC diagnostic push
 104:Drivers/CMSIS/Include/cmsis_gcc.h ****   #pragma GCC diagnostic ignored "-Wpacked"
 105:Drivers/CMSIS/Include/cmsis_gcc.h ****   #pragma GCC diagnostic ignored "-Wattributes"
 106:Drivers/CMSIS/Include/cmsis_gcc.h ****   __PACKED_STRUCT T_UINT32_READ { uint32_t v; };
 107:Drivers/CMSIS/Include/cmsis_gcc.h ****   #pragma GCC diagnostic pop
 108:Drivers/CMSIS/Include/cmsis_gcc.h ****   #define __UNALIGNED_UINT32_READ(addr)          (((const struct T_UINT32_READ *)(const void *)(add
 109:Drivers/CMSIS/Include/cmsis_gcc.h **** #endif
 110:Drivers/CMSIS/Include/cmsis_gcc.h **** #ifndef   __ALIGNED
 111:Drivers/CMSIS/Include/cmsis_gcc.h ****   #define __ALIGNED(x)                           __attribute__((aligned(x)))
 112:Drivers/CMSIS/Include/cmsis_gcc.h **** #endif
 113:Drivers/CMSIS/Include/cmsis_gcc.h **** #ifndef   __RESTRICT
 114:Drivers/CMSIS/Include/cmsis_gcc.h ****   #define __RESTRICT                             __restrict
 115:Drivers/CMSIS/Include/cmsis_gcc.h **** #endif
 116:Drivers/CMSIS/Include/cmsis_gcc.h **** #ifndef   __COMPILER_BARRIER
 117:Drivers/CMSIS/Include/cmsis_gcc.h ****   #define __COMPILER_BARRIER()                   __ASM volatile("":::"memory")
 118:Drivers/CMSIS/Include/cmsis_gcc.h **** #endif
 119:Drivers/CMSIS/Include/cmsis_gcc.h **** 
 120:Drivers/CMSIS/Include/cmsis_gcc.h **** /* #########################  Startup and Lowlevel Init  ######################## */
 121:Drivers/CMSIS/Include/cmsis_gcc.h **** 
 122:Drivers/CMSIS/Include/cmsis_gcc.h **** #ifndef __PROGRAM_START
 123:Drivers/CMSIS/Include/cmsis_gcc.h **** 
 124:Drivers/CMSIS/Include/cmsis_gcc.h **** /**
 125:Drivers/CMSIS/Include/cmsis_gcc.h ****   \brief   Initializes data and bss sections
 126:Drivers/CMSIS/Include/cmsis_gcc.h ****   \details This default implementations initialized all data and additional bss
 127:Drivers/CMSIS/Include/cmsis_gcc.h ****            sections relying on .copy.table and .zero.table specified properly
 128:Drivers/CMSIS/Include/cmsis_gcc.h ****            in the used linker script.
 129:Drivers/CMSIS/Include/cmsis_gcc.h **** 
 130:Drivers/CMSIS/Include/cmsis_gcc.h ****  */
 131:Drivers/CMSIS/Include/cmsis_gcc.h **** __STATIC_FORCEINLINE __NO_RETURN void __cmsis_start(void)
 132:Drivers/CMSIS/Include/cmsis_gcc.h **** {
 133:Drivers/CMSIS/Include/cmsis_gcc.h ****   extern void _start(void) __NO_RETURN;
 134:Drivers/CMSIS/Include/cmsis_gcc.h **** 
 135:Drivers/CMSIS/Include/cmsis_gcc.h ****   typedef struct {
 136:Drivers/CMSIS/Include/cmsis_gcc.h ****     uint32_t const* src;
 137:Drivers/CMSIS/Include/cmsis_gcc.h ****     uint32_t* dest;
 138:Drivers/CMSIS/Include/cmsis_gcc.h ****     uint32_t  wlen;
 139:Drivers/CMSIS/Include/cmsis_gcc.h ****   } __copy_table_t;
 140:Drivers/CMSIS/Include/cmsis_gcc.h **** 
 141:Drivers/CMSIS/Include/cmsis_gcc.h ****   typedef struct {
 142:Drivers/CMSIS/Include/cmsis_gcc.h ****     uint32_t* dest;
 143:Drivers/CMSIS/Include/cmsis_gcc.h ****     uint32_t  wlen;
 144:Drivers/CMSIS/Include/cmsis_gcc.h ****   } __zero_table_t;
 145:Drivers/CMSIS/Include/cmsis_gcc.h **** 
 146:Drivers/CMSIS/Include/cmsis_gcc.h ****   extern const __copy_table_t __copy_table_start__;
ARM GAS  C:\Users\Halil\AppData\Local\Temp\cce2uIVz.s 			page 90


 147:Drivers/CMSIS/Include/cmsis_gcc.h ****   extern const __copy_table_t __copy_table_end__;
 148:Drivers/CMSIS/Include/cmsis_gcc.h ****   extern const __zero_table_t __zero_table_start__;
 149:Drivers/CMSIS/Include/cmsis_gcc.h ****   extern const __zero_table_t __zero_table_end__;
 150:Drivers/CMSIS/Include/cmsis_gcc.h **** 
 151:Drivers/CMSIS/Include/cmsis_gcc.h ****   for (__copy_table_t const* pTable = &__copy_table_start__; pTable < &__copy_table_end__; ++pTable
 152:Drivers/CMSIS/Include/cmsis_gcc.h ****     for(uint32_t i=0u; i<pTable->wlen; ++i) {
 153:Drivers/CMSIS/Include/cmsis_gcc.h ****       pTable->dest[i] = pTable->src[i];
 154:Drivers/CMSIS/Include/cmsis_gcc.h ****     }
 155:Drivers/CMSIS/Include/cmsis_gcc.h ****   }
 156:Drivers/CMSIS/Include/cmsis_gcc.h **** 
 157:Drivers/CMSIS/Include/cmsis_gcc.h ****   for (__zero_table_t const* pTable = &__zero_table_start__; pTable < &__zero_table_end__; ++pTable
 158:Drivers/CMSIS/Include/cmsis_gcc.h ****     for(uint32_t i=0u; i<pTable->wlen; ++i) {
 159:Drivers/CMSIS/Include/cmsis_gcc.h ****       pTable->dest[i] = 0u;
 160:Drivers/CMSIS/Include/cmsis_gcc.h ****     }
 161:Drivers/CMSIS/Include/cmsis_gcc.h ****   }
 162:Drivers/CMSIS/Include/cmsis_gcc.h **** 
 163:Drivers/CMSIS/Include/cmsis_gcc.h ****   _start();
 164:Drivers/CMSIS/Include/cmsis_gcc.h **** }
 165:Drivers/CMSIS/Include/cmsis_gcc.h **** 
 166:Drivers/CMSIS/Include/cmsis_gcc.h **** #define __PROGRAM_START           __cmsis_start
 167:Drivers/CMSIS/Include/cmsis_gcc.h **** #endif
 168:Drivers/CMSIS/Include/cmsis_gcc.h **** 
 169:Drivers/CMSIS/Include/cmsis_gcc.h **** #ifndef __INITIAL_SP
 170:Drivers/CMSIS/Include/cmsis_gcc.h **** #define __INITIAL_SP              __StackTop
 171:Drivers/CMSIS/Include/cmsis_gcc.h **** #endif
 172:Drivers/CMSIS/Include/cmsis_gcc.h **** 
 173:Drivers/CMSIS/Include/cmsis_gcc.h **** #ifndef __STACK_LIMIT
 174:Drivers/CMSIS/Include/cmsis_gcc.h **** #define __STACK_LIMIT             __StackLimit
 175:Drivers/CMSIS/Include/cmsis_gcc.h **** #endif
 176:Drivers/CMSIS/Include/cmsis_gcc.h **** 
 177:Drivers/CMSIS/Include/cmsis_gcc.h **** #ifndef __VECTOR_TABLE
 178:Drivers/CMSIS/Include/cmsis_gcc.h **** #define __VECTOR_TABLE            __Vectors
 179:Drivers/CMSIS/Include/cmsis_gcc.h **** #endif
 180:Drivers/CMSIS/Include/cmsis_gcc.h **** 
 181:Drivers/CMSIS/Include/cmsis_gcc.h **** #ifndef __VECTOR_TABLE_ATTRIBUTE
 182:Drivers/CMSIS/Include/cmsis_gcc.h **** #define __VECTOR_TABLE_ATTRIBUTE  __attribute__((used, section(".vectors")))
 183:Drivers/CMSIS/Include/cmsis_gcc.h **** #endif
 184:Drivers/CMSIS/Include/cmsis_gcc.h **** 
 185:Drivers/CMSIS/Include/cmsis_gcc.h **** #if defined (__ARM_FEATURE_CMSE) && (__ARM_FEATURE_CMSE == 3U)
 186:Drivers/CMSIS/Include/cmsis_gcc.h **** #ifndef __STACK_SEAL
 187:Drivers/CMSIS/Include/cmsis_gcc.h **** #define __STACK_SEAL              __StackSeal
 188:Drivers/CMSIS/Include/cmsis_gcc.h **** #endif
 189:Drivers/CMSIS/Include/cmsis_gcc.h **** 
 190:Drivers/CMSIS/Include/cmsis_gcc.h **** #ifndef __TZ_STACK_SEAL_SIZE
 191:Drivers/CMSIS/Include/cmsis_gcc.h **** #define __TZ_STACK_SEAL_SIZE      8U
 192:Drivers/CMSIS/Include/cmsis_gcc.h **** #endif
 193:Drivers/CMSIS/Include/cmsis_gcc.h **** 
 194:Drivers/CMSIS/Include/cmsis_gcc.h **** #ifndef __TZ_STACK_SEAL_VALUE
 195:Drivers/CMSIS/Include/cmsis_gcc.h **** #define __TZ_STACK_SEAL_VALUE     0xFEF5EDA5FEF5EDA5ULL
 196:Drivers/CMSIS/Include/cmsis_gcc.h **** #endif
 197:Drivers/CMSIS/Include/cmsis_gcc.h **** 
 198:Drivers/CMSIS/Include/cmsis_gcc.h **** 
 199:Drivers/CMSIS/Include/cmsis_gcc.h **** __STATIC_FORCEINLINE void __TZ_set_STACKSEAL_S (uint32_t* stackTop) {
 200:Drivers/CMSIS/Include/cmsis_gcc.h ****   *((uint64_t *)stackTop) = __TZ_STACK_SEAL_VALUE;
 201:Drivers/CMSIS/Include/cmsis_gcc.h **** }
 202:Drivers/CMSIS/Include/cmsis_gcc.h **** #endif
 203:Drivers/CMSIS/Include/cmsis_gcc.h **** 
ARM GAS  C:\Users\Halil\AppData\Local\Temp\cce2uIVz.s 			page 91


 204:Drivers/CMSIS/Include/cmsis_gcc.h **** 
 205:Drivers/CMSIS/Include/cmsis_gcc.h **** /* ##########################  Core Instruction Access  ######################### */
 206:Drivers/CMSIS/Include/cmsis_gcc.h **** /** \defgroup CMSIS_Core_InstructionInterface CMSIS Core Instruction Interface
 207:Drivers/CMSIS/Include/cmsis_gcc.h ****   Access to dedicated instructions
 208:Drivers/CMSIS/Include/cmsis_gcc.h ****   @{
 209:Drivers/CMSIS/Include/cmsis_gcc.h **** */
 210:Drivers/CMSIS/Include/cmsis_gcc.h **** 
 211:Drivers/CMSIS/Include/cmsis_gcc.h **** /* Define macros for porting to both thumb1 and thumb2.
 212:Drivers/CMSIS/Include/cmsis_gcc.h ****  * For thumb1, use low register (r0-r7), specified by constraint "l"
 213:Drivers/CMSIS/Include/cmsis_gcc.h ****  * Otherwise, use general registers, specified by constraint "r" */
 214:Drivers/CMSIS/Include/cmsis_gcc.h **** #if defined (__thumb__) && !defined (__thumb2__)
 215:Drivers/CMSIS/Include/cmsis_gcc.h **** #define __CMSIS_GCC_OUT_REG(r) "=l" (r)
 216:Drivers/CMSIS/Include/cmsis_gcc.h **** #define __CMSIS_GCC_RW_REG(r) "+l" (r)
 217:Drivers/CMSIS/Include/cmsis_gcc.h **** #define __CMSIS_GCC_USE_REG(r) "l" (r)
 218:Drivers/CMSIS/Include/cmsis_gcc.h **** #else
 219:Drivers/CMSIS/Include/cmsis_gcc.h **** #define __CMSIS_GCC_OUT_REG(r) "=r" (r)
 220:Drivers/CMSIS/Include/cmsis_gcc.h **** #define __CMSIS_GCC_RW_REG(r) "+r" (r)
 221:Drivers/CMSIS/Include/cmsis_gcc.h **** #define __CMSIS_GCC_USE_REG(r) "r" (r)
 222:Drivers/CMSIS/Include/cmsis_gcc.h **** #endif
 223:Drivers/CMSIS/Include/cmsis_gcc.h **** 
 224:Drivers/CMSIS/Include/cmsis_gcc.h **** /**
 225:Drivers/CMSIS/Include/cmsis_gcc.h ****   \brief   No Operation
 226:Drivers/CMSIS/Include/cmsis_gcc.h ****   \details No Operation does nothing. This instruction can be used for code alignment purposes.
 227:Drivers/CMSIS/Include/cmsis_gcc.h ****  */
 228:Drivers/CMSIS/Include/cmsis_gcc.h **** #define __NOP()                             __ASM volatile ("nop")
 229:Drivers/CMSIS/Include/cmsis_gcc.h **** 
 230:Drivers/CMSIS/Include/cmsis_gcc.h **** /**
 231:Drivers/CMSIS/Include/cmsis_gcc.h ****   \brief   Wait For Interrupt
 232:Drivers/CMSIS/Include/cmsis_gcc.h ****   \details Wait For Interrupt is a hint instruction that suspends execution until one of a number o
 233:Drivers/CMSIS/Include/cmsis_gcc.h ****  */
 234:Drivers/CMSIS/Include/cmsis_gcc.h **** #define __WFI()                             __ASM volatile ("wfi":::"memory")
 235:Drivers/CMSIS/Include/cmsis_gcc.h **** 
 236:Drivers/CMSIS/Include/cmsis_gcc.h **** 
 237:Drivers/CMSIS/Include/cmsis_gcc.h **** /**
 238:Drivers/CMSIS/Include/cmsis_gcc.h ****   \brief   Wait For Event
 239:Drivers/CMSIS/Include/cmsis_gcc.h ****   \details Wait For Event is a hint instruction that permits the processor to enter
 240:Drivers/CMSIS/Include/cmsis_gcc.h ****            a low-power state until one of a number of events occurs.
 241:Drivers/CMSIS/Include/cmsis_gcc.h ****  */
 242:Drivers/CMSIS/Include/cmsis_gcc.h **** #define __WFE()                             __ASM volatile ("wfe":::"memory")
 243:Drivers/CMSIS/Include/cmsis_gcc.h **** 
 244:Drivers/CMSIS/Include/cmsis_gcc.h **** 
 245:Drivers/CMSIS/Include/cmsis_gcc.h **** /**
 246:Drivers/CMSIS/Include/cmsis_gcc.h ****   \brief   Send Event
 247:Drivers/CMSIS/Include/cmsis_gcc.h ****   \details Send Event is a hint instruction. It causes an event to be signaled to the CPU.
 248:Drivers/CMSIS/Include/cmsis_gcc.h ****  */
 249:Drivers/CMSIS/Include/cmsis_gcc.h **** #define __SEV()                             __ASM volatile ("sev")
 250:Drivers/CMSIS/Include/cmsis_gcc.h **** 
 251:Drivers/CMSIS/Include/cmsis_gcc.h **** 
 252:Drivers/CMSIS/Include/cmsis_gcc.h **** /**
 253:Drivers/CMSIS/Include/cmsis_gcc.h ****   \brief   Instruction Synchronization Barrier
 254:Drivers/CMSIS/Include/cmsis_gcc.h ****   \details Instruction Synchronization Barrier flushes the pipeline in the processor,
 255:Drivers/CMSIS/Include/cmsis_gcc.h ****            so that all instructions following the ISB are fetched from cache or memory,
 256:Drivers/CMSIS/Include/cmsis_gcc.h ****            after the instruction has been completed.
 257:Drivers/CMSIS/Include/cmsis_gcc.h ****  */
 258:Drivers/CMSIS/Include/cmsis_gcc.h **** __STATIC_FORCEINLINE void __ISB(void)
 259:Drivers/CMSIS/Include/cmsis_gcc.h **** {
 260:Drivers/CMSIS/Include/cmsis_gcc.h ****   __ASM volatile ("isb 0xF":::"memory");
ARM GAS  C:\Users\Halil\AppData\Local\Temp\cce2uIVz.s 			page 92


 261:Drivers/CMSIS/Include/cmsis_gcc.h **** }
 262:Drivers/CMSIS/Include/cmsis_gcc.h **** 
 263:Drivers/CMSIS/Include/cmsis_gcc.h **** 
 264:Drivers/CMSIS/Include/cmsis_gcc.h **** /**
 265:Drivers/CMSIS/Include/cmsis_gcc.h ****   \brief   Data Synchronization Barrier
 266:Drivers/CMSIS/Include/cmsis_gcc.h ****   \details Acts as a special kind of Data Memory Barrier.
 267:Drivers/CMSIS/Include/cmsis_gcc.h ****            It completes when all explicit memory accesses before this instruction complete.
 268:Drivers/CMSIS/Include/cmsis_gcc.h ****  */
 269:Drivers/CMSIS/Include/cmsis_gcc.h **** __STATIC_FORCEINLINE void __DSB(void)
 270:Drivers/CMSIS/Include/cmsis_gcc.h **** {
 271:Drivers/CMSIS/Include/cmsis_gcc.h ****   __ASM volatile ("dsb 0xF":::"memory");
 272:Drivers/CMSIS/Include/cmsis_gcc.h **** }
 273:Drivers/CMSIS/Include/cmsis_gcc.h **** 
 274:Drivers/CMSIS/Include/cmsis_gcc.h **** 
 275:Drivers/CMSIS/Include/cmsis_gcc.h **** /**
 276:Drivers/CMSIS/Include/cmsis_gcc.h ****   \brief   Data Memory Barrier
 277:Drivers/CMSIS/Include/cmsis_gcc.h ****   \details Ensures the apparent order of the explicit memory operations before
 278:Drivers/CMSIS/Include/cmsis_gcc.h ****            and after the instruction, without ensuring their completion.
 279:Drivers/CMSIS/Include/cmsis_gcc.h ****  */
 280:Drivers/CMSIS/Include/cmsis_gcc.h **** __STATIC_FORCEINLINE void __DMB(void)
 281:Drivers/CMSIS/Include/cmsis_gcc.h **** {
 282:Drivers/CMSIS/Include/cmsis_gcc.h ****   __ASM volatile ("dmb 0xF":::"memory");
 283:Drivers/CMSIS/Include/cmsis_gcc.h **** }
 284:Drivers/CMSIS/Include/cmsis_gcc.h **** 
 285:Drivers/CMSIS/Include/cmsis_gcc.h **** 
 286:Drivers/CMSIS/Include/cmsis_gcc.h **** /**
 287:Drivers/CMSIS/Include/cmsis_gcc.h ****   \brief   Reverse byte order (32 bit)
 288:Drivers/CMSIS/Include/cmsis_gcc.h ****   \details Reverses the byte order in unsigned integer value. For example, 0x12345678 becomes 0x785
 289:Drivers/CMSIS/Include/cmsis_gcc.h ****   \param [in]    value  Value to reverse
 290:Drivers/CMSIS/Include/cmsis_gcc.h ****   \return               Reversed value
 291:Drivers/CMSIS/Include/cmsis_gcc.h ****  */
 292:Drivers/CMSIS/Include/cmsis_gcc.h **** __STATIC_FORCEINLINE uint32_t __REV(uint32_t value)
 293:Drivers/CMSIS/Include/cmsis_gcc.h **** {
 294:Drivers/CMSIS/Include/cmsis_gcc.h **** #if (__GNUC__ > 4) || (__GNUC__ == 4 && __GNUC_MINOR__ >= 5)
 295:Drivers/CMSIS/Include/cmsis_gcc.h ****   return __builtin_bswap32(value);
 296:Drivers/CMSIS/Include/cmsis_gcc.h **** #else
 297:Drivers/CMSIS/Include/cmsis_gcc.h ****   uint32_t result;
 298:Drivers/CMSIS/Include/cmsis_gcc.h **** 
 299:Drivers/CMSIS/Include/cmsis_gcc.h ****   __ASM ("rev %0, %1" : __CMSIS_GCC_OUT_REG (result) : __CMSIS_GCC_USE_REG (value) );
 300:Drivers/CMSIS/Include/cmsis_gcc.h ****   return result;
 301:Drivers/CMSIS/Include/cmsis_gcc.h **** #endif
 302:Drivers/CMSIS/Include/cmsis_gcc.h **** }
 303:Drivers/CMSIS/Include/cmsis_gcc.h **** 
 304:Drivers/CMSIS/Include/cmsis_gcc.h **** 
 305:Drivers/CMSIS/Include/cmsis_gcc.h **** /**
 306:Drivers/CMSIS/Include/cmsis_gcc.h ****   \brief   Reverse byte order (16 bit)
 307:Drivers/CMSIS/Include/cmsis_gcc.h ****   \details Reverses the byte order within each halfword of a word. For example, 0x12345678 becomes 
 308:Drivers/CMSIS/Include/cmsis_gcc.h ****   \param [in]    value  Value to reverse
 309:Drivers/CMSIS/Include/cmsis_gcc.h ****   \return               Reversed value
 310:Drivers/CMSIS/Include/cmsis_gcc.h ****  */
 311:Drivers/CMSIS/Include/cmsis_gcc.h **** __STATIC_FORCEINLINE uint32_t __REV16(uint32_t value)
 312:Drivers/CMSIS/Include/cmsis_gcc.h **** {
 313:Drivers/CMSIS/Include/cmsis_gcc.h ****   uint32_t result;
 314:Drivers/CMSIS/Include/cmsis_gcc.h **** 
 315:Drivers/CMSIS/Include/cmsis_gcc.h ****   __ASM ("rev16 %0, %1" : __CMSIS_GCC_OUT_REG (result) : __CMSIS_GCC_USE_REG (value) );
 316:Drivers/CMSIS/Include/cmsis_gcc.h ****   return result;
 317:Drivers/CMSIS/Include/cmsis_gcc.h **** }
ARM GAS  C:\Users\Halil\AppData\Local\Temp\cce2uIVz.s 			page 93


 318:Drivers/CMSIS/Include/cmsis_gcc.h **** 
 319:Drivers/CMSIS/Include/cmsis_gcc.h **** 
 320:Drivers/CMSIS/Include/cmsis_gcc.h **** /**
 321:Drivers/CMSIS/Include/cmsis_gcc.h ****   \brief   Reverse byte order (16 bit)
 322:Drivers/CMSIS/Include/cmsis_gcc.h ****   \details Reverses the byte order in a 16-bit value and returns the signed 16-bit result. For exam
 323:Drivers/CMSIS/Include/cmsis_gcc.h ****   \param [in]    value  Value to reverse
 324:Drivers/CMSIS/Include/cmsis_gcc.h ****   \return               Reversed value
 325:Drivers/CMSIS/Include/cmsis_gcc.h ****  */
 326:Drivers/CMSIS/Include/cmsis_gcc.h **** __STATIC_FORCEINLINE int16_t __REVSH(int16_t value)
 327:Drivers/CMSIS/Include/cmsis_gcc.h **** {
 328:Drivers/CMSIS/Include/cmsis_gcc.h **** #if (__GNUC__ > 4) || (__GNUC__ == 4 && __GNUC_MINOR__ >= 8)
 329:Drivers/CMSIS/Include/cmsis_gcc.h ****   return (int16_t)__builtin_bswap16(value);
 330:Drivers/CMSIS/Include/cmsis_gcc.h **** #else
 331:Drivers/CMSIS/Include/cmsis_gcc.h ****   int16_t result;
 332:Drivers/CMSIS/Include/cmsis_gcc.h **** 
 333:Drivers/CMSIS/Include/cmsis_gcc.h ****   __ASM ("revsh %0, %1" : __CMSIS_GCC_OUT_REG (result) : __CMSIS_GCC_USE_REG (value) );
 334:Drivers/CMSIS/Include/cmsis_gcc.h ****   return result;
 335:Drivers/CMSIS/Include/cmsis_gcc.h **** #endif
 336:Drivers/CMSIS/Include/cmsis_gcc.h **** }
 337:Drivers/CMSIS/Include/cmsis_gcc.h **** 
 338:Drivers/CMSIS/Include/cmsis_gcc.h **** 
 339:Drivers/CMSIS/Include/cmsis_gcc.h **** /**
 340:Drivers/CMSIS/Include/cmsis_gcc.h ****   \brief   Rotate Right in unsigned value (32 bit)
 341:Drivers/CMSIS/Include/cmsis_gcc.h ****   \details Rotate Right (immediate) provides the value of the contents of a register rotated by a v
 342:Drivers/CMSIS/Include/cmsis_gcc.h ****   \param [in]    op1  Value to rotate
 343:Drivers/CMSIS/Include/cmsis_gcc.h ****   \param [in]    op2  Number of Bits to rotate
 344:Drivers/CMSIS/Include/cmsis_gcc.h ****   \return               Rotated value
 345:Drivers/CMSIS/Include/cmsis_gcc.h ****  */
 346:Drivers/CMSIS/Include/cmsis_gcc.h **** __STATIC_FORCEINLINE uint32_t __ROR(uint32_t op1, uint32_t op2)
 347:Drivers/CMSIS/Include/cmsis_gcc.h **** {
 348:Drivers/CMSIS/Include/cmsis_gcc.h ****   op2 %= 32U;
 349:Drivers/CMSIS/Include/cmsis_gcc.h ****   if (op2 == 0U)
 350:Drivers/CMSIS/Include/cmsis_gcc.h ****   {
 351:Drivers/CMSIS/Include/cmsis_gcc.h ****     return op1;
 352:Drivers/CMSIS/Include/cmsis_gcc.h ****   }
 353:Drivers/CMSIS/Include/cmsis_gcc.h ****   return (op1 >> op2) | (op1 << (32U - op2));
 354:Drivers/CMSIS/Include/cmsis_gcc.h **** }
 355:Drivers/CMSIS/Include/cmsis_gcc.h **** 
 356:Drivers/CMSIS/Include/cmsis_gcc.h **** 
 357:Drivers/CMSIS/Include/cmsis_gcc.h **** /**
 358:Drivers/CMSIS/Include/cmsis_gcc.h ****   \brief   Breakpoint
 359:Drivers/CMSIS/Include/cmsis_gcc.h ****   \details Causes the processor to enter Debug state.
 360:Drivers/CMSIS/Include/cmsis_gcc.h ****            Debug tools can use this to investigate system state when the instruction at a particula
 361:Drivers/CMSIS/Include/cmsis_gcc.h ****   \param [in]    value  is ignored by the processor.
 362:Drivers/CMSIS/Include/cmsis_gcc.h ****                  If required, a debugger can use it to store additional information about the break
 363:Drivers/CMSIS/Include/cmsis_gcc.h ****  */
 364:Drivers/CMSIS/Include/cmsis_gcc.h **** #define __BKPT(value)                       __ASM volatile ("bkpt "#value)
 365:Drivers/CMSIS/Include/cmsis_gcc.h **** 
 366:Drivers/CMSIS/Include/cmsis_gcc.h **** 
 367:Drivers/CMSIS/Include/cmsis_gcc.h **** /**
 368:Drivers/CMSIS/Include/cmsis_gcc.h ****   \brief   Reverse bit order of value
 369:Drivers/CMSIS/Include/cmsis_gcc.h ****   \details Reverses the bit order of the given value.
 370:Drivers/CMSIS/Include/cmsis_gcc.h ****   \param [in]    value  Value to reverse
 371:Drivers/CMSIS/Include/cmsis_gcc.h ****   \return               Reversed value
 372:Drivers/CMSIS/Include/cmsis_gcc.h ****  */
 373:Drivers/CMSIS/Include/cmsis_gcc.h **** __STATIC_FORCEINLINE uint32_t __RBIT(uint32_t value)
 374:Drivers/CMSIS/Include/cmsis_gcc.h **** {
ARM GAS  C:\Users\Halil\AppData\Local\Temp\cce2uIVz.s 			page 94


 375:Drivers/CMSIS/Include/cmsis_gcc.h ****   uint32_t result;
 376:Drivers/CMSIS/Include/cmsis_gcc.h **** 
 377:Drivers/CMSIS/Include/cmsis_gcc.h **** #if ((defined (__ARM_ARCH_7M__      ) && (__ARM_ARCH_7M__      == 1)) || \
 378:Drivers/CMSIS/Include/cmsis_gcc.h ****      (defined (__ARM_ARCH_7EM__     ) && (__ARM_ARCH_7EM__     == 1)) || \
 379:Drivers/CMSIS/Include/cmsis_gcc.h ****      (defined (__ARM_ARCH_8M_MAIN__ ) && (__ARM_ARCH_8M_MAIN__ == 1))    )
 380:Drivers/CMSIS/Include/cmsis_gcc.h ****    __ASM ("rbit %0, %1" : "=r" (result) : "r" (value) );
 381:Drivers/CMSIS/Include/cmsis_gcc.h **** #else
 382:Drivers/CMSIS/Include/cmsis_gcc.h ****   uint32_t s = (4U /*sizeof(v)*/ * 8U) - 1U; /* extra shift needed at end */
 383:Drivers/CMSIS/Include/cmsis_gcc.h **** 
 384:Drivers/CMSIS/Include/cmsis_gcc.h ****   result = value;                      /* r will be reversed bits of v; first get LSB of v */
 385:Drivers/CMSIS/Include/cmsis_gcc.h ****   for (value >>= 1U; value != 0U; value >>= 1U)
 386:Drivers/CMSIS/Include/cmsis_gcc.h ****   {
 387:Drivers/CMSIS/Include/cmsis_gcc.h ****     result <<= 1U;
 388:Drivers/CMSIS/Include/cmsis_gcc.h ****     result |= value & 1U;
 389:Drivers/CMSIS/Include/cmsis_gcc.h ****     s--;
 390:Drivers/CMSIS/Include/cmsis_gcc.h ****   }
 391:Drivers/CMSIS/Include/cmsis_gcc.h ****   result <<= s;                        /* shift when v's highest bits are zero */
 392:Drivers/CMSIS/Include/cmsis_gcc.h **** #endif
 393:Drivers/CMSIS/Include/cmsis_gcc.h ****   return result;
 394:Drivers/CMSIS/Include/cmsis_gcc.h **** }
 395:Drivers/CMSIS/Include/cmsis_gcc.h **** 
 396:Drivers/CMSIS/Include/cmsis_gcc.h **** 
 397:Drivers/CMSIS/Include/cmsis_gcc.h **** /**
 398:Drivers/CMSIS/Include/cmsis_gcc.h ****   \brief   Count leading zeros
 399:Drivers/CMSIS/Include/cmsis_gcc.h ****   \details Counts the number of leading zeros of a data value.
 400:Drivers/CMSIS/Include/cmsis_gcc.h ****   \param [in]  value  Value to count the leading zeros
 401:Drivers/CMSIS/Include/cmsis_gcc.h ****   \return             number of leading zeros in value
 402:Drivers/CMSIS/Include/cmsis_gcc.h ****  */
 403:Drivers/CMSIS/Include/cmsis_gcc.h **** __STATIC_FORCEINLINE uint8_t __CLZ(uint32_t value)
 404:Drivers/CMSIS/Include/cmsis_gcc.h **** {
 405:Drivers/CMSIS/Include/cmsis_gcc.h ****   /* Even though __builtin_clz produces a CLZ instruction on ARM, formally
 406:Drivers/CMSIS/Include/cmsis_gcc.h ****      __builtin_clz(0) is undefined behaviour, so handle this case specially.
 407:Drivers/CMSIS/Include/cmsis_gcc.h ****      This guarantees ARM-compatible results if happening to compile on a non-ARM
 408:Drivers/CMSIS/Include/cmsis_gcc.h ****      target, and ensures the compiler doesn't decide to activate any
 409:Drivers/CMSIS/Include/cmsis_gcc.h ****      optimisations using the logic "value was passed to __builtin_clz, so it
 410:Drivers/CMSIS/Include/cmsis_gcc.h ****      is non-zero".
 411:Drivers/CMSIS/Include/cmsis_gcc.h ****      ARM GCC 7.3 and possibly earlier will optimise this test away, leaving a
 412:Drivers/CMSIS/Include/cmsis_gcc.h ****      single CLZ instruction.
 413:Drivers/CMSIS/Include/cmsis_gcc.h ****    */
 414:Drivers/CMSIS/Include/cmsis_gcc.h ****   if (value == 0U)
 415:Drivers/CMSIS/Include/cmsis_gcc.h ****   {
 416:Drivers/CMSIS/Include/cmsis_gcc.h ****     return 32U;
 417:Drivers/CMSIS/Include/cmsis_gcc.h ****   }
 418:Drivers/CMSIS/Include/cmsis_gcc.h ****   return __builtin_clz(value);
 419:Drivers/CMSIS/Include/cmsis_gcc.h **** }
 420:Drivers/CMSIS/Include/cmsis_gcc.h **** 
 421:Drivers/CMSIS/Include/cmsis_gcc.h **** 
 422:Drivers/CMSIS/Include/cmsis_gcc.h **** #if ((defined (__ARM_ARCH_7M__      ) && (__ARM_ARCH_7M__      == 1)) || \
 423:Drivers/CMSIS/Include/cmsis_gcc.h ****      (defined (__ARM_ARCH_7EM__     ) && (__ARM_ARCH_7EM__     == 1)) || \
 424:Drivers/CMSIS/Include/cmsis_gcc.h ****      (defined (__ARM_ARCH_8M_MAIN__ ) && (__ARM_ARCH_8M_MAIN__ == 1)) || \
 425:Drivers/CMSIS/Include/cmsis_gcc.h ****      (defined (__ARM_ARCH_8M_BASE__ ) && (__ARM_ARCH_8M_BASE__ == 1))    )
 426:Drivers/CMSIS/Include/cmsis_gcc.h **** /**
 427:Drivers/CMSIS/Include/cmsis_gcc.h ****   \brief   LDR Exclusive (8 bit)
 428:Drivers/CMSIS/Include/cmsis_gcc.h ****   \details Executes a exclusive LDR instruction for 8 bit value.
 429:Drivers/CMSIS/Include/cmsis_gcc.h ****   \param [in]    ptr  Pointer to data
 430:Drivers/CMSIS/Include/cmsis_gcc.h ****   \return             value of type uint8_t at (*ptr)
 431:Drivers/CMSIS/Include/cmsis_gcc.h ****  */
ARM GAS  C:\Users\Halil\AppData\Local\Temp\cce2uIVz.s 			page 95


 432:Drivers/CMSIS/Include/cmsis_gcc.h **** __STATIC_FORCEINLINE uint8_t __LDREXB(volatile uint8_t *addr)
 433:Drivers/CMSIS/Include/cmsis_gcc.h **** {
 434:Drivers/CMSIS/Include/cmsis_gcc.h ****     uint32_t result;
 435:Drivers/CMSIS/Include/cmsis_gcc.h **** 
 436:Drivers/CMSIS/Include/cmsis_gcc.h **** #if (__GNUC__ > 4) || (__GNUC__ == 4 && __GNUC_MINOR__ >= 8)
 437:Drivers/CMSIS/Include/cmsis_gcc.h ****    __ASM volatile ("ldrexb %0, %1" : "=r" (result) : "Q" (*addr) );
 438:Drivers/CMSIS/Include/cmsis_gcc.h **** #else
 439:Drivers/CMSIS/Include/cmsis_gcc.h ****     /* Prior to GCC 4.8, "Q" will be expanded to [rx, #0] which is not
 440:Drivers/CMSIS/Include/cmsis_gcc.h ****        accepted by assembler. So has to use following less efficient pattern.
 441:Drivers/CMSIS/Include/cmsis_gcc.h ****     */
 442:Drivers/CMSIS/Include/cmsis_gcc.h ****    __ASM volatile ("ldrexb %0, [%1]" : "=r" (result) : "r" (addr) : "memory" );
 443:Drivers/CMSIS/Include/cmsis_gcc.h **** #endif
 444:Drivers/CMSIS/Include/cmsis_gcc.h ****    return ((uint8_t) result);    /* Add explicit type cast here */
 445:Drivers/CMSIS/Include/cmsis_gcc.h **** }
 446:Drivers/CMSIS/Include/cmsis_gcc.h **** 
 447:Drivers/CMSIS/Include/cmsis_gcc.h **** 
 448:Drivers/CMSIS/Include/cmsis_gcc.h **** /**
 449:Drivers/CMSIS/Include/cmsis_gcc.h ****   \brief   LDR Exclusive (16 bit)
 450:Drivers/CMSIS/Include/cmsis_gcc.h ****   \details Executes a exclusive LDR instruction for 16 bit values.
 451:Drivers/CMSIS/Include/cmsis_gcc.h ****   \param [in]    ptr  Pointer to data
 452:Drivers/CMSIS/Include/cmsis_gcc.h ****   \return        value of type uint16_t at (*ptr)
 453:Drivers/CMSIS/Include/cmsis_gcc.h ****  */
 454:Drivers/CMSIS/Include/cmsis_gcc.h **** __STATIC_FORCEINLINE uint16_t __LDREXH(volatile uint16_t *addr)
 455:Drivers/CMSIS/Include/cmsis_gcc.h **** {
 456:Drivers/CMSIS/Include/cmsis_gcc.h ****     uint32_t result;
 457:Drivers/CMSIS/Include/cmsis_gcc.h **** 
 458:Drivers/CMSIS/Include/cmsis_gcc.h **** #if (__GNUC__ > 4) || (__GNUC__ == 4 && __GNUC_MINOR__ >= 8)
 459:Drivers/CMSIS/Include/cmsis_gcc.h ****    __ASM volatile ("ldrexh %0, %1" : "=r" (result) : "Q" (*addr) );
 460:Drivers/CMSIS/Include/cmsis_gcc.h **** #else
 461:Drivers/CMSIS/Include/cmsis_gcc.h ****     /* Prior to GCC 4.8, "Q" will be expanded to [rx, #0] which is not
 462:Drivers/CMSIS/Include/cmsis_gcc.h ****        accepted by assembler. So has to use following less efficient pattern.
 463:Drivers/CMSIS/Include/cmsis_gcc.h ****     */
 464:Drivers/CMSIS/Include/cmsis_gcc.h ****    __ASM volatile ("ldrexh %0, [%1]" : "=r" (result) : "r" (addr) : "memory" );
 465:Drivers/CMSIS/Include/cmsis_gcc.h **** #endif
 466:Drivers/CMSIS/Include/cmsis_gcc.h ****    return ((uint16_t) result);    /* Add explicit type cast here */
 467:Drivers/CMSIS/Include/cmsis_gcc.h **** }
 468:Drivers/CMSIS/Include/cmsis_gcc.h **** 
 469:Drivers/CMSIS/Include/cmsis_gcc.h **** 
 470:Drivers/CMSIS/Include/cmsis_gcc.h **** /**
 471:Drivers/CMSIS/Include/cmsis_gcc.h ****   \brief   LDR Exclusive (32 bit)
 472:Drivers/CMSIS/Include/cmsis_gcc.h ****   \details Executes a exclusive LDR instruction for 32 bit values.
 473:Drivers/CMSIS/Include/cmsis_gcc.h ****   \param [in]    ptr  Pointer to data
 474:Drivers/CMSIS/Include/cmsis_gcc.h ****   \return        value of type uint32_t at (*ptr)
 475:Drivers/CMSIS/Include/cmsis_gcc.h ****  */
 476:Drivers/CMSIS/Include/cmsis_gcc.h **** __STATIC_FORCEINLINE uint32_t __LDREXW(volatile uint32_t *addr)
 477:Drivers/CMSIS/Include/cmsis_gcc.h **** {
 478:Drivers/CMSIS/Include/cmsis_gcc.h ****     uint32_t result;
 479:Drivers/CMSIS/Include/cmsis_gcc.h **** 
 480:Drivers/CMSIS/Include/cmsis_gcc.h ****    __ASM volatile ("ldrex %0, %1" : "=r" (result) : "Q" (*addr) );
 481:Drivers/CMSIS/Include/cmsis_gcc.h ****    return(result);
 482:Drivers/CMSIS/Include/cmsis_gcc.h **** }
 483:Drivers/CMSIS/Include/cmsis_gcc.h **** 
 484:Drivers/CMSIS/Include/cmsis_gcc.h **** 
 485:Drivers/CMSIS/Include/cmsis_gcc.h **** /**
 486:Drivers/CMSIS/Include/cmsis_gcc.h ****   \brief   STR Exclusive (8 bit)
 487:Drivers/CMSIS/Include/cmsis_gcc.h ****   \details Executes a exclusive STR instruction for 8 bit values.
 488:Drivers/CMSIS/Include/cmsis_gcc.h ****   \param [in]  value  Value to store
ARM GAS  C:\Users\Halil\AppData\Local\Temp\cce2uIVz.s 			page 96


 489:Drivers/CMSIS/Include/cmsis_gcc.h ****   \param [in]    ptr  Pointer to location
 490:Drivers/CMSIS/Include/cmsis_gcc.h ****   \return          0  Function succeeded
 491:Drivers/CMSIS/Include/cmsis_gcc.h ****   \return          1  Function failed
 492:Drivers/CMSIS/Include/cmsis_gcc.h ****  */
 493:Drivers/CMSIS/Include/cmsis_gcc.h **** __STATIC_FORCEINLINE uint32_t __STREXB(uint8_t value, volatile uint8_t *addr)
 494:Drivers/CMSIS/Include/cmsis_gcc.h **** {
 495:Drivers/CMSIS/Include/cmsis_gcc.h ****    uint32_t result;
 496:Drivers/CMSIS/Include/cmsis_gcc.h **** 
 497:Drivers/CMSIS/Include/cmsis_gcc.h ****    __ASM volatile ("strexb %0, %2, %1" : "=&r" (result), "=Q" (*addr) : "r" ((uint32_t)value) );
 498:Drivers/CMSIS/Include/cmsis_gcc.h ****    return(result);
 499:Drivers/CMSIS/Include/cmsis_gcc.h **** }
 500:Drivers/CMSIS/Include/cmsis_gcc.h **** 
 501:Drivers/CMSIS/Include/cmsis_gcc.h **** 
 502:Drivers/CMSIS/Include/cmsis_gcc.h **** /**
 503:Drivers/CMSIS/Include/cmsis_gcc.h ****   \brief   STR Exclusive (16 bit)
 504:Drivers/CMSIS/Include/cmsis_gcc.h ****   \details Executes a exclusive STR instruction for 16 bit values.
 505:Drivers/CMSIS/Include/cmsis_gcc.h ****   \param [in]  value  Value to store
 506:Drivers/CMSIS/Include/cmsis_gcc.h ****   \param [in]    ptr  Pointer to location
 507:Drivers/CMSIS/Include/cmsis_gcc.h ****   \return          0  Function succeeded
 508:Drivers/CMSIS/Include/cmsis_gcc.h ****   \return          1  Function failed
 509:Drivers/CMSIS/Include/cmsis_gcc.h ****  */
 510:Drivers/CMSIS/Include/cmsis_gcc.h **** __STATIC_FORCEINLINE uint32_t __STREXH(uint16_t value, volatile uint16_t *addr)
 511:Drivers/CMSIS/Include/cmsis_gcc.h **** {
