ARM GAS  C:\Users\Halil\AppData\Local\Temp\ccl2Bawv.s 			page 1


   1              		.cpu cortex-m4
   2              		.arch armv7e-m
   3              		.fpu fpv4-sp-d16
   4              		.eabi_attribute 27, 1
   5              		.eabi_attribute 28, 1
   6              		.eabi_attribute 20, 1
   7              		.eabi_attribute 21, 1
   8              		.eabi_attribute 23, 3
   9              		.eabi_attribute 24, 1
  10              		.eabi_attribute 25, 1
  11              		.eabi_attribute 26, 1
  12              		.eabi_attribute 30, 6
  13              		.eabi_attribute 34, 1
  14              		.eabi_attribute 18, 4
  15              		.file	"stm32f4xx_hal_adc_ex.c"
  16              		.text
  17              	.Ltext0:
  18              		.cfi_sections	.debug_frame
  19              		.file 1 "Drivers/STM32F4xx_HAL_Driver/Src/stm32f4xx_hal_adc_ex.c"
  20              		.section	.text.HAL_ADCEx_InjectedStart,"ax",%progbits
  21              		.align	1
  22              		.global	HAL_ADCEx_InjectedStart
  23              		.syntax unified
  24              		.thumb
  25              		.thumb_func
  27              	HAL_ADCEx_InjectedStart:
  28              	.LFB239:
   1:Drivers/STM32F4xx_HAL_Driver/Src/stm32f4xx_hal_adc_ex.c **** /**
   2:Drivers/STM32F4xx_HAL_Driver/Src/stm32f4xx_hal_adc_ex.c ****   ******************************************************************************
   3:Drivers/STM32F4xx_HAL_Driver/Src/stm32f4xx_hal_adc_ex.c ****   * @file    stm32f4xx_hal_adc_ex.c
   4:Drivers/STM32F4xx_HAL_Driver/Src/stm32f4xx_hal_adc_ex.c ****   * @author  MCD Application Team
   5:Drivers/STM32F4xx_HAL_Driver/Src/stm32f4xx_hal_adc_ex.c ****   * @brief   This file provides firmware functions to manage the following
   6:Drivers/STM32F4xx_HAL_Driver/Src/stm32f4xx_hal_adc_ex.c ****   *          functionalities of the ADC extension peripheral:
   7:Drivers/STM32F4xx_HAL_Driver/Src/stm32f4xx_hal_adc_ex.c ****   *           + Extended features functions
   8:Drivers/STM32F4xx_HAL_Driver/Src/stm32f4xx_hal_adc_ex.c ****   *
   9:Drivers/STM32F4xx_HAL_Driver/Src/stm32f4xx_hal_adc_ex.c ****   ******************************************************************************
  10:Drivers/STM32F4xx_HAL_Driver/Src/stm32f4xx_hal_adc_ex.c ****   * @attention
  11:Drivers/STM32F4xx_HAL_Driver/Src/stm32f4xx_hal_adc_ex.c ****   *
  12:Drivers/STM32F4xx_HAL_Driver/Src/stm32f4xx_hal_adc_ex.c ****   * Copyright (c) 2017 STMicroelectronics.
  13:Drivers/STM32F4xx_HAL_Driver/Src/stm32f4xx_hal_adc_ex.c ****   * All rights reserved.
  14:Drivers/STM32F4xx_HAL_Driver/Src/stm32f4xx_hal_adc_ex.c ****   *
  15:Drivers/STM32F4xx_HAL_Driver/Src/stm32f4xx_hal_adc_ex.c ****   * This software is licensed under terms that can be found in the LICENSE file
  16:Drivers/STM32F4xx_HAL_Driver/Src/stm32f4xx_hal_adc_ex.c ****   * in the root directory of this software component.
  17:Drivers/STM32F4xx_HAL_Driver/Src/stm32f4xx_hal_adc_ex.c ****   * If no LICENSE file comes with this software, it is provided AS-IS.
  18:Drivers/STM32F4xx_HAL_Driver/Src/stm32f4xx_hal_adc_ex.c ****   *
  19:Drivers/STM32F4xx_HAL_Driver/Src/stm32f4xx_hal_adc_ex.c ****   ******************************************************************************
  20:Drivers/STM32F4xx_HAL_Driver/Src/stm32f4xx_hal_adc_ex.c ****   @verbatim
  21:Drivers/STM32F4xx_HAL_Driver/Src/stm32f4xx_hal_adc_ex.c ****   ==============================================================================
  22:Drivers/STM32F4xx_HAL_Driver/Src/stm32f4xx_hal_adc_ex.c ****                     ##### How to use this driver #####
  23:Drivers/STM32F4xx_HAL_Driver/Src/stm32f4xx_hal_adc_ex.c ****   ==============================================================================
  24:Drivers/STM32F4xx_HAL_Driver/Src/stm32f4xx_hal_adc_ex.c ****     [..]
  25:Drivers/STM32F4xx_HAL_Driver/Src/stm32f4xx_hal_adc_ex.c ****     (#)Initialize the ADC low level resources by implementing the HAL_ADC_MspInit():
  26:Drivers/STM32F4xx_HAL_Driver/Src/stm32f4xx_hal_adc_ex.c ****        (##) Enable the ADC interface clock using __HAL_RCC_ADC_CLK_ENABLE()
  27:Drivers/STM32F4xx_HAL_Driver/Src/stm32f4xx_hal_adc_ex.c ****        (##) ADC pins configuration
  28:Drivers/STM32F4xx_HAL_Driver/Src/stm32f4xx_hal_adc_ex.c ****              (+++) Enable the clock for the ADC GPIOs using the following function:
  29:Drivers/STM32F4xx_HAL_Driver/Src/stm32f4xx_hal_adc_ex.c ****                    __HAL_RCC_GPIOx_CLK_ENABLE()
  30:Drivers/STM32F4xx_HAL_Driver/Src/stm32f4xx_hal_adc_ex.c ****              (+++) Configure these ADC pins in analog mode using HAL_GPIO_Init()
ARM GAS  C:\Users\Halil\AppData\Local\Temp\ccl2Bawv.s 			page 2


  31:Drivers/STM32F4xx_HAL_Driver/Src/stm32f4xx_hal_adc_ex.c ****        (##) In case of using interrupts (e.g. HAL_ADC_Start_IT())
  32:Drivers/STM32F4xx_HAL_Driver/Src/stm32f4xx_hal_adc_ex.c ****              (+++) Configure the ADC interrupt priority using HAL_NVIC_SetPriority()
  33:Drivers/STM32F4xx_HAL_Driver/Src/stm32f4xx_hal_adc_ex.c ****              (+++) Enable the ADC IRQ handler using HAL_NVIC_EnableIRQ()
  34:Drivers/STM32F4xx_HAL_Driver/Src/stm32f4xx_hal_adc_ex.c ****              (+++) In ADC IRQ handler, call HAL_ADC_IRQHandler()
  35:Drivers/STM32F4xx_HAL_Driver/Src/stm32f4xx_hal_adc_ex.c ****       (##) In case of using DMA to control data transfer (e.g. HAL_ADC_Start_DMA())
  36:Drivers/STM32F4xx_HAL_Driver/Src/stm32f4xx_hal_adc_ex.c ****              (+++) Enable the DMAx interface clock using __HAL_RCC_DMAx_CLK_ENABLE()
  37:Drivers/STM32F4xx_HAL_Driver/Src/stm32f4xx_hal_adc_ex.c ****              (+++) Configure and enable two DMA streams stream for managing data
  38:Drivers/STM32F4xx_HAL_Driver/Src/stm32f4xx_hal_adc_ex.c ****                  transfer from peripheral to memory (output stream)
  39:Drivers/STM32F4xx_HAL_Driver/Src/stm32f4xx_hal_adc_ex.c ****              (+++) Associate the initialized DMA handle to the ADC DMA handle
  40:Drivers/STM32F4xx_HAL_Driver/Src/stm32f4xx_hal_adc_ex.c ****                  using  __HAL_LINKDMA()
  41:Drivers/STM32F4xx_HAL_Driver/Src/stm32f4xx_hal_adc_ex.c ****              (+++) Configure the priority and enable the NVIC for the transfer complete
  42:Drivers/STM32F4xx_HAL_Driver/Src/stm32f4xx_hal_adc_ex.c ****                  interrupt on the two DMA Streams. The output stream should have higher
  43:Drivers/STM32F4xx_HAL_Driver/Src/stm32f4xx_hal_adc_ex.c ****                  priority than the input stream.
  44:Drivers/STM32F4xx_HAL_Driver/Src/stm32f4xx_hal_adc_ex.c ****      (#) Configure the ADC Prescaler, conversion resolution and data alignment
  45:Drivers/STM32F4xx_HAL_Driver/Src/stm32f4xx_hal_adc_ex.c ****          using the HAL_ADC_Init() function.
  46:Drivers/STM32F4xx_HAL_Driver/Src/stm32f4xx_hal_adc_ex.c **** 
  47:Drivers/STM32F4xx_HAL_Driver/Src/stm32f4xx_hal_adc_ex.c ****      (#) Configure the ADC Injected channels group features, use HAL_ADC_Init()
  48:Drivers/STM32F4xx_HAL_Driver/Src/stm32f4xx_hal_adc_ex.c ****          and HAL_ADC_ConfigChannel() functions.
  49:Drivers/STM32F4xx_HAL_Driver/Src/stm32f4xx_hal_adc_ex.c **** 
  50:Drivers/STM32F4xx_HAL_Driver/Src/stm32f4xx_hal_adc_ex.c ****      (#) Three operation modes are available within this driver:
  51:Drivers/STM32F4xx_HAL_Driver/Src/stm32f4xx_hal_adc_ex.c **** 
  52:Drivers/STM32F4xx_HAL_Driver/Src/stm32f4xx_hal_adc_ex.c ****      *** Polling mode IO operation ***
  53:Drivers/STM32F4xx_HAL_Driver/Src/stm32f4xx_hal_adc_ex.c ****      =================================
  54:Drivers/STM32F4xx_HAL_Driver/Src/stm32f4xx_hal_adc_ex.c ****      [..]
  55:Drivers/STM32F4xx_HAL_Driver/Src/stm32f4xx_hal_adc_ex.c ****        (+) Start the ADC peripheral using HAL_ADCEx_InjectedStart()
  56:Drivers/STM32F4xx_HAL_Driver/Src/stm32f4xx_hal_adc_ex.c ****        (+) Wait for end of conversion using HAL_ADC_PollForConversion(), at this stage
  57:Drivers/STM32F4xx_HAL_Driver/Src/stm32f4xx_hal_adc_ex.c ****            user can specify the value of timeout according to his end application
  58:Drivers/STM32F4xx_HAL_Driver/Src/stm32f4xx_hal_adc_ex.c ****        (+) To read the ADC converted values, use the HAL_ADCEx_InjectedGetValue() function.
  59:Drivers/STM32F4xx_HAL_Driver/Src/stm32f4xx_hal_adc_ex.c ****        (+) Stop the ADC peripheral using HAL_ADCEx_InjectedStop()
  60:Drivers/STM32F4xx_HAL_Driver/Src/stm32f4xx_hal_adc_ex.c **** 
  61:Drivers/STM32F4xx_HAL_Driver/Src/stm32f4xx_hal_adc_ex.c ****      *** Interrupt mode IO operation ***
  62:Drivers/STM32F4xx_HAL_Driver/Src/stm32f4xx_hal_adc_ex.c ****      ===================================
  63:Drivers/STM32F4xx_HAL_Driver/Src/stm32f4xx_hal_adc_ex.c ****      [..]
  64:Drivers/STM32F4xx_HAL_Driver/Src/stm32f4xx_hal_adc_ex.c ****        (+) Start the ADC peripheral using HAL_ADCEx_InjectedStart_IT()
  65:Drivers/STM32F4xx_HAL_Driver/Src/stm32f4xx_hal_adc_ex.c ****        (+) Use HAL_ADC_IRQHandler() called under ADC_IRQHandler() Interrupt subroutine
  66:Drivers/STM32F4xx_HAL_Driver/Src/stm32f4xx_hal_adc_ex.c ****        (+) At ADC end of conversion HAL_ADCEx_InjectedConvCpltCallback() function is executed and u
  67:Drivers/STM32F4xx_HAL_Driver/Src/stm32f4xx_hal_adc_ex.c ****             add his own code by customization of function pointer HAL_ADCEx_InjectedConvCpltCallbac
  68:Drivers/STM32F4xx_HAL_Driver/Src/stm32f4xx_hal_adc_ex.c ****        (+) In case of ADC Error, HAL_ADCEx_InjectedErrorCallback() function is executed and user ca
  69:Drivers/STM32F4xx_HAL_Driver/Src/stm32f4xx_hal_adc_ex.c ****             add his own code by customization of function pointer HAL_ADCEx_InjectedErrorCallback
  70:Drivers/STM32F4xx_HAL_Driver/Src/stm32f4xx_hal_adc_ex.c ****        (+) Stop the ADC peripheral using HAL_ADCEx_InjectedStop_IT()
  71:Drivers/STM32F4xx_HAL_Driver/Src/stm32f4xx_hal_adc_ex.c **** 
  72:Drivers/STM32F4xx_HAL_Driver/Src/stm32f4xx_hal_adc_ex.c ****      *** Multi mode ADCs Regular channels configuration ***
  73:Drivers/STM32F4xx_HAL_Driver/Src/stm32f4xx_hal_adc_ex.c ****      ======================================================
  74:Drivers/STM32F4xx_HAL_Driver/Src/stm32f4xx_hal_adc_ex.c ****      [..]
  75:Drivers/STM32F4xx_HAL_Driver/Src/stm32f4xx_hal_adc_ex.c ****        (+) Select the Multi mode ADC regular channels features (dual or triple mode)
  76:Drivers/STM32F4xx_HAL_Driver/Src/stm32f4xx_hal_adc_ex.c ****           and configure the DMA mode using HAL_ADCEx_MultiModeConfigChannel() functions.
  77:Drivers/STM32F4xx_HAL_Driver/Src/stm32f4xx_hal_adc_ex.c ****        (+) Start the ADC peripheral using HAL_ADCEx_MultiModeStart_DMA(), at this stage the user sp
  78:Drivers/STM32F4xx_HAL_Driver/Src/stm32f4xx_hal_adc_ex.c ****            of data to be transferred at each end of conversion
  79:Drivers/STM32F4xx_HAL_Driver/Src/stm32f4xx_hal_adc_ex.c ****        (+) Read the ADCs converted values using the HAL_ADCEx_MultiModeGetValue() function.
  80:Drivers/STM32F4xx_HAL_Driver/Src/stm32f4xx_hal_adc_ex.c **** 
  81:Drivers/STM32F4xx_HAL_Driver/Src/stm32f4xx_hal_adc_ex.c **** 
  82:Drivers/STM32F4xx_HAL_Driver/Src/stm32f4xx_hal_adc_ex.c ****     @endverbatim
  83:Drivers/STM32F4xx_HAL_Driver/Src/stm32f4xx_hal_adc_ex.c ****   */
  84:Drivers/STM32F4xx_HAL_Driver/Src/stm32f4xx_hal_adc_ex.c **** 
  85:Drivers/STM32F4xx_HAL_Driver/Src/stm32f4xx_hal_adc_ex.c **** /* Includes ------------------------------------------------------------------*/
  86:Drivers/STM32F4xx_HAL_Driver/Src/stm32f4xx_hal_adc_ex.c **** #include "stm32f4xx_hal.h"
  87:Drivers/STM32F4xx_HAL_Driver/Src/stm32f4xx_hal_adc_ex.c **** 
ARM GAS  C:\Users\Halil\AppData\Local\Temp\ccl2Bawv.s 			page 3


  88:Drivers/STM32F4xx_HAL_Driver/Src/stm32f4xx_hal_adc_ex.c **** /** @addtogroup STM32F4xx_HAL_Driver
  89:Drivers/STM32F4xx_HAL_Driver/Src/stm32f4xx_hal_adc_ex.c ****   * @{
  90:Drivers/STM32F4xx_HAL_Driver/Src/stm32f4xx_hal_adc_ex.c ****   */
  91:Drivers/STM32F4xx_HAL_Driver/Src/stm32f4xx_hal_adc_ex.c **** 
  92:Drivers/STM32F4xx_HAL_Driver/Src/stm32f4xx_hal_adc_ex.c **** /** @defgroup ADCEx ADCEx
  93:Drivers/STM32F4xx_HAL_Driver/Src/stm32f4xx_hal_adc_ex.c ****   * @brief ADC Extended driver modules
  94:Drivers/STM32F4xx_HAL_Driver/Src/stm32f4xx_hal_adc_ex.c ****   * @{
  95:Drivers/STM32F4xx_HAL_Driver/Src/stm32f4xx_hal_adc_ex.c ****   */
  96:Drivers/STM32F4xx_HAL_Driver/Src/stm32f4xx_hal_adc_ex.c **** 
  97:Drivers/STM32F4xx_HAL_Driver/Src/stm32f4xx_hal_adc_ex.c **** #ifdef HAL_ADC_MODULE_ENABLED
  98:Drivers/STM32F4xx_HAL_Driver/Src/stm32f4xx_hal_adc_ex.c **** 
  99:Drivers/STM32F4xx_HAL_Driver/Src/stm32f4xx_hal_adc_ex.c **** /* Private typedef -----------------------------------------------------------*/
 100:Drivers/STM32F4xx_HAL_Driver/Src/stm32f4xx_hal_adc_ex.c **** /* Private define ------------------------------------------------------------*/
 101:Drivers/STM32F4xx_HAL_Driver/Src/stm32f4xx_hal_adc_ex.c **** /* Private macro -------------------------------------------------------------*/
 102:Drivers/STM32F4xx_HAL_Driver/Src/stm32f4xx_hal_adc_ex.c **** /* Private variables ---------------------------------------------------------*/
 103:Drivers/STM32F4xx_HAL_Driver/Src/stm32f4xx_hal_adc_ex.c **** /** @addtogroup ADCEx_Private_Functions
 104:Drivers/STM32F4xx_HAL_Driver/Src/stm32f4xx_hal_adc_ex.c ****   * @{
 105:Drivers/STM32F4xx_HAL_Driver/Src/stm32f4xx_hal_adc_ex.c ****   */
 106:Drivers/STM32F4xx_HAL_Driver/Src/stm32f4xx_hal_adc_ex.c **** /* Private function prototypes -----------------------------------------------*/
 107:Drivers/STM32F4xx_HAL_Driver/Src/stm32f4xx_hal_adc_ex.c **** static void ADC_MultiModeDMAConvCplt(DMA_HandleTypeDef *hdma);
 108:Drivers/STM32F4xx_HAL_Driver/Src/stm32f4xx_hal_adc_ex.c **** static void ADC_MultiModeDMAError(DMA_HandleTypeDef *hdma);
 109:Drivers/STM32F4xx_HAL_Driver/Src/stm32f4xx_hal_adc_ex.c **** static void ADC_MultiModeDMAHalfConvCplt(DMA_HandleTypeDef *hdma);
 110:Drivers/STM32F4xx_HAL_Driver/Src/stm32f4xx_hal_adc_ex.c **** /**
 111:Drivers/STM32F4xx_HAL_Driver/Src/stm32f4xx_hal_adc_ex.c ****   * @}
 112:Drivers/STM32F4xx_HAL_Driver/Src/stm32f4xx_hal_adc_ex.c ****   */
 113:Drivers/STM32F4xx_HAL_Driver/Src/stm32f4xx_hal_adc_ex.c **** 
 114:Drivers/STM32F4xx_HAL_Driver/Src/stm32f4xx_hal_adc_ex.c **** /* Exported functions --------------------------------------------------------*/
 115:Drivers/STM32F4xx_HAL_Driver/Src/stm32f4xx_hal_adc_ex.c **** /** @defgroup ADCEx_Exported_Functions ADC Exported Functions
 116:Drivers/STM32F4xx_HAL_Driver/Src/stm32f4xx_hal_adc_ex.c ****   * @{
 117:Drivers/STM32F4xx_HAL_Driver/Src/stm32f4xx_hal_adc_ex.c ****   */
 118:Drivers/STM32F4xx_HAL_Driver/Src/stm32f4xx_hal_adc_ex.c **** 
 119:Drivers/STM32F4xx_HAL_Driver/Src/stm32f4xx_hal_adc_ex.c **** /** @defgroup ADCEx_Exported_Functions_Group1  Extended features functions
 120:Drivers/STM32F4xx_HAL_Driver/Src/stm32f4xx_hal_adc_ex.c ****   *  @brief    Extended features functions
 121:Drivers/STM32F4xx_HAL_Driver/Src/stm32f4xx_hal_adc_ex.c ****   *
 122:Drivers/STM32F4xx_HAL_Driver/Src/stm32f4xx_hal_adc_ex.c **** @verbatim
 123:Drivers/STM32F4xx_HAL_Driver/Src/stm32f4xx_hal_adc_ex.c ****  ===============================================================================
 124:Drivers/STM32F4xx_HAL_Driver/Src/stm32f4xx_hal_adc_ex.c ****                  ##### Extended features functions #####
 125:Drivers/STM32F4xx_HAL_Driver/Src/stm32f4xx_hal_adc_ex.c ****  ===============================================================================
 126:Drivers/STM32F4xx_HAL_Driver/Src/stm32f4xx_hal_adc_ex.c ****     [..]  This section provides functions allowing to:
 127:Drivers/STM32F4xx_HAL_Driver/Src/stm32f4xx_hal_adc_ex.c ****       (+) Start conversion of injected channel.
 128:Drivers/STM32F4xx_HAL_Driver/Src/stm32f4xx_hal_adc_ex.c ****       (+) Stop conversion of injected channel.
 129:Drivers/STM32F4xx_HAL_Driver/Src/stm32f4xx_hal_adc_ex.c ****       (+) Start multimode and enable DMA transfer.
 130:Drivers/STM32F4xx_HAL_Driver/Src/stm32f4xx_hal_adc_ex.c ****       (+) Stop multimode and disable DMA transfer.
 131:Drivers/STM32F4xx_HAL_Driver/Src/stm32f4xx_hal_adc_ex.c ****       (+) Get result of injected channel conversion.
 132:Drivers/STM32F4xx_HAL_Driver/Src/stm32f4xx_hal_adc_ex.c ****       (+) Get result of multimode conversion.
 133:Drivers/STM32F4xx_HAL_Driver/Src/stm32f4xx_hal_adc_ex.c ****       (+) Configure injected channels.
 134:Drivers/STM32F4xx_HAL_Driver/Src/stm32f4xx_hal_adc_ex.c ****       (+) Configure multimode.
 135:Drivers/STM32F4xx_HAL_Driver/Src/stm32f4xx_hal_adc_ex.c **** 
 136:Drivers/STM32F4xx_HAL_Driver/Src/stm32f4xx_hal_adc_ex.c **** @endverbatim
 137:Drivers/STM32F4xx_HAL_Driver/Src/stm32f4xx_hal_adc_ex.c ****   * @{
 138:Drivers/STM32F4xx_HAL_Driver/Src/stm32f4xx_hal_adc_ex.c ****   */
 139:Drivers/STM32F4xx_HAL_Driver/Src/stm32f4xx_hal_adc_ex.c **** 
 140:Drivers/STM32F4xx_HAL_Driver/Src/stm32f4xx_hal_adc_ex.c **** /**
 141:Drivers/STM32F4xx_HAL_Driver/Src/stm32f4xx_hal_adc_ex.c ****   * @brief  Enables the selected ADC software start conversion of the injected channels.
 142:Drivers/STM32F4xx_HAL_Driver/Src/stm32f4xx_hal_adc_ex.c ****   * @param  hadc pointer to a ADC_HandleTypeDef structure that contains
 143:Drivers/STM32F4xx_HAL_Driver/Src/stm32f4xx_hal_adc_ex.c ****   *         the configuration information for the specified ADC.
 144:Drivers/STM32F4xx_HAL_Driver/Src/stm32f4xx_hal_adc_ex.c ****   * @retval HAL status
ARM GAS  C:\Users\Halil\AppData\Local\Temp\ccl2Bawv.s 			page 4


 145:Drivers/STM32F4xx_HAL_Driver/Src/stm32f4xx_hal_adc_ex.c ****   */
 146:Drivers/STM32F4xx_HAL_Driver/Src/stm32f4xx_hal_adc_ex.c **** HAL_StatusTypeDef HAL_ADCEx_InjectedStart(ADC_HandleTypeDef *hadc)
 147:Drivers/STM32F4xx_HAL_Driver/Src/stm32f4xx_hal_adc_ex.c **** {
  29              		.loc 1 147 1
  30              		.cfi_startproc
  31              		@ args = 0, pretend = 0, frame = 24
  32              		@ frame_needed = 1, uses_anonymous_args = 0
  33              		@ link register save eliminated.
  34 0000 80B4     		push	{r7}
  35              		.cfi_def_cfa_offset 4
  36              		.cfi_offset 7, -4
  37 0002 87B0     		sub	sp, sp, #28
  38              		.cfi_def_cfa_offset 32
  39 0004 00AF     		add	r7, sp, #0
  40              		.cfi_def_cfa_register 7
  41 0006 7860     		str	r0, [r7, #4]
 148:Drivers/STM32F4xx_HAL_Driver/Src/stm32f4xx_hal_adc_ex.c ****   __IO uint32_t counter = 0U;
  42              		.loc 1 148 17
  43 0008 0023     		movs	r3, #0
  44 000a BB60     		str	r3, [r7, #8]
 149:Drivers/STM32F4xx_HAL_Driver/Src/stm32f4xx_hal_adc_ex.c ****   uint32_t tmp1 = 0U, tmp2 = 0U;
  45              		.loc 1 149 12
  46 000c 0023     		movs	r3, #0
  47 000e 7B61     		str	r3, [r7, #20]
  48              		.loc 1 149 23
  49 0010 0023     		movs	r3, #0
  50 0012 3B61     		str	r3, [r7, #16]
 150:Drivers/STM32F4xx_HAL_Driver/Src/stm32f4xx_hal_adc_ex.c ****   ADC_Common_TypeDef *tmpADC_Common;
 151:Drivers/STM32F4xx_HAL_Driver/Src/stm32f4xx_hal_adc_ex.c **** 
 152:Drivers/STM32F4xx_HAL_Driver/Src/stm32f4xx_hal_adc_ex.c ****   /* Process locked */
 153:Drivers/STM32F4xx_HAL_Driver/Src/stm32f4xx_hal_adc_ex.c ****   __HAL_LOCK(hadc);
  51              		.loc 1 153 3
  52 0014 7B68     		ldr	r3, [r7, #4]
  53 0016 93F83C30 		ldrb	r3, [r3, #60]	@ zero_extendqisi2
  54 001a 012B     		cmp	r3, #1
  55 001c 01D1     		bne	.L2
  56              		.loc 1 153 3 is_stmt 0 discriminator 1
  57 001e 0223     		movs	r3, #2
  58 0020 AAE0     		b	.L3
  59              	.L2:
  60              		.loc 1 153 3 discriminator 2
  61 0022 7B68     		ldr	r3, [r7, #4]
  62 0024 0122     		movs	r2, #1
  63 0026 83F83C20 		strb	r2, [r3, #60]
 154:Drivers/STM32F4xx_HAL_Driver/Src/stm32f4xx_hal_adc_ex.c **** 
 155:Drivers/STM32F4xx_HAL_Driver/Src/stm32f4xx_hal_adc_ex.c ****   /* Enable the ADC peripheral */
 156:Drivers/STM32F4xx_HAL_Driver/Src/stm32f4xx_hal_adc_ex.c **** 
 157:Drivers/STM32F4xx_HAL_Driver/Src/stm32f4xx_hal_adc_ex.c ****   /* Check if ADC peripheral is disabled in order to enable it and wait during
 158:Drivers/STM32F4xx_HAL_Driver/Src/stm32f4xx_hal_adc_ex.c ****      Tstab time the ADC's stabilization */
 159:Drivers/STM32F4xx_HAL_Driver/Src/stm32f4xx_hal_adc_ex.c ****   if ((hadc->Instance->CR2 & ADC_CR2_ADON) != ADC_CR2_ADON)
  64              		.loc 1 159 12 is_stmt 1 discriminator 2
  65 002a 7B68     		ldr	r3, [r7, #4]
  66 002c 1B68     		ldr	r3, [r3]
  67              		.loc 1 159 22 discriminator 2
  68 002e 9B68     		ldr	r3, [r3, #8]
  69              		.loc 1 159 28 discriminator 2
  70 0030 03F00103 		and	r3, r3, #1
ARM GAS  C:\Users\Halil\AppData\Local\Temp\ccl2Bawv.s 			page 5


  71              		.loc 1 159 6 discriminator 2
  72 0034 012B     		cmp	r3, #1
  73 0036 18D0     		beq	.L4
 160:Drivers/STM32F4xx_HAL_Driver/Src/stm32f4xx_hal_adc_ex.c ****   {
 161:Drivers/STM32F4xx_HAL_Driver/Src/stm32f4xx_hal_adc_ex.c ****     /* Enable the Peripheral */
 162:Drivers/STM32F4xx_HAL_Driver/Src/stm32f4xx_hal_adc_ex.c ****     __HAL_ADC_ENABLE(hadc);
  74              		.loc 1 162 5
  75 0038 7B68     		ldr	r3, [r7, #4]
  76 003a 1B68     		ldr	r3, [r3]
  77 003c 9A68     		ldr	r2, [r3, #8]
  78 003e 7B68     		ldr	r3, [r7, #4]
  79 0040 1B68     		ldr	r3, [r3]
  80 0042 42F00102 		orr	r2, r2, #1
  81 0046 9A60     		str	r2, [r3, #8]
 163:Drivers/STM32F4xx_HAL_Driver/Src/stm32f4xx_hal_adc_ex.c **** 
 164:Drivers/STM32F4xx_HAL_Driver/Src/stm32f4xx_hal_adc_ex.c ****     /* Delay for ADC stabilization time */
 165:Drivers/STM32F4xx_HAL_Driver/Src/stm32f4xx_hal_adc_ex.c ****     /* Compute number of CPU cycles to wait for */
 166:Drivers/STM32F4xx_HAL_Driver/Src/stm32f4xx_hal_adc_ex.c ****     counter = (ADC_STAB_DELAY_US * (SystemCoreClock / 1000000U));
  82              		.loc 1 166 53
  83 0048 4E4B     		ldr	r3, .L11
  84 004a 1B68     		ldr	r3, [r3]
  85 004c 4E4A     		ldr	r2, .L11+4
  86 004e A2FB0323 		umull	r2, r3, r2, r3
  87 0052 9A0C     		lsrs	r2, r3, #18
  88              		.loc 1 166 34
  89 0054 1346     		mov	r3, r2
  90 0056 5B00     		lsls	r3, r3, #1
  91 0058 1344     		add	r3, r3, r2
  92              		.loc 1 166 13
  93 005a BB60     		str	r3, [r7, #8]
 167:Drivers/STM32F4xx_HAL_Driver/Src/stm32f4xx_hal_adc_ex.c ****     while (counter != 0U)
  94              		.loc 1 167 11
  95 005c 02E0     		b	.L5
  96              	.L6:
 168:Drivers/STM32F4xx_HAL_Driver/Src/stm32f4xx_hal_adc_ex.c ****     {
 169:Drivers/STM32F4xx_HAL_Driver/Src/stm32f4xx_hal_adc_ex.c ****       counter--;
  97              		.loc 1 169 14
  98 005e BB68     		ldr	r3, [r7, #8]
  99 0060 013B     		subs	r3, r3, #1
 100 0062 BB60     		str	r3, [r7, #8]
 101              	.L5:
 167:Drivers/STM32F4xx_HAL_Driver/Src/stm32f4xx_hal_adc_ex.c ****     while (counter != 0U)
 102              		.loc 1 167 20
 103 0064 BB68     		ldr	r3, [r7, #8]
 104 0066 002B     		cmp	r3, #0
 105 0068 F9D1     		bne	.L6
 106              	.L4:
 170:Drivers/STM32F4xx_HAL_Driver/Src/stm32f4xx_hal_adc_ex.c ****     }
 171:Drivers/STM32F4xx_HAL_Driver/Src/stm32f4xx_hal_adc_ex.c ****   }
 172:Drivers/STM32F4xx_HAL_Driver/Src/stm32f4xx_hal_adc_ex.c **** 
 173:Drivers/STM32F4xx_HAL_Driver/Src/stm32f4xx_hal_adc_ex.c ****   /* Start conversion if ADC is effectively enabled */
 174:Drivers/STM32F4xx_HAL_Driver/Src/stm32f4xx_hal_adc_ex.c ****   if (HAL_IS_BIT_SET(hadc->Instance->CR2, ADC_CR2_ADON))
 107              		.loc 1 174 7
 108 006a 7B68     		ldr	r3, [r7, #4]
 109 006c 1B68     		ldr	r3, [r3]
 110 006e 9B68     		ldr	r3, [r3, #8]
 111 0070 03F00103 		and	r3, r3, #1
ARM GAS  C:\Users\Halil\AppData\Local\Temp\ccl2Bawv.s 			page 6


 112              		.loc 1 174 6
 113 0074 012B     		cmp	r3, #1
 114 0076 72D1     		bne	.L7
 175:Drivers/STM32F4xx_HAL_Driver/Src/stm32f4xx_hal_adc_ex.c ****   {
 176:Drivers/STM32F4xx_HAL_Driver/Src/stm32f4xx_hal_adc_ex.c ****     /* Set ADC state                                                          */
 177:Drivers/STM32F4xx_HAL_Driver/Src/stm32f4xx_hal_adc_ex.c ****     /* - Clear state bitfield related to injected group conversion results    */
 178:Drivers/STM32F4xx_HAL_Driver/Src/stm32f4xx_hal_adc_ex.c ****     /* - Set state bitfield related to injected operation                     */
 179:Drivers/STM32F4xx_HAL_Driver/Src/stm32f4xx_hal_adc_ex.c ****     ADC_STATE_CLR_SET(hadc->State,
 115              		.loc 1 179 5
 116 0078 7B68     		ldr	r3, [r7, #4]
 117 007a 1B6C     		ldr	r3, [r3, #64]
 118 007c 23F44053 		bic	r3, r3, #12288
 119 0080 23F00103 		bic	r3, r3, #1
 120 0084 43F48052 		orr	r2, r3, #4096
 121 0088 7B68     		ldr	r3, [r7, #4]
 122 008a 1A64     		str	r2, [r3, #64]
 180:Drivers/STM32F4xx_HAL_Driver/Src/stm32f4xx_hal_adc_ex.c ****                       HAL_ADC_STATE_READY | HAL_ADC_STATE_INJ_EOC,
 181:Drivers/STM32F4xx_HAL_Driver/Src/stm32f4xx_hal_adc_ex.c ****                       HAL_ADC_STATE_INJ_BUSY);
 182:Drivers/STM32F4xx_HAL_Driver/Src/stm32f4xx_hal_adc_ex.c **** 
 183:Drivers/STM32F4xx_HAL_Driver/Src/stm32f4xx_hal_adc_ex.c ****     /* Check if a regular conversion is ongoing */
 184:Drivers/STM32F4xx_HAL_Driver/Src/stm32f4xx_hal_adc_ex.c ****     /* Note: On this device, there is no ADC error code fields related to     */
 185:Drivers/STM32F4xx_HAL_Driver/Src/stm32f4xx_hal_adc_ex.c ****     /*       conversions on group injected only. In case of conversion on     */
 186:Drivers/STM32F4xx_HAL_Driver/Src/stm32f4xx_hal_adc_ex.c ****     /*       going on group regular, no error code is reset.                  */
 187:Drivers/STM32F4xx_HAL_Driver/Src/stm32f4xx_hal_adc_ex.c ****     if (HAL_IS_BIT_CLR(hadc->State, HAL_ADC_STATE_REG_BUSY))
 123              		.loc 1 187 9
 124 008c 7B68     		ldr	r3, [r7, #4]
 125 008e 1B6C     		ldr	r3, [r3, #64]
 126 0090 03F48073 		and	r3, r3, #256
 127              		.loc 1 187 8
 128 0094 002B     		cmp	r3, #0
 129 0096 02D1     		bne	.L8
 188:Drivers/STM32F4xx_HAL_Driver/Src/stm32f4xx_hal_adc_ex.c ****     {
 189:Drivers/STM32F4xx_HAL_Driver/Src/stm32f4xx_hal_adc_ex.c ****       /* Reset ADC all error code fields */
 190:Drivers/STM32F4xx_HAL_Driver/Src/stm32f4xx_hal_adc_ex.c ****       ADC_CLEAR_ERRORCODE(hadc);
 130              		.loc 1 190 7
 131 0098 7B68     		ldr	r3, [r7, #4]
 132 009a 0022     		movs	r2, #0
 133 009c 5A64     		str	r2, [r3, #68]
 134              	.L8:
 191:Drivers/STM32F4xx_HAL_Driver/Src/stm32f4xx_hal_adc_ex.c ****     }
 192:Drivers/STM32F4xx_HAL_Driver/Src/stm32f4xx_hal_adc_ex.c **** 
 193:Drivers/STM32F4xx_HAL_Driver/Src/stm32f4xx_hal_adc_ex.c ****     /* Process unlocked */
 194:Drivers/STM32F4xx_HAL_Driver/Src/stm32f4xx_hal_adc_ex.c ****     /* Unlock before starting ADC conversions: in case of potential           */
 195:Drivers/STM32F4xx_HAL_Driver/Src/stm32f4xx_hal_adc_ex.c ****     /* interruption, to let the process to ADC IRQ Handler.                   */
 196:Drivers/STM32F4xx_HAL_Driver/Src/stm32f4xx_hal_adc_ex.c ****     __HAL_UNLOCK(hadc);
 135              		.loc 1 196 5
 136 009e 7B68     		ldr	r3, [r7, #4]
 137 00a0 0022     		movs	r2, #0
 138 00a2 83F83C20 		strb	r2, [r3, #60]
 197:Drivers/STM32F4xx_HAL_Driver/Src/stm32f4xx_hal_adc_ex.c **** 
 198:Drivers/STM32F4xx_HAL_Driver/Src/stm32f4xx_hal_adc_ex.c ****     /* Clear injected group conversion flag */
 199:Drivers/STM32F4xx_HAL_Driver/Src/stm32f4xx_hal_adc_ex.c ****     /* (To ensure of no unknown state from potential previous ADC operations) */
 200:Drivers/STM32F4xx_HAL_Driver/Src/stm32f4xx_hal_adc_ex.c ****     __HAL_ADC_CLEAR_FLAG(hadc, ADC_FLAG_JEOC);
 139              		.loc 1 200 5
 140 00a6 7B68     		ldr	r3, [r7, #4]
 141 00a8 1B68     		ldr	r3, [r3]
 142 00aa 6FF00402 		mvn	r2, #4
ARM GAS  C:\Users\Halil\AppData\Local\Temp\ccl2Bawv.s 			page 7


 143 00ae 1A60     		str	r2, [r3]
 201:Drivers/STM32F4xx_HAL_Driver/Src/stm32f4xx_hal_adc_ex.c **** 
 202:Drivers/STM32F4xx_HAL_Driver/Src/stm32f4xx_hal_adc_ex.c ****     /* Pointer to the common control register to which is belonging hadc    */
 203:Drivers/STM32F4xx_HAL_Driver/Src/stm32f4xx_hal_adc_ex.c ****     /* (Depending on STM32F4 product, there may be up to 3 ADC and 1 common */
 204:Drivers/STM32F4xx_HAL_Driver/Src/stm32f4xx_hal_adc_ex.c ****     /* control register)                                                    */
 205:Drivers/STM32F4xx_HAL_Driver/Src/stm32f4xx_hal_adc_ex.c ****     tmpADC_Common = ADC_COMMON_REGISTER(hadc);
 144              		.loc 1 205 19
 145 00b0 364B     		ldr	r3, .L11+8
 146 00b2 FB60     		str	r3, [r7, #12]
 206:Drivers/STM32F4xx_HAL_Driver/Src/stm32f4xx_hal_adc_ex.c **** 
 207:Drivers/STM32F4xx_HAL_Driver/Src/stm32f4xx_hal_adc_ex.c ****     /* Check if Multimode enabled */
 208:Drivers/STM32F4xx_HAL_Driver/Src/stm32f4xx_hal_adc_ex.c ****     if (HAL_IS_BIT_CLR(tmpADC_Common->CCR, ADC_CCR_MULTI))
 147              		.loc 1 208 9
 148 00b4 FB68     		ldr	r3, [r7, #12]
 149 00b6 5B68     		ldr	r3, [r3, #4]
 150 00b8 03F01F03 		and	r3, r3, #31
 151              		.loc 1 208 8
 152 00bc 002B     		cmp	r3, #0
 153 00be 24D1     		bne	.L9
 209:Drivers/STM32F4xx_HAL_Driver/Src/stm32f4xx_hal_adc_ex.c ****     {
 210:Drivers/STM32F4xx_HAL_Driver/Src/stm32f4xx_hal_adc_ex.c ****       tmp1 = HAL_IS_BIT_CLR(hadc->Instance->CR2, ADC_CR2_JEXTEN);
 154              		.loc 1 210 14
 155 00c0 7B68     		ldr	r3, [r7, #4]
 156 00c2 1B68     		ldr	r3, [r3]
 157 00c4 9B68     		ldr	r3, [r3, #8]
 158 00c6 03F44013 		and	r3, r3, #3145728
 159 00ca 002B     		cmp	r3, #0
 160 00cc 0CBF     		ite	eq
 161 00ce 0123     		moveq	r3, #1
 162 00d0 0023     		movne	r3, #0
 163 00d2 DBB2     		uxtb	r3, r3
 164              		.loc 1 210 12
 165 00d4 7B61     		str	r3, [r7, #20]
 211:Drivers/STM32F4xx_HAL_Driver/Src/stm32f4xx_hal_adc_ex.c ****       tmp2 = HAL_IS_BIT_CLR(hadc->Instance->CR1, ADC_CR1_JAUTO);
 166              		.loc 1 211 14
 167 00d6 7B68     		ldr	r3, [r7, #4]
 168 00d8 1B68     		ldr	r3, [r3]
 169 00da 5B68     		ldr	r3, [r3, #4]
 170 00dc 03F48063 		and	r3, r3, #1024
 171 00e0 002B     		cmp	r3, #0
 172 00e2 0CBF     		ite	eq
 173 00e4 0123     		moveq	r3, #1
 174 00e6 0023     		movne	r3, #0
 175 00e8 DBB2     		uxtb	r3, r3
 176              		.loc 1 211 12
 177 00ea 3B61     		str	r3, [r7, #16]
 212:Drivers/STM32F4xx_HAL_Driver/Src/stm32f4xx_hal_adc_ex.c ****       if (tmp1 && tmp2)
 178              		.loc 1 212 10
 179 00ec 7B69     		ldr	r3, [r7, #20]
 180 00ee 002B     		cmp	r3, #0
 181 00f0 41D0     		beq	.L10
 182              		.loc 1 212 16 discriminator 1
 183 00f2 3B69     		ldr	r3, [r7, #16]
 184 00f4 002B     		cmp	r3, #0
 185 00f6 3ED0     		beq	.L10
 213:Drivers/STM32F4xx_HAL_Driver/Src/stm32f4xx_hal_adc_ex.c ****       {
 214:Drivers/STM32F4xx_HAL_Driver/Src/stm32f4xx_hal_adc_ex.c ****         /* Enable the selected ADC software conversion for injected group */
ARM GAS  C:\Users\Halil\AppData\Local\Temp\ccl2Bawv.s 			page 8


 215:Drivers/STM32F4xx_HAL_Driver/Src/stm32f4xx_hal_adc_ex.c ****         hadc->Instance->CR2 |= ADC_CR2_JSWSTART;
 186              		.loc 1 215 13
 187 00f8 7B68     		ldr	r3, [r7, #4]
 188 00fa 1B68     		ldr	r3, [r3]
 189              		.loc 1 215 23
 190 00fc 9A68     		ldr	r2, [r3, #8]
 191              		.loc 1 215 13
 192 00fe 7B68     		ldr	r3, [r7, #4]
 193 0100 1B68     		ldr	r3, [r3]
 194              		.loc 1 215 29
 195 0102 42F48002 		orr	r2, r2, #4194304
 196 0106 9A60     		str	r2, [r3, #8]
 197 0108 35E0     		b	.L10
 198              	.L9:
 216:Drivers/STM32F4xx_HAL_Driver/Src/stm32f4xx_hal_adc_ex.c ****       }
 217:Drivers/STM32F4xx_HAL_Driver/Src/stm32f4xx_hal_adc_ex.c ****     }
 218:Drivers/STM32F4xx_HAL_Driver/Src/stm32f4xx_hal_adc_ex.c ****     else
 219:Drivers/STM32F4xx_HAL_Driver/Src/stm32f4xx_hal_adc_ex.c ****     {
 220:Drivers/STM32F4xx_HAL_Driver/Src/stm32f4xx_hal_adc_ex.c ****       tmp1 = HAL_IS_BIT_CLR(hadc->Instance->CR2, ADC_CR2_JEXTEN);
 199              		.loc 1 220 14
 200 010a 7B68     		ldr	r3, [r7, #4]
 201 010c 1B68     		ldr	r3, [r3]
 202 010e 9B68     		ldr	r3, [r3, #8]
 203 0110 03F44013 		and	r3, r3, #3145728
 204 0114 002B     		cmp	r3, #0
 205 0116 0CBF     		ite	eq
 206 0118 0123     		moveq	r3, #1
 207 011a 0023     		movne	r3, #0
 208 011c DBB2     		uxtb	r3, r3
 209              		.loc 1 220 12
 210 011e 7B61     		str	r3, [r7, #20]
 221:Drivers/STM32F4xx_HAL_Driver/Src/stm32f4xx_hal_adc_ex.c ****       tmp2 = HAL_IS_BIT_CLR(hadc->Instance->CR1, ADC_CR1_JAUTO);
 211              		.loc 1 221 14
 212 0120 7B68     		ldr	r3, [r7, #4]
 213 0122 1B68     		ldr	r3, [r3]
 214 0124 5B68     		ldr	r3, [r3, #4]
 215 0126 03F48063 		and	r3, r3, #1024
 216 012a 002B     		cmp	r3, #0
 217 012c 0CBF     		ite	eq
 218 012e 0123     		moveq	r3, #1
 219 0130 0023     		movne	r3, #0
 220 0132 DBB2     		uxtb	r3, r3
 221              		.loc 1 221 12
 222 0134 3B61     		str	r3, [r7, #16]
 222:Drivers/STM32F4xx_HAL_Driver/Src/stm32f4xx_hal_adc_ex.c ****       if ((hadc->Instance == ADC1) && tmp1 && tmp2)
 223              		.loc 1 222 16
 224 0136 7B68     		ldr	r3, [r7, #4]
 225 0138 1B68     		ldr	r3, [r3]
 226              		.loc 1 222 10
 227 013a 154A     		ldr	r2, .L11+12
 228 013c 9342     		cmp	r3, r2
 229 013e 1AD1     		bne	.L10
 230              		.loc 1 222 36 discriminator 1
 231 0140 7B69     		ldr	r3, [r7, #20]
 232 0142 002B     		cmp	r3, #0
 233 0144 17D0     		beq	.L10
 234              		.loc 1 222 44 discriminator 2
ARM GAS  C:\Users\Halil\AppData\Local\Temp\ccl2Bawv.s 			page 9


 235 0146 3B69     		ldr	r3, [r7, #16]
 236 0148 002B     		cmp	r3, #0
 237 014a 14D0     		beq	.L10
 223:Drivers/STM32F4xx_HAL_Driver/Src/stm32f4xx_hal_adc_ex.c ****       {
 224:Drivers/STM32F4xx_HAL_Driver/Src/stm32f4xx_hal_adc_ex.c ****         /* Enable the selected ADC software conversion for injected group */
 225:Drivers/STM32F4xx_HAL_Driver/Src/stm32f4xx_hal_adc_ex.c ****         hadc->Instance->CR2 |= ADC_CR2_JSWSTART;
 238              		.loc 1 225 13
 239 014c 7B68     		ldr	r3, [r7, #4]
 240 014e 1B68     		ldr	r3, [r3]
 241              		.loc 1 225 23
 242 0150 9A68     		ldr	r2, [r3, #8]
 243              		.loc 1 225 13
 244 0152 7B68     		ldr	r3, [r7, #4]
 245 0154 1B68     		ldr	r3, [r3]
 246              		.loc 1 225 29
 247 0156 42F48002 		orr	r2, r2, #4194304
 248 015a 9A60     		str	r2, [r3, #8]
 249 015c 0BE0     		b	.L10
 250              	.L7:
 226:Drivers/STM32F4xx_HAL_Driver/Src/stm32f4xx_hal_adc_ex.c ****       }
 227:Drivers/STM32F4xx_HAL_Driver/Src/stm32f4xx_hal_adc_ex.c ****     }
 228:Drivers/STM32F4xx_HAL_Driver/Src/stm32f4xx_hal_adc_ex.c ****   }
 229:Drivers/STM32F4xx_HAL_Driver/Src/stm32f4xx_hal_adc_ex.c ****   else
 230:Drivers/STM32F4xx_HAL_Driver/Src/stm32f4xx_hal_adc_ex.c ****   {
 231:Drivers/STM32F4xx_HAL_Driver/Src/stm32f4xx_hal_adc_ex.c ****     /* Update ADC state machine to error */
 232:Drivers/STM32F4xx_HAL_Driver/Src/stm32f4xx_hal_adc_ex.c ****     SET_BIT(hadc->State, HAL_ADC_STATE_ERROR_INTERNAL);
 251              		.loc 1 232 5
 252 015e 7B68     		ldr	r3, [r7, #4]
 253 0160 1B6C     		ldr	r3, [r3, #64]
 254 0162 43F01002 		orr	r2, r3, #16
 255 0166 7B68     		ldr	r3, [r7, #4]
 256 0168 1A64     		str	r2, [r3, #64]
 233:Drivers/STM32F4xx_HAL_Driver/Src/stm32f4xx_hal_adc_ex.c **** 
 234:Drivers/STM32F4xx_HAL_Driver/Src/stm32f4xx_hal_adc_ex.c ****     /* Set ADC error code to ADC IP internal error */
 235:Drivers/STM32F4xx_HAL_Driver/Src/stm32f4xx_hal_adc_ex.c ****     SET_BIT(hadc->ErrorCode, HAL_ADC_ERROR_INTERNAL);
 257              		.loc 1 235 5
 258 016a 7B68     		ldr	r3, [r7, #4]
 259 016c 5B6C     		ldr	r3, [r3, #68]
 260 016e 43F00102 		orr	r2, r3, #1
 261 0172 7B68     		ldr	r3, [r7, #4]
 262 0174 5A64     		str	r2, [r3, #68]
 263              	.L10:
 236:Drivers/STM32F4xx_HAL_Driver/Src/stm32f4xx_hal_adc_ex.c ****   }
 237:Drivers/STM32F4xx_HAL_Driver/Src/stm32f4xx_hal_adc_ex.c **** 
 238:Drivers/STM32F4xx_HAL_Driver/Src/stm32f4xx_hal_adc_ex.c ****   /* Return function status */
 239:Drivers/STM32F4xx_HAL_Driver/Src/stm32f4xx_hal_adc_ex.c ****   return HAL_OK;
 264              		.loc 1 239 10
 265 0176 0023     		movs	r3, #0
 266              	.L3:
 240:Drivers/STM32F4xx_HAL_Driver/Src/stm32f4xx_hal_adc_ex.c **** }
 267              		.loc 1 240 1
 268 0178 1846     		mov	r0, r3
 269 017a 1C37     		adds	r7, r7, #28
 270              		.cfi_def_cfa_offset 4
 271 017c BD46     		mov	sp, r7
 272              		.cfi_def_cfa_register 13
 273              		@ sp needed
ARM GAS  C:\Users\Halil\AppData\Local\Temp\ccl2Bawv.s 			page 10


 274 017e 5DF8047B 		ldr	r7, [sp], #4
 275              		.cfi_restore 7
 276              		.cfi_def_cfa_offset 0
 277 0182 7047     		bx	lr
 278              	.L12:
 279              		.align	2
 280              	.L11:
 281 0184 00000000 		.word	SystemCoreClock
 282 0188 83DE1B43 		.word	1125899907
 283 018c 00230140 		.word	1073816320
 284 0190 00200140 		.word	1073815552
 285              		.cfi_endproc
 286              	.LFE239:
 288              		.section	.text.HAL_ADCEx_InjectedStart_IT,"ax",%progbits
 289              		.align	1
 290              		.global	HAL_ADCEx_InjectedStart_IT
 291              		.syntax unified
 292              		.thumb
 293              		.thumb_func
 295              	HAL_ADCEx_InjectedStart_IT:
 296              	.LFB240:
 241:Drivers/STM32F4xx_HAL_Driver/Src/stm32f4xx_hal_adc_ex.c **** 
 242:Drivers/STM32F4xx_HAL_Driver/Src/stm32f4xx_hal_adc_ex.c **** /**
 243:Drivers/STM32F4xx_HAL_Driver/Src/stm32f4xx_hal_adc_ex.c ****   * @brief  Enables the interrupt and starts ADC conversion of injected channels.
 244:Drivers/STM32F4xx_HAL_Driver/Src/stm32f4xx_hal_adc_ex.c ****   * @param  hadc pointer to a ADC_HandleTypeDef structure that contains
 245:Drivers/STM32F4xx_HAL_Driver/Src/stm32f4xx_hal_adc_ex.c ****   *         the configuration information for the specified ADC.
 246:Drivers/STM32F4xx_HAL_Driver/Src/stm32f4xx_hal_adc_ex.c ****   *
 247:Drivers/STM32F4xx_HAL_Driver/Src/stm32f4xx_hal_adc_ex.c ****   * @retval HAL status.
 248:Drivers/STM32F4xx_HAL_Driver/Src/stm32f4xx_hal_adc_ex.c ****   */
 249:Drivers/STM32F4xx_HAL_Driver/Src/stm32f4xx_hal_adc_ex.c **** HAL_StatusTypeDef HAL_ADCEx_InjectedStart_IT(ADC_HandleTypeDef *hadc)
 250:Drivers/STM32F4xx_HAL_Driver/Src/stm32f4xx_hal_adc_ex.c **** {
 297              		.loc 1 250 1
 298              		.cfi_startproc
 299              		@ args = 0, pretend = 0, frame = 24
 300              		@ frame_needed = 1, uses_anonymous_args = 0
 301              		@ link register save eliminated.
 302 0000 80B4     		push	{r7}
 303              		.cfi_def_cfa_offset 4
 304              		.cfi_offset 7, -4
 305 0002 87B0     		sub	sp, sp, #28
 306              		.cfi_def_cfa_offset 32
 307 0004 00AF     		add	r7, sp, #0
 308              		.cfi_def_cfa_register 7
 309 0006 7860     		str	r0, [r7, #4]
 251:Drivers/STM32F4xx_HAL_Driver/Src/stm32f4xx_hal_adc_ex.c ****   __IO uint32_t counter = 0U;
 310              		.loc 1 251 17
 311 0008 0023     		movs	r3, #0
 312 000a BB60     		str	r3, [r7, #8]
 252:Drivers/STM32F4xx_HAL_Driver/Src/stm32f4xx_hal_adc_ex.c ****   uint32_t tmp1 = 0U, tmp2 = 0U;
 313              		.loc 1 252 12
 314 000c 0023     		movs	r3, #0
 315 000e 7B61     		str	r3, [r7, #20]
 316              		.loc 1 252 23
 317 0010 0023     		movs	r3, #0
 318 0012 3B61     		str	r3, [r7, #16]
 253:Drivers/STM32F4xx_HAL_Driver/Src/stm32f4xx_hal_adc_ex.c ****   ADC_Common_TypeDef *tmpADC_Common;
 254:Drivers/STM32F4xx_HAL_Driver/Src/stm32f4xx_hal_adc_ex.c **** 
ARM GAS  C:\Users\Halil\AppData\Local\Temp\ccl2Bawv.s 			page 11


 255:Drivers/STM32F4xx_HAL_Driver/Src/stm32f4xx_hal_adc_ex.c ****   /* Process locked */
 256:Drivers/STM32F4xx_HAL_Driver/Src/stm32f4xx_hal_adc_ex.c ****   __HAL_LOCK(hadc);
 319              		.loc 1 256 3
 320 0014 7B68     		ldr	r3, [r7, #4]
 321 0016 93F83C30 		ldrb	r3, [r3, #60]	@ zero_extendqisi2
 322 001a 012B     		cmp	r3, #1
 323 001c 01D1     		bne	.L14
 324              		.loc 1 256 3 is_stmt 0 discriminator 1
 325 001e 0223     		movs	r3, #2
 326 0020 B2E0     		b	.L15
 327              	.L14:
 328              		.loc 1 256 3 discriminator 2
 329 0022 7B68     		ldr	r3, [r7, #4]
 330 0024 0122     		movs	r2, #1
 331 0026 83F83C20 		strb	r2, [r3, #60]
 257:Drivers/STM32F4xx_HAL_Driver/Src/stm32f4xx_hal_adc_ex.c **** 
 258:Drivers/STM32F4xx_HAL_Driver/Src/stm32f4xx_hal_adc_ex.c ****   /* Enable the ADC peripheral */
 259:Drivers/STM32F4xx_HAL_Driver/Src/stm32f4xx_hal_adc_ex.c **** 
 260:Drivers/STM32F4xx_HAL_Driver/Src/stm32f4xx_hal_adc_ex.c ****   /* Check if ADC peripheral is disabled in order to enable it and wait during
 261:Drivers/STM32F4xx_HAL_Driver/Src/stm32f4xx_hal_adc_ex.c ****      Tstab time the ADC's stabilization */
 262:Drivers/STM32F4xx_HAL_Driver/Src/stm32f4xx_hal_adc_ex.c ****   if ((hadc->Instance->CR2 & ADC_CR2_ADON) != ADC_CR2_ADON)
 332              		.loc 1 262 12 is_stmt 1 discriminator 2
 333 002a 7B68     		ldr	r3, [r7, #4]
 334 002c 1B68     		ldr	r3, [r3]
 335              		.loc 1 262 22 discriminator 2
 336 002e 9B68     		ldr	r3, [r3, #8]
 337              		.loc 1 262 28 discriminator 2
 338 0030 03F00103 		and	r3, r3, #1
 339              		.loc 1 262 6 discriminator 2
 340 0034 012B     		cmp	r3, #1
 341 0036 18D0     		beq	.L16
 263:Drivers/STM32F4xx_HAL_Driver/Src/stm32f4xx_hal_adc_ex.c ****   {
 264:Drivers/STM32F4xx_HAL_Driver/Src/stm32f4xx_hal_adc_ex.c ****     /* Enable the Peripheral */
 265:Drivers/STM32F4xx_HAL_Driver/Src/stm32f4xx_hal_adc_ex.c ****     __HAL_ADC_ENABLE(hadc);
 342              		.loc 1 265 5
 343 0038 7B68     		ldr	r3, [r7, #4]
 344 003a 1B68     		ldr	r3, [r3]
 345 003c 9A68     		ldr	r2, [r3, #8]
 346 003e 7B68     		ldr	r3, [r7, #4]
 347 0040 1B68     		ldr	r3, [r3]
 348 0042 42F00102 		orr	r2, r2, #1
 349 0046 9A60     		str	r2, [r3, #8]
 266:Drivers/STM32F4xx_HAL_Driver/Src/stm32f4xx_hal_adc_ex.c **** 
 267:Drivers/STM32F4xx_HAL_Driver/Src/stm32f4xx_hal_adc_ex.c ****     /* Delay for ADC stabilization time */
 268:Drivers/STM32F4xx_HAL_Driver/Src/stm32f4xx_hal_adc_ex.c ****     /* Compute number of CPU cycles to wait for */
 269:Drivers/STM32F4xx_HAL_Driver/Src/stm32f4xx_hal_adc_ex.c ****     counter = (ADC_STAB_DELAY_US * (SystemCoreClock / 1000000U));
 350              		.loc 1 269 53
 351 0048 524B     		ldr	r3, .L23
 352 004a 1B68     		ldr	r3, [r3]
 353 004c 524A     		ldr	r2, .L23+4
 354 004e A2FB0323 		umull	r2, r3, r2, r3
 355 0052 9A0C     		lsrs	r2, r3, #18
 356              		.loc 1 269 34
 357 0054 1346     		mov	r3, r2
 358 0056 5B00     		lsls	r3, r3, #1
 359 0058 1344     		add	r3, r3, r2
 360              		.loc 1 269 13
ARM GAS  C:\Users\Halil\AppData\Local\Temp\ccl2Bawv.s 			page 12


 361 005a BB60     		str	r3, [r7, #8]
 270:Drivers/STM32F4xx_HAL_Driver/Src/stm32f4xx_hal_adc_ex.c ****     while (counter != 0U)
 362              		.loc 1 270 11
 363 005c 02E0     		b	.L17
 364              	.L18:
 271:Drivers/STM32F4xx_HAL_Driver/Src/stm32f4xx_hal_adc_ex.c ****     {
 272:Drivers/STM32F4xx_HAL_Driver/Src/stm32f4xx_hal_adc_ex.c ****       counter--;
 365              		.loc 1 272 14
 366 005e BB68     		ldr	r3, [r7, #8]
 367 0060 013B     		subs	r3, r3, #1
 368 0062 BB60     		str	r3, [r7, #8]
 369              	.L17:
 270:Drivers/STM32F4xx_HAL_Driver/Src/stm32f4xx_hal_adc_ex.c ****     while (counter != 0U)
 370              		.loc 1 270 20
 371 0064 BB68     		ldr	r3, [r7, #8]
 372 0066 002B     		cmp	r3, #0
 373 0068 F9D1     		bne	.L18
 374              	.L16:
 273:Drivers/STM32F4xx_HAL_Driver/Src/stm32f4xx_hal_adc_ex.c ****     }
 274:Drivers/STM32F4xx_HAL_Driver/Src/stm32f4xx_hal_adc_ex.c ****   }
 275:Drivers/STM32F4xx_HAL_Driver/Src/stm32f4xx_hal_adc_ex.c **** 
 276:Drivers/STM32F4xx_HAL_Driver/Src/stm32f4xx_hal_adc_ex.c ****   /* Start conversion if ADC is effectively enabled */
 277:Drivers/STM32F4xx_HAL_Driver/Src/stm32f4xx_hal_adc_ex.c ****   if (HAL_IS_BIT_SET(hadc->Instance->CR2, ADC_CR2_ADON))
 375              		.loc 1 277 7
 376 006a 7B68     		ldr	r3, [r7, #4]
 377 006c 1B68     		ldr	r3, [r3]
 378 006e 9B68     		ldr	r3, [r3, #8]
 379 0070 03F00103 		and	r3, r3, #1
 380              		.loc 1 277 6
 381 0074 012B     		cmp	r3, #1
 382 0076 7AD1     		bne	.L19
 278:Drivers/STM32F4xx_HAL_Driver/Src/stm32f4xx_hal_adc_ex.c ****   {
 279:Drivers/STM32F4xx_HAL_Driver/Src/stm32f4xx_hal_adc_ex.c ****     /* Set ADC state                                                          */
 280:Drivers/STM32F4xx_HAL_Driver/Src/stm32f4xx_hal_adc_ex.c ****     /* - Clear state bitfield related to injected group conversion results    */
 281:Drivers/STM32F4xx_HAL_Driver/Src/stm32f4xx_hal_adc_ex.c ****     /* - Set state bitfield related to injected operation                     */
 282:Drivers/STM32F4xx_HAL_Driver/Src/stm32f4xx_hal_adc_ex.c ****     ADC_STATE_CLR_SET(hadc->State,
 383              		.loc 1 282 5
 384 0078 7B68     		ldr	r3, [r7, #4]
 385 007a 1B6C     		ldr	r3, [r3, #64]
 386 007c 23F44053 		bic	r3, r3, #12288
 387 0080 23F00103 		bic	r3, r3, #1
 388 0084 43F48052 		orr	r2, r3, #4096
 389 0088 7B68     		ldr	r3, [r7, #4]
 390 008a 1A64     		str	r2, [r3, #64]
 283:Drivers/STM32F4xx_HAL_Driver/Src/stm32f4xx_hal_adc_ex.c ****                       HAL_ADC_STATE_READY | HAL_ADC_STATE_INJ_EOC,
 284:Drivers/STM32F4xx_HAL_Driver/Src/stm32f4xx_hal_adc_ex.c ****                       HAL_ADC_STATE_INJ_BUSY);
 285:Drivers/STM32F4xx_HAL_Driver/Src/stm32f4xx_hal_adc_ex.c **** 
 286:Drivers/STM32F4xx_HAL_Driver/Src/stm32f4xx_hal_adc_ex.c ****     /* Check if a regular conversion is ongoing */
 287:Drivers/STM32F4xx_HAL_Driver/Src/stm32f4xx_hal_adc_ex.c ****     /* Note: On this device, there is no ADC error code fields related to     */
 288:Drivers/STM32F4xx_HAL_Driver/Src/stm32f4xx_hal_adc_ex.c ****     /*       conversions on group injected only. In case of conversion on     */
 289:Drivers/STM32F4xx_HAL_Driver/Src/stm32f4xx_hal_adc_ex.c ****     /*       going on group regular, no error code is reset.                  */
 290:Drivers/STM32F4xx_HAL_Driver/Src/stm32f4xx_hal_adc_ex.c ****     if (HAL_IS_BIT_CLR(hadc->State, HAL_ADC_STATE_REG_BUSY))
 391              		.loc 1 290 9
 392 008c 7B68     		ldr	r3, [r7, #4]
 393 008e 1B6C     		ldr	r3, [r3, #64]
 394 0090 03F48073 		and	r3, r3, #256
 395              		.loc 1 290 8
ARM GAS  C:\Users\Halil\AppData\Local\Temp\ccl2Bawv.s 			page 13


 396 0094 002B     		cmp	r3, #0
 397 0096 02D1     		bne	.L20
 291:Drivers/STM32F4xx_HAL_Driver/Src/stm32f4xx_hal_adc_ex.c ****     {
 292:Drivers/STM32F4xx_HAL_Driver/Src/stm32f4xx_hal_adc_ex.c ****       /* Reset ADC all error code fields */
 293:Drivers/STM32F4xx_HAL_Driver/Src/stm32f4xx_hal_adc_ex.c ****       ADC_CLEAR_ERRORCODE(hadc);
 398              		.loc 1 293 7
 399 0098 7B68     		ldr	r3, [r7, #4]
 400 009a 0022     		movs	r2, #0
 401 009c 5A64     		str	r2, [r3, #68]
 402              	.L20:
 294:Drivers/STM32F4xx_HAL_Driver/Src/stm32f4xx_hal_adc_ex.c ****     }
 295:Drivers/STM32F4xx_HAL_Driver/Src/stm32f4xx_hal_adc_ex.c **** 
 296:Drivers/STM32F4xx_HAL_Driver/Src/stm32f4xx_hal_adc_ex.c ****     /* Process unlocked */
 297:Drivers/STM32F4xx_HAL_Driver/Src/stm32f4xx_hal_adc_ex.c ****     /* Unlock before starting ADC conversions: in case of potential           */
 298:Drivers/STM32F4xx_HAL_Driver/Src/stm32f4xx_hal_adc_ex.c ****     /* interruption, to let the process to ADC IRQ Handler.                   */
 299:Drivers/STM32F4xx_HAL_Driver/Src/stm32f4xx_hal_adc_ex.c ****     __HAL_UNLOCK(hadc);
 403              		.loc 1 299 5
 404 009e 7B68     		ldr	r3, [r7, #4]
 405 00a0 0022     		movs	r2, #0
 406 00a2 83F83C20 		strb	r2, [r3, #60]
 300:Drivers/STM32F4xx_HAL_Driver/Src/stm32f4xx_hal_adc_ex.c **** 
 301:Drivers/STM32F4xx_HAL_Driver/Src/stm32f4xx_hal_adc_ex.c ****     /* Clear injected group conversion flag */
 302:Drivers/STM32F4xx_HAL_Driver/Src/stm32f4xx_hal_adc_ex.c ****     /* (To ensure of no unknown state from potential previous ADC operations) */
 303:Drivers/STM32F4xx_HAL_Driver/Src/stm32f4xx_hal_adc_ex.c ****     __HAL_ADC_CLEAR_FLAG(hadc, ADC_FLAG_JEOC);
 407              		.loc 1 303 5
 408 00a6 7B68     		ldr	r3, [r7, #4]
 409 00a8 1B68     		ldr	r3, [r3]
 410 00aa 6FF00402 		mvn	r2, #4
 411 00ae 1A60     		str	r2, [r3]
 304:Drivers/STM32F4xx_HAL_Driver/Src/stm32f4xx_hal_adc_ex.c **** 
 305:Drivers/STM32F4xx_HAL_Driver/Src/stm32f4xx_hal_adc_ex.c ****     /* Enable end of conversion interrupt for injected channels */
 306:Drivers/STM32F4xx_HAL_Driver/Src/stm32f4xx_hal_adc_ex.c ****     __HAL_ADC_ENABLE_IT(hadc, ADC_IT_JEOC);
 412              		.loc 1 306 5
 413 00b0 7B68     		ldr	r3, [r7, #4]
 414 00b2 1B68     		ldr	r3, [r3]
 415 00b4 5A68     		ldr	r2, [r3, #4]
 416 00b6 7B68     		ldr	r3, [r7, #4]
 417 00b8 1B68     		ldr	r3, [r3]
 418 00ba 42F08002 		orr	r2, r2, #128
 419 00be 5A60     		str	r2, [r3, #4]
 307:Drivers/STM32F4xx_HAL_Driver/Src/stm32f4xx_hal_adc_ex.c **** 
 308:Drivers/STM32F4xx_HAL_Driver/Src/stm32f4xx_hal_adc_ex.c ****     /* Pointer to the common control register to which is belonging hadc    */
 309:Drivers/STM32F4xx_HAL_Driver/Src/stm32f4xx_hal_adc_ex.c ****     /* (Depending on STM32F4 product, there may be up to 3 ADC and 1 common */
 310:Drivers/STM32F4xx_HAL_Driver/Src/stm32f4xx_hal_adc_ex.c ****     /* control register)                                                    */
 311:Drivers/STM32F4xx_HAL_Driver/Src/stm32f4xx_hal_adc_ex.c ****     tmpADC_Common = ADC_COMMON_REGISTER(hadc);
 420              		.loc 1 311 19
 421 00c0 364B     		ldr	r3, .L23+8
 422 00c2 FB60     		str	r3, [r7, #12]
 312:Drivers/STM32F4xx_HAL_Driver/Src/stm32f4xx_hal_adc_ex.c **** 
 313:Drivers/STM32F4xx_HAL_Driver/Src/stm32f4xx_hal_adc_ex.c ****     /* Check if Multimode enabled */
 314:Drivers/STM32F4xx_HAL_Driver/Src/stm32f4xx_hal_adc_ex.c ****     if (HAL_IS_BIT_CLR(tmpADC_Common->CCR, ADC_CCR_MULTI))
 423              		.loc 1 314 9
 424 00c4 FB68     		ldr	r3, [r7, #12]
 425 00c6 5B68     		ldr	r3, [r3, #4]
 426 00c8 03F01F03 		and	r3, r3, #31
 427              		.loc 1 314 8
 428 00cc 002B     		cmp	r3, #0
ARM GAS  C:\Users\Halil\AppData\Local\Temp\ccl2Bawv.s 			page 14


 429 00ce 24D1     		bne	.L21
 315:Drivers/STM32F4xx_HAL_Driver/Src/stm32f4xx_hal_adc_ex.c ****     {
 316:Drivers/STM32F4xx_HAL_Driver/Src/stm32f4xx_hal_adc_ex.c ****       tmp1 = HAL_IS_BIT_CLR(hadc->Instance->CR2, ADC_CR2_JEXTEN);
 430              		.loc 1 316 14
 431 00d0 7B68     		ldr	r3, [r7, #4]
 432 00d2 1B68     		ldr	r3, [r3]
 433 00d4 9B68     		ldr	r3, [r3, #8]
 434 00d6 03F44013 		and	r3, r3, #3145728
 435 00da 002B     		cmp	r3, #0
 436 00dc 0CBF     		ite	eq
 437 00de 0123     		moveq	r3, #1
 438 00e0 0023     		movne	r3, #0
 439 00e2 DBB2     		uxtb	r3, r3
 440              		.loc 1 316 12
 441 00e4 7B61     		str	r3, [r7, #20]
 317:Drivers/STM32F4xx_HAL_Driver/Src/stm32f4xx_hal_adc_ex.c ****       tmp2 = HAL_IS_BIT_CLR(hadc->Instance->CR1, ADC_CR1_JAUTO);
 442              		.loc 1 317 14
 443 00e6 7B68     		ldr	r3, [r7, #4]
 444 00e8 1B68     		ldr	r3, [r3]
 445 00ea 5B68     		ldr	r3, [r3, #4]
 446 00ec 03F48063 		and	r3, r3, #1024
 447 00f0 002B     		cmp	r3, #0
 448 00f2 0CBF     		ite	eq
 449 00f4 0123     		moveq	r3, #1
 450 00f6 0023     		movne	r3, #0
 451 00f8 DBB2     		uxtb	r3, r3
 452              		.loc 1 317 12
 453 00fa 3B61     		str	r3, [r7, #16]
 318:Drivers/STM32F4xx_HAL_Driver/Src/stm32f4xx_hal_adc_ex.c ****       if (tmp1 && tmp2)
 454              		.loc 1 318 10
 455 00fc 7B69     		ldr	r3, [r7, #20]
 456 00fe 002B     		cmp	r3, #0
 457 0100 41D0     		beq	.L22
 458              		.loc 1 318 16 discriminator 1
 459 0102 3B69     		ldr	r3, [r7, #16]
 460 0104 002B     		cmp	r3, #0
 461 0106 3ED0     		beq	.L22
 319:Drivers/STM32F4xx_HAL_Driver/Src/stm32f4xx_hal_adc_ex.c ****       {
 320:Drivers/STM32F4xx_HAL_Driver/Src/stm32f4xx_hal_adc_ex.c ****         /* Enable the selected ADC software conversion for injected group */
 321:Drivers/STM32F4xx_HAL_Driver/Src/stm32f4xx_hal_adc_ex.c ****         hadc->Instance->CR2 |= ADC_CR2_JSWSTART;
 462              		.loc 1 321 13
 463 0108 7B68     		ldr	r3, [r7, #4]
 464 010a 1B68     		ldr	r3, [r3]
 465              		.loc 1 321 23
 466 010c 9A68     		ldr	r2, [r3, #8]
 467              		.loc 1 321 13
 468 010e 7B68     		ldr	r3, [r7, #4]
 469 0110 1B68     		ldr	r3, [r3]
 470              		.loc 1 321 29
 471 0112 42F48002 		orr	r2, r2, #4194304
 472 0116 9A60     		str	r2, [r3, #8]
 473 0118 35E0     		b	.L22
 474              	.L21:
 322:Drivers/STM32F4xx_HAL_Driver/Src/stm32f4xx_hal_adc_ex.c ****       }
 323:Drivers/STM32F4xx_HAL_Driver/Src/stm32f4xx_hal_adc_ex.c ****     }
 324:Drivers/STM32F4xx_HAL_Driver/Src/stm32f4xx_hal_adc_ex.c ****     else
 325:Drivers/STM32F4xx_HAL_Driver/Src/stm32f4xx_hal_adc_ex.c ****     {
ARM GAS  C:\Users\Halil\AppData\Local\Temp\ccl2Bawv.s 			page 15


 326:Drivers/STM32F4xx_HAL_Driver/Src/stm32f4xx_hal_adc_ex.c ****       tmp1 = HAL_IS_BIT_CLR(hadc->Instance->CR2, ADC_CR2_JEXTEN);
 475              		.loc 1 326 14
 476 011a 7B68     		ldr	r3, [r7, #4]
 477 011c 1B68     		ldr	r3, [r3]
 478 011e 9B68     		ldr	r3, [r3, #8]
 479 0120 03F44013 		and	r3, r3, #3145728
 480 0124 002B     		cmp	r3, #0
 481 0126 0CBF     		ite	eq
 482 0128 0123     		moveq	r3, #1
 483 012a 0023     		movne	r3, #0
 484 012c DBB2     		uxtb	r3, r3
 485              		.loc 1 326 12
 486 012e 7B61     		str	r3, [r7, #20]
 327:Drivers/STM32F4xx_HAL_Driver/Src/stm32f4xx_hal_adc_ex.c ****       tmp2 = HAL_IS_BIT_CLR(hadc->Instance->CR1, ADC_CR1_JAUTO);
 487              		.loc 1 327 14
 488 0130 7B68     		ldr	r3, [r7, #4]
 489 0132 1B68     		ldr	r3, [r3]
 490 0134 5B68     		ldr	r3, [r3, #4]
 491 0136 03F48063 		and	r3, r3, #1024
 492 013a 002B     		cmp	r3, #0
 493 013c 0CBF     		ite	eq
 494 013e 0123     		moveq	r3, #1
 495 0140 0023     		movne	r3, #0
 496 0142 DBB2     		uxtb	r3, r3
 497              		.loc 1 327 12
 498 0144 3B61     		str	r3, [r7, #16]
 328:Drivers/STM32F4xx_HAL_Driver/Src/stm32f4xx_hal_adc_ex.c ****       if ((hadc->Instance == ADC1) && tmp1 && tmp2)
 499              		.loc 1 328 16
 500 0146 7B68     		ldr	r3, [r7, #4]
 501 0148 1B68     		ldr	r3, [r3]
 502              		.loc 1 328 10
 503 014a 154A     		ldr	r2, .L23+12
 504 014c 9342     		cmp	r3, r2
 505 014e 1AD1     		bne	.L22
 506              		.loc 1 328 36 discriminator 1
 507 0150 7B69     		ldr	r3, [r7, #20]
 508 0152 002B     		cmp	r3, #0
 509 0154 17D0     		beq	.L22
 510              		.loc 1 328 44 discriminator 2
 511 0156 3B69     		ldr	r3, [r7, #16]
 512 0158 002B     		cmp	r3, #0
 513 015a 14D0     		beq	.L22
 329:Drivers/STM32F4xx_HAL_Driver/Src/stm32f4xx_hal_adc_ex.c ****       {
 330:Drivers/STM32F4xx_HAL_Driver/Src/stm32f4xx_hal_adc_ex.c ****         /* Enable the selected ADC software conversion for injected group */
 331:Drivers/STM32F4xx_HAL_Driver/Src/stm32f4xx_hal_adc_ex.c ****         hadc->Instance->CR2 |= ADC_CR2_JSWSTART;
 514              		.loc 1 331 13
 515 015c 7B68     		ldr	r3, [r7, #4]
 516 015e 1B68     		ldr	r3, [r3]
 517              		.loc 1 331 23
 518 0160 9A68     		ldr	r2, [r3, #8]
 519              		.loc 1 331 13
 520 0162 7B68     		ldr	r3, [r7, #4]
 521 0164 1B68     		ldr	r3, [r3]
 522              		.loc 1 331 29
 523 0166 42F48002 		orr	r2, r2, #4194304
 524 016a 9A60     		str	r2, [r3, #8]
 525 016c 0BE0     		b	.L22
ARM GAS  C:\Users\Halil\AppData\Local\Temp\ccl2Bawv.s 			page 16


 526              	.L19:
 332:Drivers/STM32F4xx_HAL_Driver/Src/stm32f4xx_hal_adc_ex.c ****       }
 333:Drivers/STM32F4xx_HAL_Driver/Src/stm32f4xx_hal_adc_ex.c ****     }
 334:Drivers/STM32F4xx_HAL_Driver/Src/stm32f4xx_hal_adc_ex.c ****   }
 335:Drivers/STM32F4xx_HAL_Driver/Src/stm32f4xx_hal_adc_ex.c ****   else
 336:Drivers/STM32F4xx_HAL_Driver/Src/stm32f4xx_hal_adc_ex.c ****   {
 337:Drivers/STM32F4xx_HAL_Driver/Src/stm32f4xx_hal_adc_ex.c ****     /* Update ADC state machine to error */
 338:Drivers/STM32F4xx_HAL_Driver/Src/stm32f4xx_hal_adc_ex.c ****     SET_BIT(hadc->State, HAL_ADC_STATE_ERROR_INTERNAL);
 527              		.loc 1 338 5
 528 016e 7B68     		ldr	r3, [r7, #4]
 529 0170 1B6C     		ldr	r3, [r3, #64]
 530 0172 43F01002 		orr	r2, r3, #16
 531 0176 7B68     		ldr	r3, [r7, #4]
 532 0178 1A64     		str	r2, [r3, #64]
 339:Drivers/STM32F4xx_HAL_Driver/Src/stm32f4xx_hal_adc_ex.c **** 
 340:Drivers/STM32F4xx_HAL_Driver/Src/stm32f4xx_hal_adc_ex.c ****     /* Set ADC error code to ADC IP internal error */
 341:Drivers/STM32F4xx_HAL_Driver/Src/stm32f4xx_hal_adc_ex.c ****     SET_BIT(hadc->ErrorCode, HAL_ADC_ERROR_INTERNAL);
 533              		.loc 1 341 5
 534 017a 7B68     		ldr	r3, [r7, #4]
 535 017c 5B6C     		ldr	r3, [r3, #68]
 536 017e 43F00102 		orr	r2, r3, #1
 537 0182 7B68     		ldr	r3, [r7, #4]
 538 0184 5A64     		str	r2, [r3, #68]
 539              	.L22:
 342:Drivers/STM32F4xx_HAL_Driver/Src/stm32f4xx_hal_adc_ex.c ****   }
 343:Drivers/STM32F4xx_HAL_Driver/Src/stm32f4xx_hal_adc_ex.c **** 
 344:Drivers/STM32F4xx_HAL_Driver/Src/stm32f4xx_hal_adc_ex.c ****   /* Return function status */
 345:Drivers/STM32F4xx_HAL_Driver/Src/stm32f4xx_hal_adc_ex.c ****   return HAL_OK;
 540              		.loc 1 345 10
 541 0186 0023     		movs	r3, #0
 542              	.L15:
 346:Drivers/STM32F4xx_HAL_Driver/Src/stm32f4xx_hal_adc_ex.c **** }
 543              		.loc 1 346 1
 544 0188 1846     		mov	r0, r3
 545 018a 1C37     		adds	r7, r7, #28
 546              		.cfi_def_cfa_offset 4
 547 018c BD46     		mov	sp, r7
 548              		.cfi_def_cfa_register 13
 549              		@ sp needed
 550 018e 5DF8047B 		ldr	r7, [sp], #4
 551              		.cfi_restore 7
 552              		.cfi_def_cfa_offset 0
 553 0192 7047     		bx	lr
 554              	.L24:
 555              		.align	2
 556              	.L23:
 557 0194 00000000 		.word	SystemCoreClock
 558 0198 83DE1B43 		.word	1125899907
 559 019c 00230140 		.word	1073816320
 560 01a0 00200140 		.word	1073815552
 561              		.cfi_endproc
 562              	.LFE240:
 564              		.section	.text.HAL_ADCEx_InjectedStop,"ax",%progbits
 565              		.align	1
 566              		.global	HAL_ADCEx_InjectedStop
 567              		.syntax unified
 568              		.thumb
ARM GAS  C:\Users\Halil\AppData\Local\Temp\ccl2Bawv.s 			page 17


 569              		.thumb_func
 571              	HAL_ADCEx_InjectedStop:
 572              	.LFB241:
 347:Drivers/STM32F4xx_HAL_Driver/Src/stm32f4xx_hal_adc_ex.c **** 
 348:Drivers/STM32F4xx_HAL_Driver/Src/stm32f4xx_hal_adc_ex.c **** /**
 349:Drivers/STM32F4xx_HAL_Driver/Src/stm32f4xx_hal_adc_ex.c ****   * @brief  Stop conversion of injected channels. Disable ADC peripheral if
 350:Drivers/STM32F4xx_HAL_Driver/Src/stm32f4xx_hal_adc_ex.c ****   *         no regular conversion is on going.
 351:Drivers/STM32F4xx_HAL_Driver/Src/stm32f4xx_hal_adc_ex.c ****   * @note   If ADC must be disabled and if conversion is on going on
 352:Drivers/STM32F4xx_HAL_Driver/Src/stm32f4xx_hal_adc_ex.c ****   *         regular group, function HAL_ADC_Stop must be used to stop both
 353:Drivers/STM32F4xx_HAL_Driver/Src/stm32f4xx_hal_adc_ex.c ****   *         injected and regular groups, and disable the ADC.
 354:Drivers/STM32F4xx_HAL_Driver/Src/stm32f4xx_hal_adc_ex.c ****   * @note   If injected group mode auto-injection is enabled,
 355:Drivers/STM32F4xx_HAL_Driver/Src/stm32f4xx_hal_adc_ex.c ****   *         function HAL_ADC_Stop must be used.
 356:Drivers/STM32F4xx_HAL_Driver/Src/stm32f4xx_hal_adc_ex.c ****   * @note   In case of auto-injection mode, HAL_ADC_Stop must be used.
 357:Drivers/STM32F4xx_HAL_Driver/Src/stm32f4xx_hal_adc_ex.c ****   * @param  hadc ADC handle
 358:Drivers/STM32F4xx_HAL_Driver/Src/stm32f4xx_hal_adc_ex.c ****   * @retval None
 359:Drivers/STM32F4xx_HAL_Driver/Src/stm32f4xx_hal_adc_ex.c ****   */
 360:Drivers/STM32F4xx_HAL_Driver/Src/stm32f4xx_hal_adc_ex.c **** HAL_StatusTypeDef HAL_ADCEx_InjectedStop(ADC_HandleTypeDef *hadc)
 361:Drivers/STM32F4xx_HAL_Driver/Src/stm32f4xx_hal_adc_ex.c **** {
 573              		.loc 1 361 1
 574              		.cfi_startproc
 575              		@ args = 0, pretend = 0, frame = 16
 576              		@ frame_needed = 1, uses_anonymous_args = 0
 577              		@ link register save eliminated.
 578 0000 80B4     		push	{r7}
 579              		.cfi_def_cfa_offset 4
 580              		.cfi_offset 7, -4
 581 0002 85B0     		sub	sp, sp, #20
 582              		.cfi_def_cfa_offset 24
 583 0004 00AF     		add	r7, sp, #0
 584              		.cfi_def_cfa_register 7
 585 0006 7860     		str	r0, [r7, #4]
 362:Drivers/STM32F4xx_HAL_Driver/Src/stm32f4xx_hal_adc_ex.c ****   HAL_StatusTypeDef tmp_hal_status = HAL_OK;
 586              		.loc 1 362 21
 587 0008 0023     		movs	r3, #0
 588 000a FB73     		strb	r3, [r7, #15]
 363:Drivers/STM32F4xx_HAL_Driver/Src/stm32f4xx_hal_adc_ex.c **** 
 364:Drivers/STM32F4xx_HAL_Driver/Src/stm32f4xx_hal_adc_ex.c ****   /* Check the parameters */
 365:Drivers/STM32F4xx_HAL_Driver/Src/stm32f4xx_hal_adc_ex.c ****   assert_param(IS_ADC_ALL_INSTANCE(hadc->Instance));
 366:Drivers/STM32F4xx_HAL_Driver/Src/stm32f4xx_hal_adc_ex.c **** 
 367:Drivers/STM32F4xx_HAL_Driver/Src/stm32f4xx_hal_adc_ex.c ****   /* Process locked */
 368:Drivers/STM32F4xx_HAL_Driver/Src/stm32f4xx_hal_adc_ex.c ****   __HAL_LOCK(hadc);
 589              		.loc 1 368 3
 590 000c 7B68     		ldr	r3, [r7, #4]
 591 000e 93F83C30 		ldrb	r3, [r3, #60]	@ zero_extendqisi2
 592 0012 012B     		cmp	r3, #1
 593 0014 01D1     		bne	.L26
 594              		.loc 1 368 3 is_stmt 0 discriminator 1
 595 0016 0223     		movs	r3, #2
 596 0018 37E0     		b	.L27
 597              	.L26:
 598              		.loc 1 368 3 discriminator 2
 599 001a 7B68     		ldr	r3, [r7, #4]
 600 001c 0122     		movs	r2, #1
 601 001e 83F83C20 		strb	r2, [r3, #60]
 369:Drivers/STM32F4xx_HAL_Driver/Src/stm32f4xx_hal_adc_ex.c **** 
 370:Drivers/STM32F4xx_HAL_Driver/Src/stm32f4xx_hal_adc_ex.c ****   /* Stop potential conversion and disable ADC peripheral                     */
 371:Drivers/STM32F4xx_HAL_Driver/Src/stm32f4xx_hal_adc_ex.c ****   /* Conditioned to:                                                          */
ARM GAS  C:\Users\Halil\AppData\Local\Temp\ccl2Bawv.s 			page 18


 372:Drivers/STM32F4xx_HAL_Driver/Src/stm32f4xx_hal_adc_ex.c ****   /* - No conversion on the other group (regular group) is intended to        */
 373:Drivers/STM32F4xx_HAL_Driver/Src/stm32f4xx_hal_adc_ex.c ****   /*   continue (injected and regular groups stop conversion and ADC disable  */
 374:Drivers/STM32F4xx_HAL_Driver/Src/stm32f4xx_hal_adc_ex.c ****   /*   are common)                                                            */
 375:Drivers/STM32F4xx_HAL_Driver/Src/stm32f4xx_hal_adc_ex.c ****   /* - In case of auto-injection mode, HAL_ADC_Stop must be used.             */
 376:Drivers/STM32F4xx_HAL_Driver/Src/stm32f4xx_hal_adc_ex.c ****   if (((hadc->State & HAL_ADC_STATE_REG_BUSY) == RESET)  &&
 602              		.loc 1 376 13 is_stmt 1 discriminator 2
 603 0022 7B68     		ldr	r3, [r7, #4]
 604 0024 1B6C     		ldr	r3, [r3, #64]
 605              		.loc 1 376 21 discriminator 2
 606 0026 03F48073 		and	r3, r3, #256
 607              		.loc 1 376 6 discriminator 2
 608 002a 002B     		cmp	r3, #0
 609 002c 20D1     		bne	.L28
 377:Drivers/STM32F4xx_HAL_Driver/Src/stm32f4xx_hal_adc_ex.c ****       HAL_IS_BIT_CLR(hadc->Instance->CR1, ADC_CR1_JAUTO))
 610              		.loc 1 377 7 discriminator 1
 611 002e 7B68     		ldr	r3, [r7, #4]
 612 0030 1B68     		ldr	r3, [r3]
 613 0032 5B68     		ldr	r3, [r3, #4]
 614 0034 03F48063 		and	r3, r3, #1024
 376:Drivers/STM32F4xx_HAL_Driver/Src/stm32f4xx_hal_adc_ex.c ****       HAL_IS_BIT_CLR(hadc->Instance->CR1, ADC_CR1_JAUTO))
 615              		.loc 1 376 58 discriminator 1
 616 0038 002B     		cmp	r3, #0
 617 003a 19D1     		bne	.L28
 378:Drivers/STM32F4xx_HAL_Driver/Src/stm32f4xx_hal_adc_ex.c ****   {
 379:Drivers/STM32F4xx_HAL_Driver/Src/stm32f4xx_hal_adc_ex.c ****     /* Stop potential conversion on going, on regular and injected groups */
 380:Drivers/STM32F4xx_HAL_Driver/Src/stm32f4xx_hal_adc_ex.c ****     /* Disable ADC peripheral */
 381:Drivers/STM32F4xx_HAL_Driver/Src/stm32f4xx_hal_adc_ex.c ****     __HAL_ADC_DISABLE(hadc);
 618              		.loc 1 381 5
 619 003c 7B68     		ldr	r3, [r7, #4]
 620 003e 1B68     		ldr	r3, [r3]
 621 0040 9A68     		ldr	r2, [r3, #8]
 622 0042 7B68     		ldr	r3, [r7, #4]
 623 0044 1B68     		ldr	r3, [r3]
 624 0046 22F00102 		bic	r2, r2, #1
 625 004a 9A60     		str	r2, [r3, #8]
 382:Drivers/STM32F4xx_HAL_Driver/Src/stm32f4xx_hal_adc_ex.c **** 
 383:Drivers/STM32F4xx_HAL_Driver/Src/stm32f4xx_hal_adc_ex.c ****     /* Check if ADC is effectively disabled */
 384:Drivers/STM32F4xx_HAL_Driver/Src/stm32f4xx_hal_adc_ex.c ****     if (HAL_IS_BIT_CLR(hadc->Instance->CR2, ADC_CR2_ADON))
 626              		.loc 1 384 9
 627 004c 7B68     		ldr	r3, [r7, #4]
 628 004e 1B68     		ldr	r3, [r3]
 629 0050 9B68     		ldr	r3, [r3, #8]
 630 0052 03F00103 		and	r3, r3, #1
 631              		.loc 1 384 8
 632 0056 002B     		cmp	r3, #0
 633 0058 12D1     		bne	.L30
 385:Drivers/STM32F4xx_HAL_Driver/Src/stm32f4xx_hal_adc_ex.c ****     {
 386:Drivers/STM32F4xx_HAL_Driver/Src/stm32f4xx_hal_adc_ex.c ****       /* Set ADC state */
 387:Drivers/STM32F4xx_HAL_Driver/Src/stm32f4xx_hal_adc_ex.c ****       ADC_STATE_CLR_SET(hadc->State,
 634              		.loc 1 387 7
 635 005a 7B68     		ldr	r3, [r7, #4]
 636 005c 1B6C     		ldr	r3, [r3, #64]
 637 005e 23F48853 		bic	r3, r3, #4352
 638 0062 23F00103 		bic	r3, r3, #1
 639 0066 43F00102 		orr	r2, r3, #1
 640 006a 7B68     		ldr	r3, [r7, #4]
 641 006c 1A64     		str	r2, [r3, #64]
ARM GAS  C:\Users\Halil\AppData\Local\Temp\ccl2Bawv.s 			page 19


 384:Drivers/STM32F4xx_HAL_Driver/Src/stm32f4xx_hal_adc_ex.c ****     {
 642              		.loc 1 384 8
 643 006e 07E0     		b	.L30
 644              	.L28:
 388:Drivers/STM32F4xx_HAL_Driver/Src/stm32f4xx_hal_adc_ex.c ****                         HAL_ADC_STATE_REG_BUSY | HAL_ADC_STATE_INJ_BUSY,
 389:Drivers/STM32F4xx_HAL_Driver/Src/stm32f4xx_hal_adc_ex.c ****                         HAL_ADC_STATE_READY);
 390:Drivers/STM32F4xx_HAL_Driver/Src/stm32f4xx_hal_adc_ex.c ****     }
 391:Drivers/STM32F4xx_HAL_Driver/Src/stm32f4xx_hal_adc_ex.c ****   }
 392:Drivers/STM32F4xx_HAL_Driver/Src/stm32f4xx_hal_adc_ex.c ****   else
 393:Drivers/STM32F4xx_HAL_Driver/Src/stm32f4xx_hal_adc_ex.c ****   {
 394:Drivers/STM32F4xx_HAL_Driver/Src/stm32f4xx_hal_adc_ex.c ****     /* Update ADC state machine to error */
 395:Drivers/STM32F4xx_HAL_Driver/Src/stm32f4xx_hal_adc_ex.c ****     SET_BIT(hadc->State, HAL_ADC_STATE_ERROR_CONFIG);
 645              		.loc 1 395 5
 646 0070 7B68     		ldr	r3, [r7, #4]
 647 0072 1B6C     		ldr	r3, [r3, #64]
 648 0074 43F02002 		orr	r2, r3, #32
 649 0078 7B68     		ldr	r3, [r7, #4]
 650 007a 1A64     		str	r2, [r3, #64]
 396:Drivers/STM32F4xx_HAL_Driver/Src/stm32f4xx_hal_adc_ex.c **** 
 397:Drivers/STM32F4xx_HAL_Driver/Src/stm32f4xx_hal_adc_ex.c ****     tmp_hal_status = HAL_ERROR;
 651              		.loc 1 397 20
 652 007c 0123     		movs	r3, #1
 653 007e FB73     		strb	r3, [r7, #15]
 654              	.L30:
 398:Drivers/STM32F4xx_HAL_Driver/Src/stm32f4xx_hal_adc_ex.c ****   }
 399:Drivers/STM32F4xx_HAL_Driver/Src/stm32f4xx_hal_adc_ex.c **** 
 400:Drivers/STM32F4xx_HAL_Driver/Src/stm32f4xx_hal_adc_ex.c ****   /* Process unlocked */
 401:Drivers/STM32F4xx_HAL_Driver/Src/stm32f4xx_hal_adc_ex.c ****   __HAL_UNLOCK(hadc);
 655              		.loc 1 401 3
 656 0080 7B68     		ldr	r3, [r7, #4]
 657 0082 0022     		movs	r2, #0
 658 0084 83F83C20 		strb	r2, [r3, #60]
 402:Drivers/STM32F4xx_HAL_Driver/Src/stm32f4xx_hal_adc_ex.c **** 
 403:Drivers/STM32F4xx_HAL_Driver/Src/stm32f4xx_hal_adc_ex.c ****   /* Return function status */
 404:Drivers/STM32F4xx_HAL_Driver/Src/stm32f4xx_hal_adc_ex.c ****   return tmp_hal_status;
 659              		.loc 1 404 10
 660 0088 FB7B     		ldrb	r3, [r7, #15]	@ zero_extendqisi2
 661              	.L27:
 405:Drivers/STM32F4xx_HAL_Driver/Src/stm32f4xx_hal_adc_ex.c **** }
 662              		.loc 1 405 1
 663 008a 1846     		mov	r0, r3
 664 008c 1437     		adds	r7, r7, #20
 665              		.cfi_def_cfa_offset 4
 666 008e BD46     		mov	sp, r7
 667              		.cfi_def_cfa_register 13
 668              		@ sp needed
 669 0090 5DF8047B 		ldr	r7, [sp], #4
 670              		.cfi_restore 7
 671              		.cfi_def_cfa_offset 0
 672 0094 7047     		bx	lr
 673              		.cfi_endproc
 674              	.LFE241:
 676              		.section	.text.HAL_ADCEx_InjectedPollForConversion,"ax",%progbits
 677              		.align	1
 678              		.global	HAL_ADCEx_InjectedPollForConversion
 679              		.syntax unified
 680              		.thumb
ARM GAS  C:\Users\Halil\AppData\Local\Temp\ccl2Bawv.s 			page 20


 681              		.thumb_func
 683              	HAL_ADCEx_InjectedPollForConversion:
 684              	.LFB242:
 406:Drivers/STM32F4xx_HAL_Driver/Src/stm32f4xx_hal_adc_ex.c **** 
 407:Drivers/STM32F4xx_HAL_Driver/Src/stm32f4xx_hal_adc_ex.c **** /**
 408:Drivers/STM32F4xx_HAL_Driver/Src/stm32f4xx_hal_adc_ex.c ****   * @brief  Poll for injected conversion complete
 409:Drivers/STM32F4xx_HAL_Driver/Src/stm32f4xx_hal_adc_ex.c ****   * @param  hadc pointer to a ADC_HandleTypeDef structure that contains
 410:Drivers/STM32F4xx_HAL_Driver/Src/stm32f4xx_hal_adc_ex.c ****   *         the configuration information for the specified ADC.
 411:Drivers/STM32F4xx_HAL_Driver/Src/stm32f4xx_hal_adc_ex.c ****   * @param  Timeout Timeout value in millisecond.
 412:Drivers/STM32F4xx_HAL_Driver/Src/stm32f4xx_hal_adc_ex.c ****   * @retval HAL status
 413:Drivers/STM32F4xx_HAL_Driver/Src/stm32f4xx_hal_adc_ex.c ****   */
 414:Drivers/STM32F4xx_HAL_Driver/Src/stm32f4xx_hal_adc_ex.c **** HAL_StatusTypeDef HAL_ADCEx_InjectedPollForConversion(ADC_HandleTypeDef *hadc, uint32_t Timeout)
 415:Drivers/STM32F4xx_HAL_Driver/Src/stm32f4xx_hal_adc_ex.c **** {
 685              		.loc 1 415 1
 686              		.cfi_startproc
 687              		@ args = 0, pretend = 0, frame = 16
 688              		@ frame_needed = 1, uses_anonymous_args = 0
 689 0000 80B5     		push	{r7, lr}
 690              		.cfi_def_cfa_offset 8
 691              		.cfi_offset 7, -8
 692              		.cfi_offset 14, -4
 693 0002 84B0     		sub	sp, sp, #16
 694              		.cfi_def_cfa_offset 24
 695 0004 00AF     		add	r7, sp, #0
 696              		.cfi_def_cfa_register 7
 697 0006 7860     		str	r0, [r7, #4]
 698 0008 3960     		str	r1, [r7]
 416:Drivers/STM32F4xx_HAL_Driver/Src/stm32f4xx_hal_adc_ex.c ****   uint32_t tickstart = 0U;
 699              		.loc 1 416 12
 700 000a 0023     		movs	r3, #0
 701 000c FB60     		str	r3, [r7, #12]
 417:Drivers/STM32F4xx_HAL_Driver/Src/stm32f4xx_hal_adc_ex.c **** 
 418:Drivers/STM32F4xx_HAL_Driver/Src/stm32f4xx_hal_adc_ex.c ****   /* Get tick */
 419:Drivers/STM32F4xx_HAL_Driver/Src/stm32f4xx_hal_adc_ex.c ****   tickstart = HAL_GetTick();
 702              		.loc 1 419 15
 703 000e FFF7FEFF 		bl	HAL_GetTick
 704 0012 F860     		str	r0, [r7, #12]
 420:Drivers/STM32F4xx_HAL_Driver/Src/stm32f4xx_hal_adc_ex.c **** 
 421:Drivers/STM32F4xx_HAL_Driver/Src/stm32f4xx_hal_adc_ex.c ****   /* Check End of conversion flag */
 422:Drivers/STM32F4xx_HAL_Driver/Src/stm32f4xx_hal_adc_ex.c ****   while (!(__HAL_ADC_GET_FLAG(hadc, ADC_FLAG_JEOC)))
 705              		.loc 1 422 9
 706 0014 1EE0     		b	.L33
 707              	.L37:
 423:Drivers/STM32F4xx_HAL_Driver/Src/stm32f4xx_hal_adc_ex.c ****   {
 424:Drivers/STM32F4xx_HAL_Driver/Src/stm32f4xx_hal_adc_ex.c ****     /* Check for the Timeout */
 425:Drivers/STM32F4xx_HAL_Driver/Src/stm32f4xx_hal_adc_ex.c ****     if (Timeout != HAL_MAX_DELAY)
 708              		.loc 1 425 8
 709 0016 3B68     		ldr	r3, [r7]
 710 0018 B3F1FF3F 		cmp	r3, #-1
 711 001c 1AD0     		beq	.L33
 426:Drivers/STM32F4xx_HAL_Driver/Src/stm32f4xx_hal_adc_ex.c ****     {
 427:Drivers/STM32F4xx_HAL_Driver/Src/stm32f4xx_hal_adc_ex.c ****       if ((Timeout == 0U) || ((HAL_GetTick() - tickstart) > Timeout))
 712              		.loc 1 427 10
 713 001e 3B68     		ldr	r3, [r7]
 714 0020 002B     		cmp	r3, #0
 715 0022 07D0     		beq	.L34
 716              		.loc 1 427 32 discriminator 1
ARM GAS  C:\Users\Halil\AppData\Local\Temp\ccl2Bawv.s 			page 21


 717 0024 FFF7FEFF 		bl	HAL_GetTick
 718 0028 0246     		mov	r2, r0
 719              		.loc 1 427 46 discriminator 1
 720 002a FB68     		ldr	r3, [r7, #12]
 721 002c D31A     		subs	r3, r2, r3
 722              		.loc 1 427 27 discriminator 1
 723 002e 3A68     		ldr	r2, [r7]
 724 0030 9A42     		cmp	r2, r3
 725 0032 0FD2     		bcs	.L33
 726              	.L34:
 428:Drivers/STM32F4xx_HAL_Driver/Src/stm32f4xx_hal_adc_ex.c ****       {
 429:Drivers/STM32F4xx_HAL_Driver/Src/stm32f4xx_hal_adc_ex.c ****         /* New check to avoid false timeout detection in case of preemption */
 430:Drivers/STM32F4xx_HAL_Driver/Src/stm32f4xx_hal_adc_ex.c ****         if (!(__HAL_ADC_GET_FLAG(hadc, ADC_FLAG_JEOC)))
 727              		.loc 1 430 15
 728 0034 7B68     		ldr	r3, [r7, #4]
 729 0036 1B68     		ldr	r3, [r3]
 730 0038 1B68     		ldr	r3, [r3]
 731 003a 03F00403 		and	r3, r3, #4
 732              		.loc 1 430 12
 733 003e 042B     		cmp	r3, #4
 734 0040 08D0     		beq	.L33
 431:Drivers/STM32F4xx_HAL_Driver/Src/stm32f4xx_hal_adc_ex.c ****         {
 432:Drivers/STM32F4xx_HAL_Driver/Src/stm32f4xx_hal_adc_ex.c ****           hadc->State = HAL_ADC_STATE_TIMEOUT;
 735              		.loc 1 432 23
 736 0042 7B68     		ldr	r3, [r7, #4]
 737 0044 0422     		movs	r2, #4
 738 0046 1A64     		str	r2, [r3, #64]
 433:Drivers/STM32F4xx_HAL_Driver/Src/stm32f4xx_hal_adc_ex.c ****           /* Process unlocked */
 434:Drivers/STM32F4xx_HAL_Driver/Src/stm32f4xx_hal_adc_ex.c ****           __HAL_UNLOCK(hadc);
 739              		.loc 1 434 11
 740 0048 7B68     		ldr	r3, [r7, #4]
 741 004a 0022     		movs	r2, #0
 742 004c 83F83C20 		strb	r2, [r3, #60]
 435:Drivers/STM32F4xx_HAL_Driver/Src/stm32f4xx_hal_adc_ex.c ****           return HAL_TIMEOUT;
 743              		.loc 1 435 18
 744 0050 0323     		movs	r3, #3
 745 0052 4BE0     		b	.L36
 746              	.L33:
 422:Drivers/STM32F4xx_HAL_Driver/Src/stm32f4xx_hal_adc_ex.c ****   {
 747              		.loc 1 422 12
 748 0054 7B68     		ldr	r3, [r7, #4]
 749 0056 1B68     		ldr	r3, [r3]
 750 0058 1B68     		ldr	r3, [r3]
 751 005a 03F00403 		and	r3, r3, #4
 422:Drivers/STM32F4xx_HAL_Driver/Src/stm32f4xx_hal_adc_ex.c ****   {
 752              		.loc 1 422 10
 753 005e 042B     		cmp	r3, #4
 754 0060 D9D1     		bne	.L37
 436:Drivers/STM32F4xx_HAL_Driver/Src/stm32f4xx_hal_adc_ex.c ****         }
 437:Drivers/STM32F4xx_HAL_Driver/Src/stm32f4xx_hal_adc_ex.c ****       }
 438:Drivers/STM32F4xx_HAL_Driver/Src/stm32f4xx_hal_adc_ex.c ****     }
 439:Drivers/STM32F4xx_HAL_Driver/Src/stm32f4xx_hal_adc_ex.c ****   }
 440:Drivers/STM32F4xx_HAL_Driver/Src/stm32f4xx_hal_adc_ex.c **** 
 441:Drivers/STM32F4xx_HAL_Driver/Src/stm32f4xx_hal_adc_ex.c ****   /* Clear injected group conversion flag */
 442:Drivers/STM32F4xx_HAL_Driver/Src/stm32f4xx_hal_adc_ex.c ****   __HAL_ADC_CLEAR_FLAG(hadc, ADC_FLAG_JSTRT | ADC_FLAG_JEOC);
 755              		.loc 1 442 3
 756 0062 7B68     		ldr	r3, [r7, #4]
ARM GAS  C:\Users\Halil\AppData\Local\Temp\ccl2Bawv.s 			page 22


 757 0064 1B68     		ldr	r3, [r3]
 758 0066 6FF00C02 		mvn	r2, #12
 759 006a 1A60     		str	r2, [r3]
 443:Drivers/STM32F4xx_HAL_Driver/Src/stm32f4xx_hal_adc_ex.c **** 
 444:Drivers/STM32F4xx_HAL_Driver/Src/stm32f4xx_hal_adc_ex.c ****   /* Update ADC state machine */
 445:Drivers/STM32F4xx_HAL_Driver/Src/stm32f4xx_hal_adc_ex.c ****   SET_BIT(hadc->State, HAL_ADC_STATE_INJ_EOC);
 760              		.loc 1 445 3
 761 006c 7B68     		ldr	r3, [r7, #4]
 762 006e 1B6C     		ldr	r3, [r3, #64]
 763 0070 43F40052 		orr	r2, r3, #8192
 764 0074 7B68     		ldr	r3, [r7, #4]
 765 0076 1A64     		str	r2, [r3, #64]
 446:Drivers/STM32F4xx_HAL_Driver/Src/stm32f4xx_hal_adc_ex.c **** 
 447:Drivers/STM32F4xx_HAL_Driver/Src/stm32f4xx_hal_adc_ex.c ****   /* Determine whether any further conversion upcoming on group injected      */
 448:Drivers/STM32F4xx_HAL_Driver/Src/stm32f4xx_hal_adc_ex.c ****   /* by external trigger, continuous mode or scan sequence on going.          */
 449:Drivers/STM32F4xx_HAL_Driver/Src/stm32f4xx_hal_adc_ex.c ****   /* Note: On STM32F4, there is no independent flag of end of sequence.       */
 450:Drivers/STM32F4xx_HAL_Driver/Src/stm32f4xx_hal_adc_ex.c ****   /*       The test of scan sequence on going is done either with scan        */
 451:Drivers/STM32F4xx_HAL_Driver/Src/stm32f4xx_hal_adc_ex.c ****   /*       sequence disabled or with end of conversion flag set to            */
 452:Drivers/STM32F4xx_HAL_Driver/Src/stm32f4xx_hal_adc_ex.c ****   /*       of end of sequence.                                                */
 453:Drivers/STM32F4xx_HAL_Driver/Src/stm32f4xx_hal_adc_ex.c ****   if (ADC_IS_SOFTWARE_START_INJECTED(hadc)                    &&
 766              		.loc 1 453 7
 767 0078 7B68     		ldr	r3, [r7, #4]
 768 007a 1B68     		ldr	r3, [r3]
 769 007c 9B68     		ldr	r3, [r3, #8]
 770 007e 03F44013 		and	r3, r3, #3145728
 771              		.loc 1 453 6
 772 0082 002B     		cmp	r3, #0
 773 0084 31D1     		bne	.L38
 454:Drivers/STM32F4xx_HAL_Driver/Src/stm32f4xx_hal_adc_ex.c ****       (HAL_IS_BIT_CLR(hadc->Instance->JSQR, ADC_JSQR_JL)  ||
 774              		.loc 1 454 8 discriminator 1
 775 0086 7B68     		ldr	r3, [r7, #4]
 776 0088 1B68     		ldr	r3, [r3]
 777 008a 9B6B     		ldr	r3, [r3, #56]
 778 008c 03F44013 		and	r3, r3, #3145728
 453:Drivers/STM32F4xx_HAL_Driver/Src/stm32f4xx_hal_adc_ex.c ****       (HAL_IS_BIT_CLR(hadc->Instance->JSQR, ADC_JSQR_JL)  ||
 779              		.loc 1 453 63 discriminator 1
 780 0090 002B     		cmp	r3, #0
 781 0092 06D0     		beq	.L39
 455:Drivers/STM32F4xx_HAL_Driver/Src/stm32f4xx_hal_adc_ex.c ****        HAL_IS_BIT_CLR(hadc->Instance->CR2, ADC_CR2_EOCS)) &&
 782              		.loc 1 455 8
 783 0094 7B68     		ldr	r3, [r7, #4]
 784 0096 1B68     		ldr	r3, [r3]
 785 0098 9B68     		ldr	r3, [r3, #8]
 786 009a 03F48063 		and	r3, r3, #1024
 454:Drivers/STM32F4xx_HAL_Driver/Src/stm32f4xx_hal_adc_ex.c ****       (HAL_IS_BIT_CLR(hadc->Instance->JSQR, ADC_JSQR_JL)  ||
 787              		.loc 1 454 59
 788 009e 002B     		cmp	r3, #0
 789 00a0 23D1     		bne	.L38
 790              	.L39:
 456:Drivers/STM32F4xx_HAL_Driver/Src/stm32f4xx_hal_adc_ex.c ****       (HAL_IS_BIT_CLR(hadc->Instance->CR1, ADC_CR1_JAUTO) &&
 791              		.loc 1 456 8
 792 00a2 7B68     		ldr	r3, [r7, #4]
 793 00a4 1B68     		ldr	r3, [r3]
 794 00a6 5B68     		ldr	r3, [r3, #4]
 795 00a8 03F48063 		and	r3, r3, #1024
 455:Drivers/STM32F4xx_HAL_Driver/Src/stm32f4xx_hal_adc_ex.c ****        HAL_IS_BIT_CLR(hadc->Instance->CR2, ADC_CR2_EOCS)) &&
 796              		.loc 1 455 59
ARM GAS  C:\Users\Halil\AppData\Local\Temp\ccl2Bawv.s 			page 23


 797 00ac 002B     		cmp	r3, #0
 798 00ae 1CD1     		bne	.L38
 457:Drivers/STM32F4xx_HAL_Driver/Src/stm32f4xx_hal_adc_ex.c ****        (ADC_IS_SOFTWARE_START_REGULAR(hadc)       &&
 799              		.loc 1 457 9
 800 00b0 7B68     		ldr	r3, [r7, #4]
 801 00b2 1B68     		ldr	r3, [r3]
 802 00b4 9B68     		ldr	r3, [r3, #8]
 803 00b6 03F04053 		and	r3, r3, #805306368
 456:Drivers/STM32F4xx_HAL_Driver/Src/stm32f4xx_hal_adc_ex.c ****       (HAL_IS_BIT_CLR(hadc->Instance->CR1, ADC_CR1_JAUTO) &&
 804              		.loc 1 456 59
 805 00ba 002B     		cmp	r3, #0
 806 00bc 15D1     		bne	.L38
 458:Drivers/STM32F4xx_HAL_Driver/Src/stm32f4xx_hal_adc_ex.c ****         (hadc->Init.ContinuousConvMode == DISABLE))))
 807              		.loc 1 458 20
 808 00be 7B68     		ldr	r3, [r7, #4]
 809 00c0 1B7E     		ldrb	r3, [r3, #24]	@ zero_extendqisi2
 457:Drivers/STM32F4xx_HAL_Driver/Src/stm32f4xx_hal_adc_ex.c ****        (ADC_IS_SOFTWARE_START_REGULAR(hadc)       &&
 810              		.loc 1 457 51
 811 00c2 002B     		cmp	r3, #0
 812 00c4 11D1     		bne	.L38
 459:Drivers/STM32F4xx_HAL_Driver/Src/stm32f4xx_hal_adc_ex.c ****   {
 460:Drivers/STM32F4xx_HAL_Driver/Src/stm32f4xx_hal_adc_ex.c ****     /* Set ADC state */
 461:Drivers/STM32F4xx_HAL_Driver/Src/stm32f4xx_hal_adc_ex.c ****     CLEAR_BIT(hadc->State, HAL_ADC_STATE_INJ_BUSY);
 813              		.loc 1 461 5
 814 00c6 7B68     		ldr	r3, [r7, #4]
 815 00c8 1B6C     		ldr	r3, [r3, #64]
 816 00ca 23F48052 		bic	r2, r3, #4096
 817 00ce 7B68     		ldr	r3, [r7, #4]
 818 00d0 1A64     		str	r2, [r3, #64]
 462:Drivers/STM32F4xx_HAL_Driver/Src/stm32f4xx_hal_adc_ex.c **** 
 463:Drivers/STM32F4xx_HAL_Driver/Src/stm32f4xx_hal_adc_ex.c ****     if (HAL_IS_BIT_CLR(hadc->State, HAL_ADC_STATE_REG_BUSY))
 819              		.loc 1 463 9
 820 00d2 7B68     		ldr	r3, [r7, #4]
 821 00d4 1B6C     		ldr	r3, [r3, #64]
 822 00d6 03F48073 		and	r3, r3, #256
 823              		.loc 1 463 8
 824 00da 002B     		cmp	r3, #0
 825 00dc 05D1     		bne	.L38
 464:Drivers/STM32F4xx_HAL_Driver/Src/stm32f4xx_hal_adc_ex.c ****     {
 465:Drivers/STM32F4xx_HAL_Driver/Src/stm32f4xx_hal_adc_ex.c ****       SET_BIT(hadc->State, HAL_ADC_STATE_READY);
 826              		.loc 1 465 7
 827 00de 7B68     		ldr	r3, [r7, #4]
 828 00e0 1B6C     		ldr	r3, [r3, #64]
 829 00e2 43F00102 		orr	r2, r3, #1
 830 00e6 7B68     		ldr	r3, [r7, #4]
 831 00e8 1A64     		str	r2, [r3, #64]
 832              	.L38:
 466:Drivers/STM32F4xx_HAL_Driver/Src/stm32f4xx_hal_adc_ex.c ****     }
 467:Drivers/STM32F4xx_HAL_Driver/Src/stm32f4xx_hal_adc_ex.c ****   }
 468:Drivers/STM32F4xx_HAL_Driver/Src/stm32f4xx_hal_adc_ex.c **** 
 469:Drivers/STM32F4xx_HAL_Driver/Src/stm32f4xx_hal_adc_ex.c ****   /* Return ADC state */
 470:Drivers/STM32F4xx_HAL_Driver/Src/stm32f4xx_hal_adc_ex.c ****   return HAL_OK;
 833              		.loc 1 470 10
 834 00ea 0023     		movs	r3, #0
 835              	.L36:
 471:Drivers/STM32F4xx_HAL_Driver/Src/stm32f4xx_hal_adc_ex.c **** }
 836              		.loc 1 471 1
ARM GAS  C:\Users\Halil\AppData\Local\Temp\ccl2Bawv.s 			page 24


 837 00ec 1846     		mov	r0, r3
 838 00ee 1037     		adds	r7, r7, #16
 839              		.cfi_def_cfa_offset 8
 840 00f0 BD46     		mov	sp, r7
 841              		.cfi_def_cfa_register 13
 842              		@ sp needed
 843 00f2 80BD     		pop	{r7, pc}
 844              		.cfi_endproc
 845              	.LFE242:
 847              		.section	.text.HAL_ADCEx_InjectedStop_IT,"ax",%progbits
 848              		.align	1
 849              		.global	HAL_ADCEx_InjectedStop_IT
 850              		.syntax unified
 851              		.thumb
 852              		.thumb_func
 854              	HAL_ADCEx_InjectedStop_IT:
 855              	.LFB243:
 472:Drivers/STM32F4xx_HAL_Driver/Src/stm32f4xx_hal_adc_ex.c **** 
 473:Drivers/STM32F4xx_HAL_Driver/Src/stm32f4xx_hal_adc_ex.c **** /**
 474:Drivers/STM32F4xx_HAL_Driver/Src/stm32f4xx_hal_adc_ex.c ****   * @brief  Stop conversion of injected channels, disable interruption of
 475:Drivers/STM32F4xx_HAL_Driver/Src/stm32f4xx_hal_adc_ex.c ****   *         end-of-conversion. Disable ADC peripheral if no regular conversion
 476:Drivers/STM32F4xx_HAL_Driver/Src/stm32f4xx_hal_adc_ex.c ****   *         is on going.
 477:Drivers/STM32F4xx_HAL_Driver/Src/stm32f4xx_hal_adc_ex.c ****   * @note   If ADC must be disabled and if conversion is on going on
 478:Drivers/STM32F4xx_HAL_Driver/Src/stm32f4xx_hal_adc_ex.c ****   *         regular group, function HAL_ADC_Stop must be used to stop both
 479:Drivers/STM32F4xx_HAL_Driver/Src/stm32f4xx_hal_adc_ex.c ****   *         injected and regular groups, and disable the ADC.
 480:Drivers/STM32F4xx_HAL_Driver/Src/stm32f4xx_hal_adc_ex.c ****   * @note   If injected group mode auto-injection is enabled,
 481:Drivers/STM32F4xx_HAL_Driver/Src/stm32f4xx_hal_adc_ex.c ****   *         function HAL_ADC_Stop must be used.
 482:Drivers/STM32F4xx_HAL_Driver/Src/stm32f4xx_hal_adc_ex.c ****   * @param  hadc ADC handle
 483:Drivers/STM32F4xx_HAL_Driver/Src/stm32f4xx_hal_adc_ex.c ****   * @retval None
 484:Drivers/STM32F4xx_HAL_Driver/Src/stm32f4xx_hal_adc_ex.c ****   */
 485:Drivers/STM32F4xx_HAL_Driver/Src/stm32f4xx_hal_adc_ex.c **** HAL_StatusTypeDef HAL_ADCEx_InjectedStop_IT(ADC_HandleTypeDef *hadc)
 486:Drivers/STM32F4xx_HAL_Driver/Src/stm32f4xx_hal_adc_ex.c **** {
 856              		.loc 1 486 1
 857              		.cfi_startproc
 858              		@ args = 0, pretend = 0, frame = 16
 859              		@ frame_needed = 1, uses_anonymous_args = 0
 860              		@ link register save eliminated.
 861 0000 80B4     		push	{r7}
 862              		.cfi_def_cfa_offset 4
 863              		.cfi_offset 7, -4
 864 0002 85B0     		sub	sp, sp, #20
 865              		.cfi_def_cfa_offset 24
 866 0004 00AF     		add	r7, sp, #0
 867              		.cfi_def_cfa_register 7
 868 0006 7860     		str	r0, [r7, #4]
 487:Drivers/STM32F4xx_HAL_Driver/Src/stm32f4xx_hal_adc_ex.c ****   HAL_StatusTypeDef tmp_hal_status = HAL_OK;
 869              		.loc 1 487 21
 870 0008 0023     		movs	r3, #0
 871 000a FB73     		strb	r3, [r7, #15]
 488:Drivers/STM32F4xx_HAL_Driver/Src/stm32f4xx_hal_adc_ex.c **** 
 489:Drivers/STM32F4xx_HAL_Driver/Src/stm32f4xx_hal_adc_ex.c ****   /* Check the parameters */
 490:Drivers/STM32F4xx_HAL_Driver/Src/stm32f4xx_hal_adc_ex.c ****   assert_param(IS_ADC_ALL_INSTANCE(hadc->Instance));
 491:Drivers/STM32F4xx_HAL_Driver/Src/stm32f4xx_hal_adc_ex.c **** 
 492:Drivers/STM32F4xx_HAL_Driver/Src/stm32f4xx_hal_adc_ex.c ****   /* Process locked */
 493:Drivers/STM32F4xx_HAL_Driver/Src/stm32f4xx_hal_adc_ex.c ****   __HAL_LOCK(hadc);
 872              		.loc 1 493 3
 873 000c 7B68     		ldr	r3, [r7, #4]
ARM GAS  C:\Users\Halil\AppData\Local\Temp\ccl2Bawv.s 			page 25


 874 000e 93F83C30 		ldrb	r3, [r3, #60]	@ zero_extendqisi2
 875 0012 012B     		cmp	r3, #1
 876 0014 01D1     		bne	.L41
 877              		.loc 1 493 3 is_stmt 0 discriminator 1
 878 0016 0223     		movs	r3, #2
 879 0018 3FE0     		b	.L42
 880              	.L41:
 881              		.loc 1 493 3 discriminator 2
 882 001a 7B68     		ldr	r3, [r7, #4]
 883 001c 0122     		movs	r2, #1
 884 001e 83F83C20 		strb	r2, [r3, #60]
 494:Drivers/STM32F4xx_HAL_Driver/Src/stm32f4xx_hal_adc_ex.c **** 
 495:Drivers/STM32F4xx_HAL_Driver/Src/stm32f4xx_hal_adc_ex.c ****   /* Stop potential conversion and disable ADC peripheral                     */
 496:Drivers/STM32F4xx_HAL_Driver/Src/stm32f4xx_hal_adc_ex.c ****   /* Conditioned to:                                                          */
 497:Drivers/STM32F4xx_HAL_Driver/Src/stm32f4xx_hal_adc_ex.c ****   /* - No conversion on the other group (regular group) is intended to        */
 498:Drivers/STM32F4xx_HAL_Driver/Src/stm32f4xx_hal_adc_ex.c ****   /*   continue (injected and regular groups stop conversion and ADC disable  */
 499:Drivers/STM32F4xx_HAL_Driver/Src/stm32f4xx_hal_adc_ex.c ****   /*   are common)                                                            */
 500:Drivers/STM32F4xx_HAL_Driver/Src/stm32f4xx_hal_adc_ex.c ****   /* - In case of auto-injection mode, HAL_ADC_Stop must be used.             */
 501:Drivers/STM32F4xx_HAL_Driver/Src/stm32f4xx_hal_adc_ex.c ****   if (((hadc->State & HAL_ADC_STATE_REG_BUSY) == RESET)  &&
 885              		.loc 1 501 13 is_stmt 1 discriminator 2
 886 0022 7B68     		ldr	r3, [r7, #4]
 887 0024 1B6C     		ldr	r3, [r3, #64]
 888              		.loc 1 501 21 discriminator 2
 889 0026 03F48073 		and	r3, r3, #256
 890              		.loc 1 501 6 discriminator 2
 891 002a 002B     		cmp	r3, #0
 892 002c 28D1     		bne	.L43
 502:Drivers/STM32F4xx_HAL_Driver/Src/stm32f4xx_hal_adc_ex.c ****       HAL_IS_BIT_CLR(hadc->Instance->CR1, ADC_CR1_JAUTO))
 893              		.loc 1 502 7 discriminator 1
 894 002e 7B68     		ldr	r3, [r7, #4]
 895 0030 1B68     		ldr	r3, [r3]
 896 0032 5B68     		ldr	r3, [r3, #4]
 897 0034 03F48063 		and	r3, r3, #1024
 501:Drivers/STM32F4xx_HAL_Driver/Src/stm32f4xx_hal_adc_ex.c ****       HAL_IS_BIT_CLR(hadc->Instance->CR1, ADC_CR1_JAUTO))
 898              		.loc 1 501 58 discriminator 1
 899 0038 002B     		cmp	r3, #0
 900 003a 21D1     		bne	.L43
 503:Drivers/STM32F4xx_HAL_Driver/Src/stm32f4xx_hal_adc_ex.c ****   {
 504:Drivers/STM32F4xx_HAL_Driver/Src/stm32f4xx_hal_adc_ex.c ****     /* Stop potential conversion on going, on regular and injected groups */
 505:Drivers/STM32F4xx_HAL_Driver/Src/stm32f4xx_hal_adc_ex.c ****     /* Disable ADC peripheral */
 506:Drivers/STM32F4xx_HAL_Driver/Src/stm32f4xx_hal_adc_ex.c ****     __HAL_ADC_DISABLE(hadc);
 901              		.loc 1 506 5
 902 003c 7B68     		ldr	r3, [r7, #4]
 903 003e 1B68     		ldr	r3, [r3]
 904 0040 9A68     		ldr	r2, [r3, #8]
 905 0042 7B68     		ldr	r3, [r7, #4]
 906 0044 1B68     		ldr	r3, [r3]
 907 0046 22F00102 		bic	r2, r2, #1
 908 004a 9A60     		str	r2, [r3, #8]
 507:Drivers/STM32F4xx_HAL_Driver/Src/stm32f4xx_hal_adc_ex.c **** 
 508:Drivers/STM32F4xx_HAL_Driver/Src/stm32f4xx_hal_adc_ex.c ****     /* Check if ADC is effectively disabled */
 509:Drivers/STM32F4xx_HAL_Driver/Src/stm32f4xx_hal_adc_ex.c ****     if (HAL_IS_BIT_CLR(hadc->Instance->CR2, ADC_CR2_ADON))
 909              		.loc 1 509 9
 910 004c 7B68     		ldr	r3, [r7, #4]
 911 004e 1B68     		ldr	r3, [r3]
 912 0050 9B68     		ldr	r3, [r3, #8]
 913 0052 03F00103 		and	r3, r3, #1
ARM GAS  C:\Users\Halil\AppData\Local\Temp\ccl2Bawv.s 			page 26


 914              		.loc 1 509 8
 915 0056 002B     		cmp	r3, #0
 916 0058 1AD1     		bne	.L45
 510:Drivers/STM32F4xx_HAL_Driver/Src/stm32f4xx_hal_adc_ex.c ****     {
 511:Drivers/STM32F4xx_HAL_Driver/Src/stm32f4xx_hal_adc_ex.c ****       /* Disable ADC end of conversion interrupt for injected channels */
 512:Drivers/STM32F4xx_HAL_Driver/Src/stm32f4xx_hal_adc_ex.c ****       __HAL_ADC_DISABLE_IT(hadc, ADC_IT_JEOC);
 917              		.loc 1 512 7
 918 005a 7B68     		ldr	r3, [r7, #4]
 919 005c 1B68     		ldr	r3, [r3]
 920 005e 5A68     		ldr	r2, [r3, #4]
 921 0060 7B68     		ldr	r3, [r7, #4]
 922 0062 1B68     		ldr	r3, [r3]
 923 0064 22F08002 		bic	r2, r2, #128
 924 0068 5A60     		str	r2, [r3, #4]
 513:Drivers/STM32F4xx_HAL_Driver/Src/stm32f4xx_hal_adc_ex.c **** 
 514:Drivers/STM32F4xx_HAL_Driver/Src/stm32f4xx_hal_adc_ex.c ****       /* Set ADC state */
 515:Drivers/STM32F4xx_HAL_Driver/Src/stm32f4xx_hal_adc_ex.c ****       ADC_STATE_CLR_SET(hadc->State,
 925              		.loc 1 515 7
 926 006a 7B68     		ldr	r3, [r7, #4]
 927 006c 1B6C     		ldr	r3, [r3, #64]
 928 006e 23F48853 		bic	r3, r3, #4352
 929 0072 23F00103 		bic	r3, r3, #1
 930 0076 43F00102 		orr	r2, r3, #1
 931 007a 7B68     		ldr	r3, [r7, #4]
 932 007c 1A64     		str	r2, [r3, #64]
 509:Drivers/STM32F4xx_HAL_Driver/Src/stm32f4xx_hal_adc_ex.c ****     {
 933              		.loc 1 509 8
 934 007e 07E0     		b	.L45
 935              	.L43:
 516:Drivers/STM32F4xx_HAL_Driver/Src/stm32f4xx_hal_adc_ex.c ****                         HAL_ADC_STATE_REG_BUSY | HAL_ADC_STATE_INJ_BUSY,
 517:Drivers/STM32F4xx_HAL_Driver/Src/stm32f4xx_hal_adc_ex.c ****                         HAL_ADC_STATE_READY);
 518:Drivers/STM32F4xx_HAL_Driver/Src/stm32f4xx_hal_adc_ex.c ****     }
 519:Drivers/STM32F4xx_HAL_Driver/Src/stm32f4xx_hal_adc_ex.c ****   }
 520:Drivers/STM32F4xx_HAL_Driver/Src/stm32f4xx_hal_adc_ex.c ****   else
 521:Drivers/STM32F4xx_HAL_Driver/Src/stm32f4xx_hal_adc_ex.c ****   {
 522:Drivers/STM32F4xx_HAL_Driver/Src/stm32f4xx_hal_adc_ex.c ****     /* Update ADC state machine to error */
 523:Drivers/STM32F4xx_HAL_Driver/Src/stm32f4xx_hal_adc_ex.c ****     SET_BIT(hadc->State, HAL_ADC_STATE_ERROR_CONFIG);
 936              		.loc 1 523 5
 937 0080 7B68     		ldr	r3, [r7, #4]
 938 0082 1B6C     		ldr	r3, [r3, #64]
 939 0084 43F02002 		orr	r2, r3, #32
 940 0088 7B68     		ldr	r3, [r7, #4]
 941 008a 1A64     		str	r2, [r3, #64]
 524:Drivers/STM32F4xx_HAL_Driver/Src/stm32f4xx_hal_adc_ex.c **** 
 525:Drivers/STM32F4xx_HAL_Driver/Src/stm32f4xx_hal_adc_ex.c ****     tmp_hal_status = HAL_ERROR;
 942              		.loc 1 525 20
 943 008c 0123     		movs	r3, #1
 944 008e FB73     		strb	r3, [r7, #15]
 945              	.L45:
 526:Drivers/STM32F4xx_HAL_Driver/Src/stm32f4xx_hal_adc_ex.c ****   }
 527:Drivers/STM32F4xx_HAL_Driver/Src/stm32f4xx_hal_adc_ex.c **** 
 528:Drivers/STM32F4xx_HAL_Driver/Src/stm32f4xx_hal_adc_ex.c ****   /* Process unlocked */
 529:Drivers/STM32F4xx_HAL_Driver/Src/stm32f4xx_hal_adc_ex.c ****   __HAL_UNLOCK(hadc);
 946              		.loc 1 529 3
 947 0090 7B68     		ldr	r3, [r7, #4]
 948 0092 0022     		movs	r2, #0
 949 0094 83F83C20 		strb	r2, [r3, #60]
ARM GAS  C:\Users\Halil\AppData\Local\Temp\ccl2Bawv.s 			page 27


 530:Drivers/STM32F4xx_HAL_Driver/Src/stm32f4xx_hal_adc_ex.c **** 
 531:Drivers/STM32F4xx_HAL_Driver/Src/stm32f4xx_hal_adc_ex.c ****   /* Return function status */
 532:Drivers/STM32F4xx_HAL_Driver/Src/stm32f4xx_hal_adc_ex.c ****   return tmp_hal_status;
 950              		.loc 1 532 10
 951 0098 FB7B     		ldrb	r3, [r7, #15]	@ zero_extendqisi2
 952              	.L42:
 533:Drivers/STM32F4xx_HAL_Driver/Src/stm32f4xx_hal_adc_ex.c **** }
 953              		.loc 1 533 1
 954 009a 1846     		mov	r0, r3
 955 009c 1437     		adds	r7, r7, #20
 956              		.cfi_def_cfa_offset 4
 957 009e BD46     		mov	sp, r7
 958              		.cfi_def_cfa_register 13
 959              		@ sp needed
 960 00a0 5DF8047B 		ldr	r7, [sp], #4
 961              		.cfi_restore 7
 962              		.cfi_def_cfa_offset 0
 963 00a4 7047     		bx	lr
 964              		.cfi_endproc
 965              	.LFE243:
 967              		.section	.text.HAL_ADCEx_InjectedGetValue,"ax",%progbits
 968              		.align	1
 969              		.global	HAL_ADCEx_InjectedGetValue
 970              		.syntax unified
 971              		.thumb
 972              		.thumb_func
 974              	HAL_ADCEx_InjectedGetValue:
 975              	.LFB244:
 534:Drivers/STM32F4xx_HAL_Driver/Src/stm32f4xx_hal_adc_ex.c **** 
 535:Drivers/STM32F4xx_HAL_Driver/Src/stm32f4xx_hal_adc_ex.c **** /**
 536:Drivers/STM32F4xx_HAL_Driver/Src/stm32f4xx_hal_adc_ex.c ****   * @brief  Gets the converted value from data register of injected channel.
 537:Drivers/STM32F4xx_HAL_Driver/Src/stm32f4xx_hal_adc_ex.c ****   * @param  hadc pointer to a ADC_HandleTypeDef structure that contains
 538:Drivers/STM32F4xx_HAL_Driver/Src/stm32f4xx_hal_adc_ex.c ****   *         the configuration information for the specified ADC.
 539:Drivers/STM32F4xx_HAL_Driver/Src/stm32f4xx_hal_adc_ex.c ****   * @param  InjectedRank the ADC injected rank.
 540:Drivers/STM32F4xx_HAL_Driver/Src/stm32f4xx_hal_adc_ex.c ****   *          This parameter can be one of the following values:
 541:Drivers/STM32F4xx_HAL_Driver/Src/stm32f4xx_hal_adc_ex.c ****   *            @arg ADC_INJECTED_RANK_1: Injected Channel1 selected
 542:Drivers/STM32F4xx_HAL_Driver/Src/stm32f4xx_hal_adc_ex.c ****   *            @arg ADC_INJECTED_RANK_2: Injected Channel2 selected
 543:Drivers/STM32F4xx_HAL_Driver/Src/stm32f4xx_hal_adc_ex.c ****   *            @arg ADC_INJECTED_RANK_3: Injected Channel3 selected
 544:Drivers/STM32F4xx_HAL_Driver/Src/stm32f4xx_hal_adc_ex.c ****   *            @arg ADC_INJECTED_RANK_4: Injected Channel4 selected
 545:Drivers/STM32F4xx_HAL_Driver/Src/stm32f4xx_hal_adc_ex.c ****   * @retval None
 546:Drivers/STM32F4xx_HAL_Driver/Src/stm32f4xx_hal_adc_ex.c ****   */
 547:Drivers/STM32F4xx_HAL_Driver/Src/stm32f4xx_hal_adc_ex.c **** uint32_t HAL_ADCEx_InjectedGetValue(ADC_HandleTypeDef *hadc, uint32_t InjectedRank)
 548:Drivers/STM32F4xx_HAL_Driver/Src/stm32f4xx_hal_adc_ex.c **** {
 976              		.loc 1 548 1
 977              		.cfi_startproc
 978              		@ args = 0, pretend = 0, frame = 16
 979              		@ frame_needed = 1, uses_anonymous_args = 0
 980              		@ link register save eliminated.
 981 0000 80B4     		push	{r7}
 982              		.cfi_def_cfa_offset 4
 983              		.cfi_offset 7, -4
 984 0002 85B0     		sub	sp, sp, #20
 985              		.cfi_def_cfa_offset 24
 986 0004 00AF     		add	r7, sp, #0
 987              		.cfi_def_cfa_register 7
 988 0006 7860     		str	r0, [r7, #4]
 989 0008 3960     		str	r1, [r7]
ARM GAS  C:\Users\Halil\AppData\Local\Temp\ccl2Bawv.s 			page 28


 549:Drivers/STM32F4xx_HAL_Driver/Src/stm32f4xx_hal_adc_ex.c ****   __IO uint32_t tmp = 0U;
 990              		.loc 1 549 17
 991 000a 0023     		movs	r3, #0
 992 000c FB60     		str	r3, [r7, #12]
 550:Drivers/STM32F4xx_HAL_Driver/Src/stm32f4xx_hal_adc_ex.c **** 
 551:Drivers/STM32F4xx_HAL_Driver/Src/stm32f4xx_hal_adc_ex.c ****   /* Check the parameters */
 552:Drivers/STM32F4xx_HAL_Driver/Src/stm32f4xx_hal_adc_ex.c ****   assert_param(IS_ADC_INJECTED_RANK(InjectedRank));
 553:Drivers/STM32F4xx_HAL_Driver/Src/stm32f4xx_hal_adc_ex.c **** 
 554:Drivers/STM32F4xx_HAL_Driver/Src/stm32f4xx_hal_adc_ex.c ****   /* Clear injected group conversion flag to have similar behaviour as        */
 555:Drivers/STM32F4xx_HAL_Driver/Src/stm32f4xx_hal_adc_ex.c ****   /* regular group: reading data register also clears end of conversion flag. */
 556:Drivers/STM32F4xx_HAL_Driver/Src/stm32f4xx_hal_adc_ex.c ****   __HAL_ADC_CLEAR_FLAG(hadc, ADC_FLAG_JEOC);
 993              		.loc 1 556 3
 994 000e 7B68     		ldr	r3, [r7, #4]
 995 0010 1B68     		ldr	r3, [r3]
 996 0012 6FF00402 		mvn	r2, #4
 997 0016 1A60     		str	r2, [r3]
 557:Drivers/STM32F4xx_HAL_Driver/Src/stm32f4xx_hal_adc_ex.c **** 
 558:Drivers/STM32F4xx_HAL_Driver/Src/stm32f4xx_hal_adc_ex.c ****   /* Return the selected ADC converted value */
 559:Drivers/STM32F4xx_HAL_Driver/Src/stm32f4xx_hal_adc_ex.c ****   switch (InjectedRank)
 998              		.loc 1 559 3
 999 0018 3B68     		ldr	r3, [r7]
 1000 001a 013B     		subs	r3, r3, #1
 1001 001c 032B     		cmp	r3, #3
 1002 001e 1FD8     		bhi	.L55
 1003 0020 01A2     		adr	r2, .L49
 1004 0022 52F823F0 		ldr	pc, [r2, r3, lsl #2]
 1005 0026 00BF     		.p2align 2
 1006              	.L49:
 1007 0028 57000000 		.word	.L52+1
 1008 002c 4D000000 		.word	.L51+1
 1009 0030 43000000 		.word	.L50+1
 1010 0034 39000000 		.word	.L48+1
 1011              		.p2align 1
 1012              	.L48:
 560:Drivers/STM32F4xx_HAL_Driver/Src/stm32f4xx_hal_adc_ex.c ****   {
 561:Drivers/STM32F4xx_HAL_Driver/Src/stm32f4xx_hal_adc_ex.c ****     case ADC_INJECTED_RANK_4:
 562:Drivers/STM32F4xx_HAL_Driver/Src/stm32f4xx_hal_adc_ex.c ****     {
 563:Drivers/STM32F4xx_HAL_Driver/Src/stm32f4xx_hal_adc_ex.c ****       tmp =  hadc->Instance->JDR4;
 1013              		.loc 1 563 18
 1014 0038 7B68     		ldr	r3, [r7, #4]
 1015 003a 1B68     		ldr	r3, [r3]
 1016              		.loc 1 563 28
 1017 003c 9B6C     		ldr	r3, [r3, #72]
 1018              		.loc 1 563 11
 1019 003e FB60     		str	r3, [r7, #12]
 564:Drivers/STM32F4xx_HAL_Driver/Src/stm32f4xx_hal_adc_ex.c ****     }
 565:Drivers/STM32F4xx_HAL_Driver/Src/stm32f4xx_hal_adc_ex.c ****     break;
 1020              		.loc 1 565 5
 1021 0040 0FE0     		b	.L53
 1022              	.L50:
 566:Drivers/STM32F4xx_HAL_Driver/Src/stm32f4xx_hal_adc_ex.c ****     case ADC_INJECTED_RANK_3:
 567:Drivers/STM32F4xx_HAL_Driver/Src/stm32f4xx_hal_adc_ex.c ****     {
 568:Drivers/STM32F4xx_HAL_Driver/Src/stm32f4xx_hal_adc_ex.c ****       tmp =  hadc->Instance->JDR3;
 1023              		.loc 1 568 18
 1024 0042 7B68     		ldr	r3, [r7, #4]
 1025 0044 1B68     		ldr	r3, [r3]
 1026              		.loc 1 568 28
ARM GAS  C:\Users\Halil\AppData\Local\Temp\ccl2Bawv.s 			page 29


 1027 0046 5B6C     		ldr	r3, [r3, #68]
 1028              		.loc 1 568 11
 1029 0048 FB60     		str	r3, [r7, #12]
 569:Drivers/STM32F4xx_HAL_Driver/Src/stm32f4xx_hal_adc_ex.c ****     }
 570:Drivers/STM32F4xx_HAL_Driver/Src/stm32f4xx_hal_adc_ex.c ****     break;
 1030              		.loc 1 570 5
 1031 004a 0AE0     		b	.L53
 1032              	.L51:
 571:Drivers/STM32F4xx_HAL_Driver/Src/stm32f4xx_hal_adc_ex.c ****     case ADC_INJECTED_RANK_2:
 572:Drivers/STM32F4xx_HAL_Driver/Src/stm32f4xx_hal_adc_ex.c ****     {
 573:Drivers/STM32F4xx_HAL_Driver/Src/stm32f4xx_hal_adc_ex.c ****       tmp =  hadc->Instance->JDR2;
 1033              		.loc 1 573 18
 1034 004c 7B68     		ldr	r3, [r7, #4]
 1035 004e 1B68     		ldr	r3, [r3]
 1036              		.loc 1 573 28
 1037 0050 1B6C     		ldr	r3, [r3, #64]
 1038              		.loc 1 573 11
 1039 0052 FB60     		str	r3, [r7, #12]
 574:Drivers/STM32F4xx_HAL_Driver/Src/stm32f4xx_hal_adc_ex.c ****     }
 575:Drivers/STM32F4xx_HAL_Driver/Src/stm32f4xx_hal_adc_ex.c ****     break;
 1040              		.loc 1 575 5
 1041 0054 05E0     		b	.L53
 1042              	.L52:
 576:Drivers/STM32F4xx_HAL_Driver/Src/stm32f4xx_hal_adc_ex.c ****     case ADC_INJECTED_RANK_1:
 577:Drivers/STM32F4xx_HAL_Driver/Src/stm32f4xx_hal_adc_ex.c ****     {
 578:Drivers/STM32F4xx_HAL_Driver/Src/stm32f4xx_hal_adc_ex.c ****       tmp =  hadc->Instance->JDR1;
 1043              		.loc 1 578 18
 1044 0056 7B68     		ldr	r3, [r7, #4]
 1045 0058 1B68     		ldr	r3, [r3]
 1046              		.loc 1 578 28
 1047 005a DB6B     		ldr	r3, [r3, #60]
 1048              		.loc 1 578 11
 1049 005c FB60     		str	r3, [r7, #12]
 579:Drivers/STM32F4xx_HAL_Driver/Src/stm32f4xx_hal_adc_ex.c ****     }
 580:Drivers/STM32F4xx_HAL_Driver/Src/stm32f4xx_hal_adc_ex.c ****     break;
 1050              		.loc 1 580 5
 1051 005e 00E0     		b	.L53
 1052              	.L55:
 581:Drivers/STM32F4xx_HAL_Driver/Src/stm32f4xx_hal_adc_ex.c ****     default:
 582:Drivers/STM32F4xx_HAL_Driver/Src/stm32f4xx_hal_adc_ex.c ****       break;
 1053              		.loc 1 582 7
 1054 0060 00BF     		nop
 1055              	.L53:
 583:Drivers/STM32F4xx_HAL_Driver/Src/stm32f4xx_hal_adc_ex.c ****   }
 584:Drivers/STM32F4xx_HAL_Driver/Src/stm32f4xx_hal_adc_ex.c ****   return tmp;
 1056              		.loc 1 584 10
 1057 0062 FB68     		ldr	r3, [r7, #12]
 585:Drivers/STM32F4xx_HAL_Driver/Src/stm32f4xx_hal_adc_ex.c **** }
 1058              		.loc 1 585 1
 1059 0064 1846     		mov	r0, r3
 1060 0066 1437     		adds	r7, r7, #20
 1061              		.cfi_def_cfa_offset 4
 1062 0068 BD46     		mov	sp, r7
 1063              		.cfi_def_cfa_register 13
 1064              		@ sp needed
 1065 006a 5DF8047B 		ldr	r7, [sp], #4
 1066              		.cfi_restore 7
ARM GAS  C:\Users\Halil\AppData\Local\Temp\ccl2Bawv.s 			page 30


 1067              		.cfi_def_cfa_offset 0
 1068 006e 7047     		bx	lr
 1069              		.cfi_endproc
 1070              	.LFE244:
 1072              		.section	.text.HAL_ADCEx_MultiModeStart_DMA,"ax",%progbits
 1073              		.align	1
 1074              		.global	HAL_ADCEx_MultiModeStart_DMA
 1075              		.syntax unified
 1076              		.thumb
 1077              		.thumb_func
 1079              	HAL_ADCEx_MultiModeStart_DMA:
 1080              	.LFB245:
 586:Drivers/STM32F4xx_HAL_Driver/Src/stm32f4xx_hal_adc_ex.c **** 
 587:Drivers/STM32F4xx_HAL_Driver/Src/stm32f4xx_hal_adc_ex.c **** /**
 588:Drivers/STM32F4xx_HAL_Driver/Src/stm32f4xx_hal_adc_ex.c ****   * @brief  Enables ADC DMA request after last transfer (Multi-ADC mode) and enables ADC peripheral
 589:Drivers/STM32F4xx_HAL_Driver/Src/stm32f4xx_hal_adc_ex.c ****   *
 590:Drivers/STM32F4xx_HAL_Driver/Src/stm32f4xx_hal_adc_ex.c ****   * @note   Caution: This function must be used only with the ADC master.
 591:Drivers/STM32F4xx_HAL_Driver/Src/stm32f4xx_hal_adc_ex.c ****   *
 592:Drivers/STM32F4xx_HAL_Driver/Src/stm32f4xx_hal_adc_ex.c ****   * @param  hadc pointer to a ADC_HandleTypeDef structure that contains
 593:Drivers/STM32F4xx_HAL_Driver/Src/stm32f4xx_hal_adc_ex.c ****   *         the configuration information for the specified ADC.
 594:Drivers/STM32F4xx_HAL_Driver/Src/stm32f4xx_hal_adc_ex.c ****   * @param  pData   Pointer to buffer in which transferred from ADC peripheral to memory will be st
 595:Drivers/STM32F4xx_HAL_Driver/Src/stm32f4xx_hal_adc_ex.c ****   * @param  Length  The length of data to be transferred from ADC peripheral to memory.
 596:Drivers/STM32F4xx_HAL_Driver/Src/stm32f4xx_hal_adc_ex.c ****   * @retval HAL status
 597:Drivers/STM32F4xx_HAL_Driver/Src/stm32f4xx_hal_adc_ex.c ****   */
 598:Drivers/STM32F4xx_HAL_Driver/Src/stm32f4xx_hal_adc_ex.c **** HAL_StatusTypeDef HAL_ADCEx_MultiModeStart_DMA(ADC_HandleTypeDef *hadc, uint32_t *pData, uint32_t L
 599:Drivers/STM32F4xx_HAL_Driver/Src/stm32f4xx_hal_adc_ex.c **** {
 1081              		.loc 1 599 1
 1082              		.cfi_startproc
 1083              		@ args = 0, pretend = 0, frame = 32
 1084              		@ frame_needed = 1, uses_anonymous_args = 0
 1085 0000 80B5     		push	{r7, lr}
 1086              		.cfi_def_cfa_offset 8
 1087              		.cfi_offset 7, -8
 1088              		.cfi_offset 14, -4
 1089 0002 88B0     		sub	sp, sp, #32
 1090              		.cfi_def_cfa_offset 40
 1091 0004 00AF     		add	r7, sp, #0
 1092              		.cfi_def_cfa_register 7
 1093 0006 F860     		str	r0, [r7, #12]
 1094 0008 B960     		str	r1, [r7, #8]
 1095 000a 7A60     		str	r2, [r7, #4]
 600:Drivers/STM32F4xx_HAL_Driver/Src/stm32f4xx_hal_adc_ex.c ****   __IO uint32_t counter = 0U;
 1096              		.loc 1 600 17
 1097 000c 0023     		movs	r3, #0
 1098 000e 7B61     		str	r3, [r7, #20]
 601:Drivers/STM32F4xx_HAL_Driver/Src/stm32f4xx_hal_adc_ex.c ****   ADC_Common_TypeDef *tmpADC_Common;
 602:Drivers/STM32F4xx_HAL_Driver/Src/stm32f4xx_hal_adc_ex.c ****   HAL_StatusTypeDef tmp_hal_status = HAL_OK;
 1099              		.loc 1 602 21
 1100 0010 0023     		movs	r3, #0
 1101 0012 FB77     		strb	r3, [r7, #31]
 603:Drivers/STM32F4xx_HAL_Driver/Src/stm32f4xx_hal_adc_ex.c ****   /* Check the parameters */
 604:Drivers/STM32F4xx_HAL_Driver/Src/stm32f4xx_hal_adc_ex.c ****   assert_param(IS_FUNCTIONAL_STATE(hadc->Init.ContinuousConvMode));
 605:Drivers/STM32F4xx_HAL_Driver/Src/stm32f4xx_hal_adc_ex.c ****   assert_param(IS_ADC_EXT_TRIG_EDGE(hadc->Init.ExternalTrigConvEdge));
 606:Drivers/STM32F4xx_HAL_Driver/Src/stm32f4xx_hal_adc_ex.c ****   assert_param(IS_FUNCTIONAL_STATE(hadc->Init.DMAContinuousRequests));
 607:Drivers/STM32F4xx_HAL_Driver/Src/stm32f4xx_hal_adc_ex.c **** 
 608:Drivers/STM32F4xx_HAL_Driver/Src/stm32f4xx_hal_adc_ex.c ****   /* Process locked */
 609:Drivers/STM32F4xx_HAL_Driver/Src/stm32f4xx_hal_adc_ex.c ****   __HAL_LOCK(hadc);
ARM GAS  C:\Users\Halil\AppData\Local\Temp\ccl2Bawv.s 			page 31


 1102              		.loc 1 609 3
 1103 0014 FB68     		ldr	r3, [r7, #12]
 1104 0016 93F83C30 		ldrb	r3, [r3, #60]	@ zero_extendqisi2
 1105 001a 012B     		cmp	r3, #1
 1106 001c 01D1     		bne	.L57
 1107              		.loc 1 609 3 is_stmt 0 discriminator 1
 1108 001e 0223     		movs	r3, #2
 1109 0020 ADE0     		b	.L58
 1110              	.L57:
 1111              		.loc 1 609 3 discriminator 2
 1112 0022 FB68     		ldr	r3, [r7, #12]
 1113 0024 0122     		movs	r2, #1
 1114 0026 83F83C20 		strb	r2, [r3, #60]
 610:Drivers/STM32F4xx_HAL_Driver/Src/stm32f4xx_hal_adc_ex.c **** 
 611:Drivers/STM32F4xx_HAL_Driver/Src/stm32f4xx_hal_adc_ex.c ****   /* Check if ADC peripheral is disabled in order to enable it and wait during
 612:Drivers/STM32F4xx_HAL_Driver/Src/stm32f4xx_hal_adc_ex.c ****      Tstab time the ADC's stabilization */
 613:Drivers/STM32F4xx_HAL_Driver/Src/stm32f4xx_hal_adc_ex.c ****   if ((hadc->Instance->CR2 & ADC_CR2_ADON) != ADC_CR2_ADON)
 1115              		.loc 1 613 12 is_stmt 1 discriminator 2
 1116 002a FB68     		ldr	r3, [r7, #12]
 1117 002c 1B68     		ldr	r3, [r3]
 1118              		.loc 1 613 22 discriminator 2
 1119 002e 9B68     		ldr	r3, [r3, #8]
 1120              		.loc 1 613 28 discriminator 2
 1121 0030 03F00103 		and	r3, r3, #1
 1122              		.loc 1 613 6 discriminator 2
 1123 0034 012B     		cmp	r3, #1
 1124 0036 18D0     		beq	.L59
 614:Drivers/STM32F4xx_HAL_Driver/Src/stm32f4xx_hal_adc_ex.c ****   {
 615:Drivers/STM32F4xx_HAL_Driver/Src/stm32f4xx_hal_adc_ex.c ****     /* Enable the Peripheral */
 616:Drivers/STM32F4xx_HAL_Driver/Src/stm32f4xx_hal_adc_ex.c ****     __HAL_ADC_ENABLE(hadc);
 1125              		.loc 1 616 5
 1126 0038 FB68     		ldr	r3, [r7, #12]
 1127 003a 1B68     		ldr	r3, [r3]
 1128 003c 9A68     		ldr	r2, [r3, #8]
 1129 003e FB68     		ldr	r3, [r7, #12]
 1130 0040 1B68     		ldr	r3, [r3]
 1131 0042 42F00102 		orr	r2, r2, #1
 1132 0046 9A60     		str	r2, [r3, #8]
 617:Drivers/STM32F4xx_HAL_Driver/Src/stm32f4xx_hal_adc_ex.c **** 
 618:Drivers/STM32F4xx_HAL_Driver/Src/stm32f4xx_hal_adc_ex.c ****     /* Delay for temperature sensor stabilization time */
 619:Drivers/STM32F4xx_HAL_Driver/Src/stm32f4xx_hal_adc_ex.c ****     /* Compute number of CPU cycles to wait for */
 620:Drivers/STM32F4xx_HAL_Driver/Src/stm32f4xx_hal_adc_ex.c ****     counter = (ADC_STAB_DELAY_US * (SystemCoreClock / 1000000U));
 1133              		.loc 1 620 53
 1134 0048 4F4B     		ldr	r3, .L69
 1135 004a 1B68     		ldr	r3, [r3]
 1136 004c 4F4A     		ldr	r2, .L69+4
 1137 004e A2FB0323 		umull	r2, r3, r2, r3
 1138 0052 9A0C     		lsrs	r2, r3, #18
 1139              		.loc 1 620 34
 1140 0054 1346     		mov	r3, r2
 1141 0056 5B00     		lsls	r3, r3, #1
 1142 0058 1344     		add	r3, r3, r2
 1143              		.loc 1 620 13
 1144 005a 7B61     		str	r3, [r7, #20]
 621:Drivers/STM32F4xx_HAL_Driver/Src/stm32f4xx_hal_adc_ex.c ****     while (counter != 0U)
 1145              		.loc 1 621 11
 1146 005c 02E0     		b	.L60
ARM GAS  C:\Users\Halil\AppData\Local\Temp\ccl2Bawv.s 			page 32


 1147              	.L61:
 622:Drivers/STM32F4xx_HAL_Driver/Src/stm32f4xx_hal_adc_ex.c ****     {
 623:Drivers/STM32F4xx_HAL_Driver/Src/stm32f4xx_hal_adc_ex.c ****       counter--;
 1148              		.loc 1 623 14
 1149 005e 7B69     		ldr	r3, [r7, #20]
 1150 0060 013B     		subs	r3, r3, #1
 1151 0062 7B61     		str	r3, [r7, #20]
 1152              	.L60:
 621:Drivers/STM32F4xx_HAL_Driver/Src/stm32f4xx_hal_adc_ex.c ****     while (counter != 0U)
 1153              		.loc 1 621 20
 1154 0064 7B69     		ldr	r3, [r7, #20]
 1155 0066 002B     		cmp	r3, #0
 1156 0068 F9D1     		bne	.L61
 1157              	.L59:
 624:Drivers/STM32F4xx_HAL_Driver/Src/stm32f4xx_hal_adc_ex.c ****     }
 625:Drivers/STM32F4xx_HAL_Driver/Src/stm32f4xx_hal_adc_ex.c ****   }
 626:Drivers/STM32F4xx_HAL_Driver/Src/stm32f4xx_hal_adc_ex.c **** 
 627:Drivers/STM32F4xx_HAL_Driver/Src/stm32f4xx_hal_adc_ex.c ****   /* Start conversion if ADC is effectively enabled */
 628:Drivers/STM32F4xx_HAL_Driver/Src/stm32f4xx_hal_adc_ex.c ****   if (HAL_IS_BIT_SET(hadc->Instance->CR2, ADC_CR2_ADON))
 1158              		.loc 1 628 7
 1159 006a FB68     		ldr	r3, [r7, #12]
 1160 006c 1B68     		ldr	r3, [r3]
 1161 006e 9B68     		ldr	r3, [r3, #8]
 1162 0070 03F00103 		and	r3, r3, #1
 1163              		.loc 1 628 6
 1164 0074 012B     		cmp	r3, #1
 1165 0076 75D1     		bne	.L62
 629:Drivers/STM32F4xx_HAL_Driver/Src/stm32f4xx_hal_adc_ex.c ****   {
 630:Drivers/STM32F4xx_HAL_Driver/Src/stm32f4xx_hal_adc_ex.c ****     /* Set ADC state                                                          */
 631:Drivers/STM32F4xx_HAL_Driver/Src/stm32f4xx_hal_adc_ex.c ****     /* - Clear state bitfield related to regular group conversion results     */
 632:Drivers/STM32F4xx_HAL_Driver/Src/stm32f4xx_hal_adc_ex.c ****     /* - Set state bitfield related to regular group operation                */
 633:Drivers/STM32F4xx_HAL_Driver/Src/stm32f4xx_hal_adc_ex.c ****     ADC_STATE_CLR_SET(hadc->State,
 1166              		.loc 1 633 5
 1167 0078 FB68     		ldr	r3, [r7, #12]
 1168 007a 1B6C     		ldr	r3, [r3, #64]
 1169 007c 23F4E063 		bic	r3, r3, #1792
 1170 0080 23F00103 		bic	r3, r3, #1
 1171 0084 43F48072 		orr	r2, r3, #256
 1172 0088 FB68     		ldr	r3, [r7, #12]
 1173 008a 1A64     		str	r2, [r3, #64]
 634:Drivers/STM32F4xx_HAL_Driver/Src/stm32f4xx_hal_adc_ex.c ****                       HAL_ADC_STATE_READY | HAL_ADC_STATE_REG_EOC | HAL_ADC_STATE_REG_OVR,
 635:Drivers/STM32F4xx_HAL_Driver/Src/stm32f4xx_hal_adc_ex.c ****                       HAL_ADC_STATE_REG_BUSY);
 636:Drivers/STM32F4xx_HAL_Driver/Src/stm32f4xx_hal_adc_ex.c **** 
 637:Drivers/STM32F4xx_HAL_Driver/Src/stm32f4xx_hal_adc_ex.c ****     /* If conversions on group regular are also triggering group injected,    */
 638:Drivers/STM32F4xx_HAL_Driver/Src/stm32f4xx_hal_adc_ex.c ****     /* update ADC state.                                                      */
 639:Drivers/STM32F4xx_HAL_Driver/Src/stm32f4xx_hal_adc_ex.c ****     if (READ_BIT(hadc->Instance->CR1, ADC_CR1_JAUTO) != RESET)
 1174              		.loc 1 639 9
 1175 008c FB68     		ldr	r3, [r7, #12]
 1176 008e 1B68     		ldr	r3, [r3]
 1177 0090 5B68     		ldr	r3, [r3, #4]
 1178 0092 03F48063 		and	r3, r3, #1024
 1179              		.loc 1 639 8
 1180 0096 002B     		cmp	r3, #0
 1181 0098 07D0     		beq	.L63
 640:Drivers/STM32F4xx_HAL_Driver/Src/stm32f4xx_hal_adc_ex.c ****     {
 641:Drivers/STM32F4xx_HAL_Driver/Src/stm32f4xx_hal_adc_ex.c ****       ADC_STATE_CLR_SET(hadc->State, HAL_ADC_STATE_INJ_EOC, HAL_ADC_STATE_INJ_BUSY);
 1182              		.loc 1 641 7
ARM GAS  C:\Users\Halil\AppData\Local\Temp\ccl2Bawv.s 			page 33


 1183 009a FB68     		ldr	r3, [r7, #12]
 1184 009c 1B6C     		ldr	r3, [r3, #64]
 1185 009e 23F44053 		bic	r3, r3, #12288
 1186 00a2 43F48052 		orr	r2, r3, #4096
 1187 00a6 FB68     		ldr	r3, [r7, #12]
 1188 00a8 1A64     		str	r2, [r3, #64]
 1189              	.L63:
 642:Drivers/STM32F4xx_HAL_Driver/Src/stm32f4xx_hal_adc_ex.c ****     }
 643:Drivers/STM32F4xx_HAL_Driver/Src/stm32f4xx_hal_adc_ex.c **** 
 644:Drivers/STM32F4xx_HAL_Driver/Src/stm32f4xx_hal_adc_ex.c ****     /* State machine update: Check if an injected conversion is ongoing */
 645:Drivers/STM32F4xx_HAL_Driver/Src/stm32f4xx_hal_adc_ex.c ****     if (HAL_IS_BIT_SET(hadc->State, HAL_ADC_STATE_INJ_BUSY))
 1190              		.loc 1 645 9
 1191 00aa FB68     		ldr	r3, [r7, #12]
 1192 00ac 1B6C     		ldr	r3, [r3, #64]
 1193 00ae 03F48053 		and	r3, r3, #4096
 1194              		.loc 1 645 8
 1195 00b2 B3F5805F 		cmp	r3, #4096
 1196 00b6 06D1     		bne	.L64
 646:Drivers/STM32F4xx_HAL_Driver/Src/stm32f4xx_hal_adc_ex.c ****     {
 647:Drivers/STM32F4xx_HAL_Driver/Src/stm32f4xx_hal_adc_ex.c ****       /* Reset ADC error code fields related to conversions on group regular */
 648:Drivers/STM32F4xx_HAL_Driver/Src/stm32f4xx_hal_adc_ex.c ****       CLEAR_BIT(hadc->ErrorCode, (HAL_ADC_ERROR_OVR | HAL_ADC_ERROR_DMA));
 1197              		.loc 1 648 7
 1198 00b8 FB68     		ldr	r3, [r7, #12]
 1199 00ba 5B6C     		ldr	r3, [r3, #68]
 1200 00bc 23F00602 		bic	r2, r3, #6
 1201 00c0 FB68     		ldr	r3, [r7, #12]
 1202 00c2 5A64     		str	r2, [r3, #68]
 1203 00c4 02E0     		b	.L65
 1204              	.L64:
 649:Drivers/STM32F4xx_HAL_Driver/Src/stm32f4xx_hal_adc_ex.c ****     }
 650:Drivers/STM32F4xx_HAL_Driver/Src/stm32f4xx_hal_adc_ex.c ****     else
 651:Drivers/STM32F4xx_HAL_Driver/Src/stm32f4xx_hal_adc_ex.c ****     {
 652:Drivers/STM32F4xx_HAL_Driver/Src/stm32f4xx_hal_adc_ex.c ****       /* Reset ADC all error code fields */
 653:Drivers/STM32F4xx_HAL_Driver/Src/stm32f4xx_hal_adc_ex.c ****       ADC_CLEAR_ERRORCODE(hadc);
 1205              		.loc 1 653 7
 1206 00c6 FB68     		ldr	r3, [r7, #12]
 1207 00c8 0022     		movs	r2, #0
 1208 00ca 5A64     		str	r2, [r3, #68]
 1209              	.L65:
 654:Drivers/STM32F4xx_HAL_Driver/Src/stm32f4xx_hal_adc_ex.c ****     }
 655:Drivers/STM32F4xx_HAL_Driver/Src/stm32f4xx_hal_adc_ex.c **** 
 656:Drivers/STM32F4xx_HAL_Driver/Src/stm32f4xx_hal_adc_ex.c ****     /* Process unlocked */
 657:Drivers/STM32F4xx_HAL_Driver/Src/stm32f4xx_hal_adc_ex.c ****     /* Unlock before starting ADC conversions: in case of potential           */
 658:Drivers/STM32F4xx_HAL_Driver/Src/stm32f4xx_hal_adc_ex.c ****     /* interruption, to let the process to ADC IRQ Handler.                   */
 659:Drivers/STM32F4xx_HAL_Driver/Src/stm32f4xx_hal_adc_ex.c ****     __HAL_UNLOCK(hadc);
 1210              		.loc 1 659 5
 1211 00cc FB68     		ldr	r3, [r7, #12]
 1212 00ce 0022     		movs	r2, #0
 1213 00d0 83F83C20 		strb	r2, [r3, #60]
 660:Drivers/STM32F4xx_HAL_Driver/Src/stm32f4xx_hal_adc_ex.c **** 
 661:Drivers/STM32F4xx_HAL_Driver/Src/stm32f4xx_hal_adc_ex.c ****     /* Set the DMA transfer complete callback */
 662:Drivers/STM32F4xx_HAL_Driver/Src/stm32f4xx_hal_adc_ex.c ****     hadc->DMA_Handle->XferCpltCallback = ADC_MultiModeDMAConvCplt;
 1214              		.loc 1 662 9
 1215 00d4 FB68     		ldr	r3, [r7, #12]
 1216 00d6 9B6B     		ldr	r3, [r3, #56]
 1217              		.loc 1 662 40
 1218 00d8 2D4A     		ldr	r2, .L69+8
ARM GAS  C:\Users\Halil\AppData\Local\Temp\ccl2Bawv.s 			page 34


 1219 00da DA63     		str	r2, [r3, #60]
 663:Drivers/STM32F4xx_HAL_Driver/Src/stm32f4xx_hal_adc_ex.c **** 
 664:Drivers/STM32F4xx_HAL_Driver/Src/stm32f4xx_hal_adc_ex.c ****     /* Set the DMA half transfer complete callback */
 665:Drivers/STM32F4xx_HAL_Driver/Src/stm32f4xx_hal_adc_ex.c ****     hadc->DMA_Handle->XferHalfCpltCallback = ADC_MultiModeDMAHalfConvCplt;
 1220              		.loc 1 665 9
 1221 00dc FB68     		ldr	r3, [r7, #12]
 1222 00de 9B6B     		ldr	r3, [r3, #56]
 1223              		.loc 1 665 44
 1224 00e0 2C4A     		ldr	r2, .L69+12
 1225 00e2 1A64     		str	r2, [r3, #64]
 666:Drivers/STM32F4xx_HAL_Driver/Src/stm32f4xx_hal_adc_ex.c **** 
 667:Drivers/STM32F4xx_HAL_Driver/Src/stm32f4xx_hal_adc_ex.c ****     /* Set the DMA error callback */
 668:Drivers/STM32F4xx_HAL_Driver/Src/stm32f4xx_hal_adc_ex.c ****     hadc->DMA_Handle->XferErrorCallback = ADC_MultiModeDMAError ;
 1226              		.loc 1 668 9
 1227 00e4 FB68     		ldr	r3, [r7, #12]
 1228 00e6 9B6B     		ldr	r3, [r3, #56]
 1229              		.loc 1 668 41
 1230 00e8 2B4A     		ldr	r2, .L69+16
 1231 00ea DA64     		str	r2, [r3, #76]
 669:Drivers/STM32F4xx_HAL_Driver/Src/stm32f4xx_hal_adc_ex.c **** 
 670:Drivers/STM32F4xx_HAL_Driver/Src/stm32f4xx_hal_adc_ex.c ****     /* Manage ADC and DMA start: ADC overrun interruption, DMA start, ADC     */
 671:Drivers/STM32F4xx_HAL_Driver/Src/stm32f4xx_hal_adc_ex.c ****     /* start (in case of SW start):                                           */
 672:Drivers/STM32F4xx_HAL_Driver/Src/stm32f4xx_hal_adc_ex.c **** 
 673:Drivers/STM32F4xx_HAL_Driver/Src/stm32f4xx_hal_adc_ex.c ****     /* Clear regular group conversion flag and overrun flag */
 674:Drivers/STM32F4xx_HAL_Driver/Src/stm32f4xx_hal_adc_ex.c ****     /* (To ensure of no unknown state from potential previous ADC operations) */
 675:Drivers/STM32F4xx_HAL_Driver/Src/stm32f4xx_hal_adc_ex.c ****     __HAL_ADC_CLEAR_FLAG(hadc, ADC_FLAG_EOC);
 1232              		.loc 1 675 5
 1233 00ec FB68     		ldr	r3, [r7, #12]
 1234 00ee 1B68     		ldr	r3, [r3]
 1235 00f0 6FF00202 		mvn	r2, #2
 1236 00f4 1A60     		str	r2, [r3]
 676:Drivers/STM32F4xx_HAL_Driver/Src/stm32f4xx_hal_adc_ex.c **** 
 677:Drivers/STM32F4xx_HAL_Driver/Src/stm32f4xx_hal_adc_ex.c ****     /* Enable ADC overrun interrupt */
 678:Drivers/STM32F4xx_HAL_Driver/Src/stm32f4xx_hal_adc_ex.c ****     __HAL_ADC_ENABLE_IT(hadc, ADC_IT_OVR);
 1237              		.loc 1 678 5
 1238 00f6 FB68     		ldr	r3, [r7, #12]
 1239 00f8 1B68     		ldr	r3, [r3]
 1240 00fa 5A68     		ldr	r2, [r3, #4]
 1241 00fc FB68     		ldr	r3, [r7, #12]
 1242 00fe 1B68     		ldr	r3, [r3]
 1243 0100 42F08062 		orr	r2, r2, #67108864
 1244 0104 5A60     		str	r2, [r3, #4]
 679:Drivers/STM32F4xx_HAL_Driver/Src/stm32f4xx_hal_adc_ex.c **** 
 680:Drivers/STM32F4xx_HAL_Driver/Src/stm32f4xx_hal_adc_ex.c ****     /* Pointer to the common control register to which is belonging hadc    */
 681:Drivers/STM32F4xx_HAL_Driver/Src/stm32f4xx_hal_adc_ex.c ****     /* (Depending on STM32F4 product, there may be up to 3 ADC and 1 common */
 682:Drivers/STM32F4xx_HAL_Driver/Src/stm32f4xx_hal_adc_ex.c ****     /* control register)                                                    */
 683:Drivers/STM32F4xx_HAL_Driver/Src/stm32f4xx_hal_adc_ex.c ****     tmpADC_Common = ADC_COMMON_REGISTER(hadc);
 1245              		.loc 1 683 19
 1246 0106 254B     		ldr	r3, .L69+20
 1247 0108 BB61     		str	r3, [r7, #24]
 684:Drivers/STM32F4xx_HAL_Driver/Src/stm32f4xx_hal_adc_ex.c **** 
 685:Drivers/STM32F4xx_HAL_Driver/Src/stm32f4xx_hal_adc_ex.c ****     if (hadc->Init.DMAContinuousRequests != DISABLE)
 1248              		.loc 1 685 19
 1249 010a FB68     		ldr	r3, [r7, #12]
 1250 010c 93F83030 		ldrb	r3, [r3, #48]	@ zero_extendqisi2
 1251              		.loc 1 685 8
 1252 0110 002B     		cmp	r3, #0
ARM GAS  C:\Users\Halil\AppData\Local\Temp\ccl2Bawv.s 			page 35


 1253 0112 06D0     		beq	.L66
 686:Drivers/STM32F4xx_HAL_Driver/Src/stm32f4xx_hal_adc_ex.c ****     {
 687:Drivers/STM32F4xx_HAL_Driver/Src/stm32f4xx_hal_adc_ex.c ****       /* Enable the selected ADC DMA request after last transfer */
 688:Drivers/STM32F4xx_HAL_Driver/Src/stm32f4xx_hal_adc_ex.c ****       tmpADC_Common->CCR |= ADC_CCR_DDS;
 1254              		.loc 1 688 20
 1255 0114 BB69     		ldr	r3, [r7, #24]
 1256 0116 5B68     		ldr	r3, [r3, #4]
 1257              		.loc 1 688 26
 1258 0118 43F40052 		orr	r2, r3, #8192
 1259 011c BB69     		ldr	r3, [r7, #24]
 1260 011e 5A60     		str	r2, [r3, #4]
 1261 0120 05E0     		b	.L67
 1262              	.L66:
 689:Drivers/STM32F4xx_HAL_Driver/Src/stm32f4xx_hal_adc_ex.c ****     }
 690:Drivers/STM32F4xx_HAL_Driver/Src/stm32f4xx_hal_adc_ex.c ****     else
 691:Drivers/STM32F4xx_HAL_Driver/Src/stm32f4xx_hal_adc_ex.c ****     {
 692:Drivers/STM32F4xx_HAL_Driver/Src/stm32f4xx_hal_adc_ex.c ****       /* Disable the selected ADC EOC rising on each regular channel conversion */
 693:Drivers/STM32F4xx_HAL_Driver/Src/stm32f4xx_hal_adc_ex.c ****       tmpADC_Common->CCR &= ~ADC_CCR_DDS;
 1263              		.loc 1 693 20
 1264 0122 BB69     		ldr	r3, [r7, #24]
 1265 0124 5B68     		ldr	r3, [r3, #4]
 1266              		.loc 1 693 26
 1267 0126 23F40052 		bic	r2, r3, #8192
 1268 012a BB69     		ldr	r3, [r7, #24]
 1269 012c 5A60     		str	r2, [r3, #4]
 1270              	.L67:
 694:Drivers/STM32F4xx_HAL_Driver/Src/stm32f4xx_hal_adc_ex.c ****     }
 695:Drivers/STM32F4xx_HAL_Driver/Src/stm32f4xx_hal_adc_ex.c **** 
 696:Drivers/STM32F4xx_HAL_Driver/Src/stm32f4xx_hal_adc_ex.c ****     /* Enable the DMA Stream */
 697:Drivers/STM32F4xx_HAL_Driver/Src/stm32f4xx_hal_adc_ex.c ****     tmp_hal_status = HAL_DMA_Start_IT(hadc->DMA_Handle, (uint32_t)&tmpADC_Common->CDR, (uint32_t)pD
 1271              		.loc 1 697 22
 1272 012e FB68     		ldr	r3, [r7, #12]
 1273 0130 986B     		ldr	r0, [r3, #56]
 1274              		.loc 1 697 67
 1275 0132 BB69     		ldr	r3, [r7, #24]
 1276 0134 0833     		adds	r3, r3, #8
 1277              		.loc 1 697 22
 1278 0136 1946     		mov	r1, r3
 1279 0138 BA68     		ldr	r2, [r7, #8]
 1280 013a 7B68     		ldr	r3, [r7, #4]
 1281 013c FFF7FEFF 		bl	HAL_DMA_Start_IT
 1282 0140 0346     		mov	r3, r0
 1283 0142 FB77     		strb	r3, [r7, #31]
 698:Drivers/STM32F4xx_HAL_Driver/Src/stm32f4xx_hal_adc_ex.c **** 
 699:Drivers/STM32F4xx_HAL_Driver/Src/stm32f4xx_hal_adc_ex.c ****     /* if no external trigger present enable software conversion of regular channels */
 700:Drivers/STM32F4xx_HAL_Driver/Src/stm32f4xx_hal_adc_ex.c ****     if ((hadc->Instance->CR2 & ADC_CR2_EXTEN) == RESET)
 1284              		.loc 1 700 14
 1285 0144 FB68     		ldr	r3, [r7, #12]
 1286 0146 1B68     		ldr	r3, [r3]
 1287              		.loc 1 700 24
 1288 0148 9B68     		ldr	r3, [r3, #8]
 1289              		.loc 1 700 30
 1290 014a 03F04053 		and	r3, r3, #805306368
 1291              		.loc 1 700 8
 1292 014e 002B     		cmp	r3, #0
 1293 0150 14D1     		bne	.L68
 701:Drivers/STM32F4xx_HAL_Driver/Src/stm32f4xx_hal_adc_ex.c ****     {
ARM GAS  C:\Users\Halil\AppData\Local\Temp\ccl2Bawv.s 			page 36


 702:Drivers/STM32F4xx_HAL_Driver/Src/stm32f4xx_hal_adc_ex.c ****       /* Enable the selected ADC software conversion for regular group */
 703:Drivers/STM32F4xx_HAL_Driver/Src/stm32f4xx_hal_adc_ex.c ****       hadc->Instance->CR2 |= (uint32_t)ADC_CR2_SWSTART;
 1294              		.loc 1 703 11
 1295 0152 FB68     		ldr	r3, [r7, #12]
 1296 0154 1B68     		ldr	r3, [r3]
 1297              		.loc 1 703 21
 1298 0156 9A68     		ldr	r2, [r3, #8]
 1299              		.loc 1 703 11
 1300 0158 FB68     		ldr	r3, [r7, #12]
 1301 015a 1B68     		ldr	r3, [r3]
 1302              		.loc 1 703 27
 1303 015c 42F08042 		orr	r2, r2, #1073741824
 1304 0160 9A60     		str	r2, [r3, #8]
 1305 0162 0BE0     		b	.L68
 1306              	.L62:
 704:Drivers/STM32F4xx_HAL_Driver/Src/stm32f4xx_hal_adc_ex.c ****     }
 705:Drivers/STM32F4xx_HAL_Driver/Src/stm32f4xx_hal_adc_ex.c ****   }
 706:Drivers/STM32F4xx_HAL_Driver/Src/stm32f4xx_hal_adc_ex.c ****   else
 707:Drivers/STM32F4xx_HAL_Driver/Src/stm32f4xx_hal_adc_ex.c ****   {
 708:Drivers/STM32F4xx_HAL_Driver/Src/stm32f4xx_hal_adc_ex.c ****     /* Update ADC state machine to error */
 709:Drivers/STM32F4xx_HAL_Driver/Src/stm32f4xx_hal_adc_ex.c ****     SET_BIT(hadc->State, HAL_ADC_STATE_ERROR_INTERNAL);
 1307              		.loc 1 709 5
 1308 0164 FB68     		ldr	r3, [r7, #12]
 1309 0166 1B6C     		ldr	r3, [r3, #64]
 1310 0168 43F01002 		orr	r2, r3, #16
 1311 016c FB68     		ldr	r3, [r7, #12]
 1312 016e 1A64     		str	r2, [r3, #64]
 710:Drivers/STM32F4xx_HAL_Driver/Src/stm32f4xx_hal_adc_ex.c **** 
 711:Drivers/STM32F4xx_HAL_Driver/Src/stm32f4xx_hal_adc_ex.c ****     /* Set ADC error code to ADC IP internal error */
 712:Drivers/STM32F4xx_HAL_Driver/Src/stm32f4xx_hal_adc_ex.c ****     SET_BIT(hadc->ErrorCode, HAL_ADC_ERROR_INTERNAL);
 1313              		.loc 1 712 5
 1314 0170 FB68     		ldr	r3, [r7, #12]
 1315 0172 5B6C     		ldr	r3, [r3, #68]
 1316 0174 43F00102 		orr	r2, r3, #1
 1317 0178 FB68     		ldr	r3, [r7, #12]
 1318 017a 5A64     		str	r2, [r3, #68]
 1319              	.L68:
 713:Drivers/STM32F4xx_HAL_Driver/Src/stm32f4xx_hal_adc_ex.c ****   }
 714:Drivers/STM32F4xx_HAL_Driver/Src/stm32f4xx_hal_adc_ex.c **** 
 715:Drivers/STM32F4xx_HAL_Driver/Src/stm32f4xx_hal_adc_ex.c ****   /* Return function status */
 716:Drivers/STM32F4xx_HAL_Driver/Src/stm32f4xx_hal_adc_ex.c ****   return tmp_hal_status;
 1320              		.loc 1 716 10
 1321 017c FB7F     		ldrb	r3, [r7, #31]	@ zero_extendqisi2
 1322              	.L58:
 717:Drivers/STM32F4xx_HAL_Driver/Src/stm32f4xx_hal_adc_ex.c **** }
 1323              		.loc 1 717 1
 1324 017e 1846     		mov	r0, r3
 1325 0180 2037     		adds	r7, r7, #32
 1326              		.cfi_def_cfa_offset 8
 1327 0182 BD46     		mov	sp, r7
 1328              		.cfi_def_cfa_register 13
 1329              		@ sp needed
 1330 0184 80BD     		pop	{r7, pc}
 1331              	.L70:
 1332 0186 00BF     		.align	2
 1333              	.L69:
 1334 0188 00000000 		.word	SystemCoreClock
ARM GAS  C:\Users\Halil\AppData\Local\Temp\ccl2Bawv.s 			page 37


 1335 018c 83DE1B43 		.word	1125899907
 1336 0190 00000000 		.word	ADC_MultiModeDMAConvCplt
 1337 0194 00000000 		.word	ADC_MultiModeDMAHalfConvCplt
 1338 0198 00000000 		.word	ADC_MultiModeDMAError
 1339 019c 00230140 		.word	1073816320
 1340              		.cfi_endproc
 1341              	.LFE245:
 1343              		.section	.text.HAL_ADCEx_MultiModeStop_DMA,"ax",%progbits
 1344              		.align	1
 1345              		.global	HAL_ADCEx_MultiModeStop_DMA
 1346              		.syntax unified
 1347              		.thumb
 1348              		.thumb_func
 1350              	HAL_ADCEx_MultiModeStop_DMA:
 1351              	.LFB246:
 718:Drivers/STM32F4xx_HAL_Driver/Src/stm32f4xx_hal_adc_ex.c **** 
 719:Drivers/STM32F4xx_HAL_Driver/Src/stm32f4xx_hal_adc_ex.c **** /**
 720:Drivers/STM32F4xx_HAL_Driver/Src/stm32f4xx_hal_adc_ex.c ****   * @brief  Disables ADC DMA (multi-ADC mode) and disables ADC peripheral
 721:Drivers/STM32F4xx_HAL_Driver/Src/stm32f4xx_hal_adc_ex.c ****   * @param  hadc pointer to a ADC_HandleTypeDef structure that contains
 722:Drivers/STM32F4xx_HAL_Driver/Src/stm32f4xx_hal_adc_ex.c ****   *         the configuration information for the specified ADC.
 723:Drivers/STM32F4xx_HAL_Driver/Src/stm32f4xx_hal_adc_ex.c ****   * @retval HAL status
 724:Drivers/STM32F4xx_HAL_Driver/Src/stm32f4xx_hal_adc_ex.c ****   */
 725:Drivers/STM32F4xx_HAL_Driver/Src/stm32f4xx_hal_adc_ex.c **** HAL_StatusTypeDef HAL_ADCEx_MultiModeStop_DMA(ADC_HandleTypeDef *hadc)
 726:Drivers/STM32F4xx_HAL_Driver/Src/stm32f4xx_hal_adc_ex.c **** {
 1352              		.loc 1 726 1
 1353              		.cfi_startproc
 1354              		@ args = 0, pretend = 0, frame = 16
 1355              		@ frame_needed = 1, uses_anonymous_args = 0
 1356 0000 80B5     		push	{r7, lr}
 1357              		.cfi_def_cfa_offset 8
 1358              		.cfi_offset 7, -8
 1359              		.cfi_offset 14, -4
 1360 0002 84B0     		sub	sp, sp, #16
 1361              		.cfi_def_cfa_offset 24
 1362 0004 00AF     		add	r7, sp, #0
 1363              		.cfi_def_cfa_register 7
 1364 0006 7860     		str	r0, [r7, #4]
 727:Drivers/STM32F4xx_HAL_Driver/Src/stm32f4xx_hal_adc_ex.c ****   HAL_StatusTypeDef tmp_hal_status = HAL_OK;
 1365              		.loc 1 727 21
 1366 0008 0023     		movs	r3, #0
 1367 000a FB73     		strb	r3, [r7, #15]
 728:Drivers/STM32F4xx_HAL_Driver/Src/stm32f4xx_hal_adc_ex.c ****   ADC_Common_TypeDef *tmpADC_Common;
 729:Drivers/STM32F4xx_HAL_Driver/Src/stm32f4xx_hal_adc_ex.c **** 
 730:Drivers/STM32F4xx_HAL_Driver/Src/stm32f4xx_hal_adc_ex.c ****   /* Check the parameters */
 731:Drivers/STM32F4xx_HAL_Driver/Src/stm32f4xx_hal_adc_ex.c ****   assert_param(IS_ADC_ALL_INSTANCE(hadc->Instance));
 732:Drivers/STM32F4xx_HAL_Driver/Src/stm32f4xx_hal_adc_ex.c **** 
 733:Drivers/STM32F4xx_HAL_Driver/Src/stm32f4xx_hal_adc_ex.c ****   /* Process locked */
 734:Drivers/STM32F4xx_HAL_Driver/Src/stm32f4xx_hal_adc_ex.c ****   __HAL_LOCK(hadc);
 1368              		.loc 1 734 3
 1369 000c 7B68     		ldr	r3, [r7, #4]
 1370 000e 93F83C30 		ldrb	r3, [r3, #60]	@ zero_extendqisi2
 1371 0012 012B     		cmp	r3, #1
 1372 0014 01D1     		bne	.L72
 1373              		.loc 1 734 3 is_stmt 0 discriminator 1
 1374 0016 0223     		movs	r3, #2
 1375 0018 38E0     		b	.L73
 1376              	.L72:
ARM GAS  C:\Users\Halil\AppData\Local\Temp\ccl2Bawv.s 			page 38


 1377              		.loc 1 734 3 discriminator 2
 1378 001a 7B68     		ldr	r3, [r7, #4]
 1379 001c 0122     		movs	r2, #1
 1380 001e 83F83C20 		strb	r2, [r3, #60]
 735:Drivers/STM32F4xx_HAL_Driver/Src/stm32f4xx_hal_adc_ex.c **** 
 736:Drivers/STM32F4xx_HAL_Driver/Src/stm32f4xx_hal_adc_ex.c ****   /* Stop potential conversion on going, on regular and injected groups */
 737:Drivers/STM32F4xx_HAL_Driver/Src/stm32f4xx_hal_adc_ex.c ****   /* Disable ADC peripheral */
 738:Drivers/STM32F4xx_HAL_Driver/Src/stm32f4xx_hal_adc_ex.c ****   __HAL_ADC_DISABLE(hadc);
 1381              		.loc 1 738 3 is_stmt 1 discriminator 2
 1382 0022 7B68     		ldr	r3, [r7, #4]
 1383 0024 1B68     		ldr	r3, [r3]
 1384 0026 9A68     		ldr	r2, [r3, #8]
 1385 0028 7B68     		ldr	r3, [r7, #4]
 1386 002a 1B68     		ldr	r3, [r3]
 1387 002c 22F00102 		bic	r2, r2, #1
 1388 0030 9A60     		str	r2, [r3, #8]
 739:Drivers/STM32F4xx_HAL_Driver/Src/stm32f4xx_hal_adc_ex.c **** 
 740:Drivers/STM32F4xx_HAL_Driver/Src/stm32f4xx_hal_adc_ex.c ****   /* Pointer to the common control register to which is belonging hadc    */
 741:Drivers/STM32F4xx_HAL_Driver/Src/stm32f4xx_hal_adc_ex.c ****   /* (Depending on STM32F4 product, there may be up to 3 ADC and 1 common */
 742:Drivers/STM32F4xx_HAL_Driver/Src/stm32f4xx_hal_adc_ex.c ****   /* control register)                                                    */
 743:Drivers/STM32F4xx_HAL_Driver/Src/stm32f4xx_hal_adc_ex.c ****   tmpADC_Common = ADC_COMMON_REGISTER(hadc);
 1389              		.loc 1 743 17 discriminator 2
 1390 0032 184B     		ldr	r3, .L75
 1391 0034 BB60     		str	r3, [r7, #8]
 744:Drivers/STM32F4xx_HAL_Driver/Src/stm32f4xx_hal_adc_ex.c **** 
 745:Drivers/STM32F4xx_HAL_Driver/Src/stm32f4xx_hal_adc_ex.c ****   /* Check if ADC is effectively disabled */
 746:Drivers/STM32F4xx_HAL_Driver/Src/stm32f4xx_hal_adc_ex.c ****   if (HAL_IS_BIT_CLR(hadc->Instance->CR2, ADC_CR2_ADON))
 1392              		.loc 1 746 7 discriminator 2
 1393 0036 7B68     		ldr	r3, [r7, #4]
 1394 0038 1B68     		ldr	r3, [r3]
 1395 003a 9B68     		ldr	r3, [r3, #8]
 1396 003c 03F00103 		and	r3, r3, #1
 1397              		.loc 1 746 6 discriminator 2
 1398 0040 002B     		cmp	r3, #0
 1399 0042 1ED1     		bne	.L74
 747:Drivers/STM32F4xx_HAL_Driver/Src/stm32f4xx_hal_adc_ex.c ****   {
 748:Drivers/STM32F4xx_HAL_Driver/Src/stm32f4xx_hal_adc_ex.c ****     /* Disable the selected ADC DMA mode for multimode */
 749:Drivers/STM32F4xx_HAL_Driver/Src/stm32f4xx_hal_adc_ex.c ****     tmpADC_Common->CCR &= ~ADC_CCR_DDS;
 1400              		.loc 1 749 18
 1401 0044 BB68     		ldr	r3, [r7, #8]
 1402 0046 5B68     		ldr	r3, [r3, #4]
 1403              		.loc 1 749 24
 1404 0048 23F40052 		bic	r2, r3, #8192
 1405 004c BB68     		ldr	r3, [r7, #8]
 1406 004e 5A60     		str	r2, [r3, #4]
 750:Drivers/STM32F4xx_HAL_Driver/Src/stm32f4xx_hal_adc_ex.c **** 
 751:Drivers/STM32F4xx_HAL_Driver/Src/stm32f4xx_hal_adc_ex.c ****     /* Disable the DMA channel (in case of DMA in circular mode or stop while */
 752:Drivers/STM32F4xx_HAL_Driver/Src/stm32f4xx_hal_adc_ex.c ****     /* DMA transfer is on going)                                              */
 753:Drivers/STM32F4xx_HAL_Driver/Src/stm32f4xx_hal_adc_ex.c ****     tmp_hal_status = HAL_DMA_Abort(hadc->DMA_Handle);
 1407              		.loc 1 753 22
 1408 0050 7B68     		ldr	r3, [r7, #4]
 1409 0052 9B6B     		ldr	r3, [r3, #56]
 1410 0054 1846     		mov	r0, r3
 1411 0056 FFF7FEFF 		bl	HAL_DMA_Abort
 1412 005a 0346     		mov	r3, r0
 1413 005c FB73     		strb	r3, [r7, #15]
 754:Drivers/STM32F4xx_HAL_Driver/Src/stm32f4xx_hal_adc_ex.c **** 
ARM GAS  C:\Users\Halil\AppData\Local\Temp\ccl2Bawv.s 			page 39


 755:Drivers/STM32F4xx_HAL_Driver/Src/stm32f4xx_hal_adc_ex.c ****     /* Disable ADC overrun interrupt */
 756:Drivers/STM32F4xx_HAL_Driver/Src/stm32f4xx_hal_adc_ex.c ****     __HAL_ADC_DISABLE_IT(hadc, ADC_IT_OVR);
 1414              		.loc 1 756 5
 1415 005e 7B68     		ldr	r3, [r7, #4]
 1416 0060 1B68     		ldr	r3, [r3]
 1417 0062 5A68     		ldr	r2, [r3, #4]
 1418 0064 7B68     		ldr	r3, [r7, #4]
 1419 0066 1B68     		ldr	r3, [r3]
 1420 0068 22F08062 		bic	r2, r2, #67108864
 1421 006c 5A60     		str	r2, [r3, #4]
 757:Drivers/STM32F4xx_HAL_Driver/Src/stm32f4xx_hal_adc_ex.c **** 
 758:Drivers/STM32F4xx_HAL_Driver/Src/stm32f4xx_hal_adc_ex.c ****     /* Set ADC state */
 759:Drivers/STM32F4xx_HAL_Driver/Src/stm32f4xx_hal_adc_ex.c ****     ADC_STATE_CLR_SET(hadc->State,
 1422              		.loc 1 759 5
 1423 006e 7B68     		ldr	r3, [r7, #4]
 1424 0070 1B6C     		ldr	r3, [r3, #64]
 1425 0072 23F48853 		bic	r3, r3, #4352
 1426 0076 23F00103 		bic	r3, r3, #1
 1427 007a 43F00102 		orr	r2, r3, #1
 1428 007e 7B68     		ldr	r3, [r7, #4]
 1429 0080 1A64     		str	r2, [r3, #64]
 1430              	.L74:
 760:Drivers/STM32F4xx_HAL_Driver/Src/stm32f4xx_hal_adc_ex.c ****                       HAL_ADC_STATE_REG_BUSY | HAL_ADC_STATE_INJ_BUSY,
 761:Drivers/STM32F4xx_HAL_Driver/Src/stm32f4xx_hal_adc_ex.c ****                       HAL_ADC_STATE_READY);
 762:Drivers/STM32F4xx_HAL_Driver/Src/stm32f4xx_hal_adc_ex.c ****   }
 763:Drivers/STM32F4xx_HAL_Driver/Src/stm32f4xx_hal_adc_ex.c **** 
 764:Drivers/STM32F4xx_HAL_Driver/Src/stm32f4xx_hal_adc_ex.c ****   /* Process unlocked */
 765:Drivers/STM32F4xx_HAL_Driver/Src/stm32f4xx_hal_adc_ex.c ****   __HAL_UNLOCK(hadc);
 1431              		.loc 1 765 3
 1432 0082 7B68     		ldr	r3, [r7, #4]
 1433 0084 0022     		movs	r2, #0
 1434 0086 83F83C20 		strb	r2, [r3, #60]
 766:Drivers/STM32F4xx_HAL_Driver/Src/stm32f4xx_hal_adc_ex.c **** 
 767:Drivers/STM32F4xx_HAL_Driver/Src/stm32f4xx_hal_adc_ex.c ****   /* Return function status */
 768:Drivers/STM32F4xx_HAL_Driver/Src/stm32f4xx_hal_adc_ex.c ****   return tmp_hal_status;
 1435              		.loc 1 768 10
 1436 008a FB7B     		ldrb	r3, [r7, #15]	@ zero_extendqisi2
 1437              	.L73:
 769:Drivers/STM32F4xx_HAL_Driver/Src/stm32f4xx_hal_adc_ex.c **** }
 1438              		.loc 1 769 1
 1439 008c 1846     		mov	r0, r3
 1440 008e 1037     		adds	r7, r7, #16
 1441              		.cfi_def_cfa_offset 8
 1442 0090 BD46     		mov	sp, r7
 1443              		.cfi_def_cfa_register 13
 1444              		@ sp needed
 1445 0092 80BD     		pop	{r7, pc}
 1446              	.L76:
 1447              		.align	2
 1448              	.L75:
 1449 0094 00230140 		.word	1073816320
 1450              		.cfi_endproc
 1451              	.LFE246:
 1453              		.section	.text.HAL_ADCEx_MultiModeGetValue,"ax",%progbits
 1454              		.align	1
 1455              		.global	HAL_ADCEx_MultiModeGetValue
 1456              		.syntax unified
ARM GAS  C:\Users\Halil\AppData\Local\Temp\ccl2Bawv.s 			page 40


 1457              		.thumb
 1458              		.thumb_func
 1460              	HAL_ADCEx_MultiModeGetValue:
 1461              	.LFB247:
 770:Drivers/STM32F4xx_HAL_Driver/Src/stm32f4xx_hal_adc_ex.c **** 
 771:Drivers/STM32F4xx_HAL_Driver/Src/stm32f4xx_hal_adc_ex.c **** /**
 772:Drivers/STM32F4xx_HAL_Driver/Src/stm32f4xx_hal_adc_ex.c ****   * @brief  Returns the last ADC1, ADC2 and ADC3 regular conversions results
 773:Drivers/STM32F4xx_HAL_Driver/Src/stm32f4xx_hal_adc_ex.c ****   *         data in the selected multi mode.
 774:Drivers/STM32F4xx_HAL_Driver/Src/stm32f4xx_hal_adc_ex.c ****   * @param  hadc pointer to a ADC_HandleTypeDef structure that contains
 775:Drivers/STM32F4xx_HAL_Driver/Src/stm32f4xx_hal_adc_ex.c ****   *         the configuration information for the specified ADC.
 776:Drivers/STM32F4xx_HAL_Driver/Src/stm32f4xx_hal_adc_ex.c ****   * @retval The converted data value.
 777:Drivers/STM32F4xx_HAL_Driver/Src/stm32f4xx_hal_adc_ex.c ****   */
 778:Drivers/STM32F4xx_HAL_Driver/Src/stm32f4xx_hal_adc_ex.c **** uint32_t HAL_ADCEx_MultiModeGetValue(ADC_HandleTypeDef *hadc)
 779:Drivers/STM32F4xx_HAL_Driver/Src/stm32f4xx_hal_adc_ex.c **** {
 1462              		.loc 1 779 1
 1463              		.cfi_startproc
 1464              		@ args = 0, pretend = 0, frame = 16
 1465              		@ frame_needed = 1, uses_anonymous_args = 0
 1466              		@ link register save eliminated.
 1467 0000 80B4     		push	{r7}
 1468              		.cfi_def_cfa_offset 4
 1469              		.cfi_offset 7, -4
 1470 0002 85B0     		sub	sp, sp, #20
 1471              		.cfi_def_cfa_offset 24
 1472 0004 00AF     		add	r7, sp, #0
 1473              		.cfi_def_cfa_register 7
 1474 0006 7860     		str	r0, [r7, #4]
 780:Drivers/STM32F4xx_HAL_Driver/Src/stm32f4xx_hal_adc_ex.c ****   ADC_Common_TypeDef *tmpADC_Common;
 781:Drivers/STM32F4xx_HAL_Driver/Src/stm32f4xx_hal_adc_ex.c **** 
 782:Drivers/STM32F4xx_HAL_Driver/Src/stm32f4xx_hal_adc_ex.c ****   /* Prevent unused argument(s) compilation warning */
 783:Drivers/STM32F4xx_HAL_Driver/Src/stm32f4xx_hal_adc_ex.c ****   UNUSED(hadc);
 784:Drivers/STM32F4xx_HAL_Driver/Src/stm32f4xx_hal_adc_ex.c **** 
 785:Drivers/STM32F4xx_HAL_Driver/Src/stm32f4xx_hal_adc_ex.c ****   /* Pointer to the common control register to which is belonging hadc    */
 786:Drivers/STM32F4xx_HAL_Driver/Src/stm32f4xx_hal_adc_ex.c ****   /* (Depending on STM32F4 product, there may be up to 3 ADC and 1 common */
 787:Drivers/STM32F4xx_HAL_Driver/Src/stm32f4xx_hal_adc_ex.c ****   /* control register)                                                    */
 788:Drivers/STM32F4xx_HAL_Driver/Src/stm32f4xx_hal_adc_ex.c ****   tmpADC_Common = ADC_COMMON_REGISTER(hadc);
 1475              		.loc 1 788 17
 1476 0008 044B     		ldr	r3, .L79
 1477 000a FB60     		str	r3, [r7, #12]
 789:Drivers/STM32F4xx_HAL_Driver/Src/stm32f4xx_hal_adc_ex.c **** 
 790:Drivers/STM32F4xx_HAL_Driver/Src/stm32f4xx_hal_adc_ex.c ****   /* Return the multi mode conversion value */
 791:Drivers/STM32F4xx_HAL_Driver/Src/stm32f4xx_hal_adc_ex.c ****   return tmpADC_Common->CDR;
 1478              		.loc 1 791 23
 1479 000c FB68     		ldr	r3, [r7, #12]
 1480 000e 9B68     		ldr	r3, [r3, #8]
 792:Drivers/STM32F4xx_HAL_Driver/Src/stm32f4xx_hal_adc_ex.c **** }
 1481              		.loc 1 792 1
 1482 0010 1846     		mov	r0, r3
 1483 0012 1437     		adds	r7, r7, #20
 1484              		.cfi_def_cfa_offset 4
 1485 0014 BD46     		mov	sp, r7
 1486              		.cfi_def_cfa_register 13
 1487              		@ sp needed
 1488 0016 5DF8047B 		ldr	r7, [sp], #4
 1489              		.cfi_restore 7
 1490              		.cfi_def_cfa_offset 0
 1491 001a 7047     		bx	lr
ARM GAS  C:\Users\Halil\AppData\Local\Temp\ccl2Bawv.s 			page 41


 1492              	.L80:
 1493              		.align	2
 1494              	.L79:
 1495 001c 00230140 		.word	1073816320
 1496              		.cfi_endproc
 1497              	.LFE247:
 1499              		.section	.text.HAL_ADCEx_InjectedConvCpltCallback,"ax",%progbits
 1500              		.align	1
 1501              		.weak	HAL_ADCEx_InjectedConvCpltCallback
 1502              		.syntax unified
 1503              		.thumb
 1504              		.thumb_func
 1506              	HAL_ADCEx_InjectedConvCpltCallback:
 1507              	.LFB248:
 793:Drivers/STM32F4xx_HAL_Driver/Src/stm32f4xx_hal_adc_ex.c **** 
 794:Drivers/STM32F4xx_HAL_Driver/Src/stm32f4xx_hal_adc_ex.c **** /**
 795:Drivers/STM32F4xx_HAL_Driver/Src/stm32f4xx_hal_adc_ex.c ****   * @brief  Injected conversion complete callback in non blocking mode
 796:Drivers/STM32F4xx_HAL_Driver/Src/stm32f4xx_hal_adc_ex.c ****   * @param  hadc pointer to a ADC_HandleTypeDef structure that contains
 797:Drivers/STM32F4xx_HAL_Driver/Src/stm32f4xx_hal_adc_ex.c ****   *         the configuration information for the specified ADC.
 798:Drivers/STM32F4xx_HAL_Driver/Src/stm32f4xx_hal_adc_ex.c ****   * @retval None
 799:Drivers/STM32F4xx_HAL_Driver/Src/stm32f4xx_hal_adc_ex.c ****   */
 800:Drivers/STM32F4xx_HAL_Driver/Src/stm32f4xx_hal_adc_ex.c **** __weak void HAL_ADCEx_InjectedConvCpltCallback(ADC_HandleTypeDef *hadc)
 801:Drivers/STM32F4xx_HAL_Driver/Src/stm32f4xx_hal_adc_ex.c **** {
 1508              		.loc 1 801 1
 1509              		.cfi_startproc
 1510              		@ args = 0, pretend = 0, frame = 8
 1511              		@ frame_needed = 1, uses_anonymous_args = 0
 1512              		@ link register save eliminated.
 1513 0000 80B4     		push	{r7}
 1514              		.cfi_def_cfa_offset 4
 1515              		.cfi_offset 7, -4
 1516 0002 83B0     		sub	sp, sp, #12
 1517              		.cfi_def_cfa_offset 16
 1518 0004 00AF     		add	r7, sp, #0
 1519              		.cfi_def_cfa_register 7
 1520 0006 7860     		str	r0, [r7, #4]
 802:Drivers/STM32F4xx_HAL_Driver/Src/stm32f4xx_hal_adc_ex.c ****   /* Prevent unused argument(s) compilation warning */
 803:Drivers/STM32F4xx_HAL_Driver/Src/stm32f4xx_hal_adc_ex.c ****   UNUSED(hadc);
 804:Drivers/STM32F4xx_HAL_Driver/Src/stm32f4xx_hal_adc_ex.c ****   /* NOTE : This function Should not be modified, when the callback is needed,
 805:Drivers/STM32F4xx_HAL_Driver/Src/stm32f4xx_hal_adc_ex.c ****             the HAL_ADC_InjectedConvCpltCallback could be implemented in the user file
 806:Drivers/STM32F4xx_HAL_Driver/Src/stm32f4xx_hal_adc_ex.c ****    */
 807:Drivers/STM32F4xx_HAL_Driver/Src/stm32f4xx_hal_adc_ex.c **** }
 1521              		.loc 1 807 1
 1522 0008 00BF     		nop
 1523 000a 0C37     		adds	r7, r7, #12
 1524              		.cfi_def_cfa_offset 4
 1525 000c BD46     		mov	sp, r7
 1526              		.cfi_def_cfa_register 13
 1527              		@ sp needed
 1528 000e 5DF8047B 		ldr	r7, [sp], #4
 1529              		.cfi_restore 7
 1530              		.cfi_def_cfa_offset 0
 1531 0012 7047     		bx	lr
 1532              		.cfi_endproc
 1533              	.LFE248:
 1535              		.section	.text.HAL_ADCEx_InjectedConfigChannel,"ax",%progbits
 1536              		.align	1
ARM GAS  C:\Users\Halil\AppData\Local\Temp\ccl2Bawv.s 			page 42


 1537              		.global	HAL_ADCEx_InjectedConfigChannel
 1538              		.syntax unified
 1539              		.thumb
 1540              		.thumb_func
 1542              	HAL_ADCEx_InjectedConfigChannel:
 1543              	.LFB249:
 808:Drivers/STM32F4xx_HAL_Driver/Src/stm32f4xx_hal_adc_ex.c **** 
 809:Drivers/STM32F4xx_HAL_Driver/Src/stm32f4xx_hal_adc_ex.c **** /**
 810:Drivers/STM32F4xx_HAL_Driver/Src/stm32f4xx_hal_adc_ex.c ****   * @brief  Configures for the selected ADC injected channel its corresponding
 811:Drivers/STM32F4xx_HAL_Driver/Src/stm32f4xx_hal_adc_ex.c ****   *         rank in the sequencer and its sample time.
 812:Drivers/STM32F4xx_HAL_Driver/Src/stm32f4xx_hal_adc_ex.c ****   * @param  hadc pointer to a ADC_HandleTypeDef structure that contains
 813:Drivers/STM32F4xx_HAL_Driver/Src/stm32f4xx_hal_adc_ex.c ****   *         the configuration information for the specified ADC.
 814:Drivers/STM32F4xx_HAL_Driver/Src/stm32f4xx_hal_adc_ex.c ****   * @param  sConfigInjected ADC configuration structure for injected channel.
 815:Drivers/STM32F4xx_HAL_Driver/Src/stm32f4xx_hal_adc_ex.c ****   * @retval None
 816:Drivers/STM32F4xx_HAL_Driver/Src/stm32f4xx_hal_adc_ex.c ****   */
 817:Drivers/STM32F4xx_HAL_Driver/Src/stm32f4xx_hal_adc_ex.c **** HAL_StatusTypeDef HAL_ADCEx_InjectedConfigChannel(ADC_HandleTypeDef *hadc, ADC_InjectionConfTypeDef
 818:Drivers/STM32F4xx_HAL_Driver/Src/stm32f4xx_hal_adc_ex.c **** {
 1544              		.loc 1 818 1
 1545              		.cfi_startproc
 1546              		@ args = 0, pretend = 0, frame = 16
 1547              		@ frame_needed = 1, uses_anonymous_args = 0
 1548              		@ link register save eliminated.
 1549 0000 80B4     		push	{r7}
 1550              		.cfi_def_cfa_offset 4
 1551              		.cfi_offset 7, -4
 1552 0002 85B0     		sub	sp, sp, #20
 1553              		.cfi_def_cfa_offset 24
 1554 0004 00AF     		add	r7, sp, #0
 1555              		.cfi_def_cfa_register 7
 1556 0006 7860     		str	r0, [r7, #4]
 1557 0008 3960     		str	r1, [r7]
 819:Drivers/STM32F4xx_HAL_Driver/Src/stm32f4xx_hal_adc_ex.c **** 
 820:Drivers/STM32F4xx_HAL_Driver/Src/stm32f4xx_hal_adc_ex.c **** #ifdef USE_FULL_ASSERT
 821:Drivers/STM32F4xx_HAL_Driver/Src/stm32f4xx_hal_adc_ex.c ****   uint32_t tmp = 0U;
 822:Drivers/STM32F4xx_HAL_Driver/Src/stm32f4xx_hal_adc_ex.c **** 
 823:Drivers/STM32F4xx_HAL_Driver/Src/stm32f4xx_hal_adc_ex.c **** #endif /* USE_FULL_ASSERT  */
 824:Drivers/STM32F4xx_HAL_Driver/Src/stm32f4xx_hal_adc_ex.c **** 
 825:Drivers/STM32F4xx_HAL_Driver/Src/stm32f4xx_hal_adc_ex.c ****   ADC_Common_TypeDef *tmpADC_Common;
 826:Drivers/STM32F4xx_HAL_Driver/Src/stm32f4xx_hal_adc_ex.c **** 
 827:Drivers/STM32F4xx_HAL_Driver/Src/stm32f4xx_hal_adc_ex.c ****   /* Check the parameters */
 828:Drivers/STM32F4xx_HAL_Driver/Src/stm32f4xx_hal_adc_ex.c ****   assert_param(IS_ADC_CHANNEL(sConfigInjected->InjectedChannel));
 829:Drivers/STM32F4xx_HAL_Driver/Src/stm32f4xx_hal_adc_ex.c ****   assert_param(IS_ADC_INJECTED_RANK(sConfigInjected->InjectedRank));
 830:Drivers/STM32F4xx_HAL_Driver/Src/stm32f4xx_hal_adc_ex.c ****   assert_param(IS_ADC_SAMPLE_TIME(sConfigInjected->InjectedSamplingTime));
 831:Drivers/STM32F4xx_HAL_Driver/Src/stm32f4xx_hal_adc_ex.c ****   assert_param(IS_ADC_EXT_INJEC_TRIG(sConfigInjected->ExternalTrigInjecConv));
 832:Drivers/STM32F4xx_HAL_Driver/Src/stm32f4xx_hal_adc_ex.c ****   assert_param(IS_ADC_INJECTED_LENGTH(sConfigInjected->InjectedNbrOfConversion));
 833:Drivers/STM32F4xx_HAL_Driver/Src/stm32f4xx_hal_adc_ex.c ****   assert_param(IS_FUNCTIONAL_STATE(sConfigInjected->AutoInjectedConv));
 834:Drivers/STM32F4xx_HAL_Driver/Src/stm32f4xx_hal_adc_ex.c ****   assert_param(IS_FUNCTIONAL_STATE(sConfigInjected->InjectedDiscontinuousConvMode));
 835:Drivers/STM32F4xx_HAL_Driver/Src/stm32f4xx_hal_adc_ex.c **** 
 836:Drivers/STM32F4xx_HAL_Driver/Src/stm32f4xx_hal_adc_ex.c **** #ifdef USE_FULL_ASSERT
 837:Drivers/STM32F4xx_HAL_Driver/Src/stm32f4xx_hal_adc_ex.c ****   tmp = ADC_GET_RESOLUTION(hadc);
 838:Drivers/STM32F4xx_HAL_Driver/Src/stm32f4xx_hal_adc_ex.c ****   assert_param(IS_ADC_RANGE(tmp, sConfigInjected->InjectedOffset));
 839:Drivers/STM32F4xx_HAL_Driver/Src/stm32f4xx_hal_adc_ex.c **** #endif /* USE_FULL_ASSERT  */
 840:Drivers/STM32F4xx_HAL_Driver/Src/stm32f4xx_hal_adc_ex.c **** 
 841:Drivers/STM32F4xx_HAL_Driver/Src/stm32f4xx_hal_adc_ex.c ****   if (sConfigInjected->ExternalTrigInjecConv != ADC_INJECTED_SOFTWARE_START)
 842:Drivers/STM32F4xx_HAL_Driver/Src/stm32f4xx_hal_adc_ex.c ****   {
 843:Drivers/STM32F4xx_HAL_Driver/Src/stm32f4xx_hal_adc_ex.c ****     assert_param(IS_ADC_EXT_INJEC_TRIG_EDGE(sConfigInjected->ExternalTrigInjecConvEdge));
 844:Drivers/STM32F4xx_HAL_Driver/Src/stm32f4xx_hal_adc_ex.c ****   }
ARM GAS  C:\Users\Halil\AppData\Local\Temp\ccl2Bawv.s 			page 43


 845:Drivers/STM32F4xx_HAL_Driver/Src/stm32f4xx_hal_adc_ex.c **** 
 846:Drivers/STM32F4xx_HAL_Driver/Src/stm32f4xx_hal_adc_ex.c ****   /* Process locked */
 847:Drivers/STM32F4xx_HAL_Driver/Src/stm32f4xx_hal_adc_ex.c ****   __HAL_LOCK(hadc);
 1558              		.loc 1 847 3
 1559 000a 7B68     		ldr	r3, [r7, #4]
 1560 000c 93F83C30 		ldrb	r3, [r3, #60]	@ zero_extendqisi2
 1561 0010 012B     		cmp	r3, #1
 1562 0012 01D1     		bne	.L83
 1563              		.loc 1 847 3 is_stmt 0 discriminator 1
 1564 0014 0223     		movs	r3, #2
 1565 0016 7EE1     		b	.L84
 1566              	.L83:
 1567              		.loc 1 847 3 discriminator 2
 1568 0018 7B68     		ldr	r3, [r7, #4]
 1569 001a 0122     		movs	r2, #1
 1570 001c 83F83C20 		strb	r2, [r3, #60]
 848:Drivers/STM32F4xx_HAL_Driver/Src/stm32f4xx_hal_adc_ex.c **** 
 849:Drivers/STM32F4xx_HAL_Driver/Src/stm32f4xx_hal_adc_ex.c ****   /* if ADC_Channel_10 ... ADC_Channel_18 is selected */
 850:Drivers/STM32F4xx_HAL_Driver/Src/stm32f4xx_hal_adc_ex.c ****   if (sConfigInjected->InjectedChannel > ADC_CHANNEL_9)
 1571              		.loc 1 850 22 is_stmt 1 discriminator 2
 1572 0020 3B68     		ldr	r3, [r7]
 1573 0022 1B68     		ldr	r3, [r3]
 1574              		.loc 1 850 6 discriminator 2
 1575 0024 092B     		cmp	r3, #9
 1576 0026 25D9     		bls	.L85
 851:Drivers/STM32F4xx_HAL_Driver/Src/stm32f4xx_hal_adc_ex.c ****   {
 852:Drivers/STM32F4xx_HAL_Driver/Src/stm32f4xx_hal_adc_ex.c ****     /* Clear the old sample time */
 853:Drivers/STM32F4xx_HAL_Driver/Src/stm32f4xx_hal_adc_ex.c ****     hadc->Instance->SMPR1 &= ~ADC_SMPR1(ADC_SMPR1_SMP10, sConfigInjected->InjectedChannel);
 1577              		.loc 1 853 9
 1578 0028 7B68     		ldr	r3, [r7, #4]
 1579 002a 1B68     		ldr	r3, [r3]
 1580              		.loc 1 853 19
 1581 002c D968     		ldr	r1, [r3, #12]
 1582              		.loc 1 853 31
 1583 002e 3B68     		ldr	r3, [r7]
 1584 0030 1B68     		ldr	r3, [r3]
 1585 0032 9BB2     		uxth	r3, r3
 1586 0034 1A46     		mov	r2, r3
 1587 0036 1346     		mov	r3, r2
 1588 0038 5B00     		lsls	r3, r3, #1
 1589 003a 1344     		add	r3, r3, r2
 1590 003c 1E3B     		subs	r3, r3, #30
 1591 003e 0722     		movs	r2, #7
 1592 0040 02FA03F3 		lsl	r3, r2, r3
 1593              		.loc 1 853 30
 1594 0044 DA43     		mvns	r2, r3
 1595              		.loc 1 853 9
 1596 0046 7B68     		ldr	r3, [r7, #4]
 1597 0048 1B68     		ldr	r3, [r3]
 1598              		.loc 1 853 27
 1599 004a 0A40     		ands	r2, r2, r1
 1600 004c DA60     		str	r2, [r3, #12]
 854:Drivers/STM32F4xx_HAL_Driver/Src/stm32f4xx_hal_adc_ex.c **** 
 855:Drivers/STM32F4xx_HAL_Driver/Src/stm32f4xx_hal_adc_ex.c ****     /* Set the new sample time */
 856:Drivers/STM32F4xx_HAL_Driver/Src/stm32f4xx_hal_adc_ex.c ****     hadc->Instance->SMPR1 |= ADC_SMPR1(sConfigInjected->InjectedSamplingTime, sConfigInjected->Inje
 1601              		.loc 1 856 9
 1602 004e 7B68     		ldr	r3, [r7, #4]
ARM GAS  C:\Users\Halil\AppData\Local\Temp\ccl2Bawv.s 			page 44


 1603 0050 1B68     		ldr	r3, [r3]
 1604              		.loc 1 856 19
 1605 0052 D968     		ldr	r1, [r3, #12]
 1606              		.loc 1 856 30
 1607 0054 3B68     		ldr	r3, [r7]
 1608 0056 9A68     		ldr	r2, [r3, #8]
 1609 0058 3B68     		ldr	r3, [r7]
 1610 005a 1B68     		ldr	r3, [r3]
 1611 005c 9BB2     		uxth	r3, r3
 1612 005e 1846     		mov	r0, r3
 1613 0060 0346     		mov	r3, r0
 1614 0062 5B00     		lsls	r3, r3, #1
 1615 0064 0344     		add	r3, r3, r0
 1616 0066 1E3B     		subs	r3, r3, #30
 1617 0068 9A40     		lsls	r2, r2, r3
 1618              		.loc 1 856 9
 1619 006a 7B68     		ldr	r3, [r7, #4]
 1620 006c 1B68     		ldr	r3, [r3]
 1621              		.loc 1 856 27
 1622 006e 0A43     		orrs	r2, r2, r1
 1623 0070 DA60     		str	r2, [r3, #12]
 1624 0072 22E0     		b	.L86
 1625              	.L85:
 857:Drivers/STM32F4xx_HAL_Driver/Src/stm32f4xx_hal_adc_ex.c ****   }
 858:Drivers/STM32F4xx_HAL_Driver/Src/stm32f4xx_hal_adc_ex.c ****   else /* ADC_Channel include in ADC_Channel_[0..9] */
 859:Drivers/STM32F4xx_HAL_Driver/Src/stm32f4xx_hal_adc_ex.c ****   {
 860:Drivers/STM32F4xx_HAL_Driver/Src/stm32f4xx_hal_adc_ex.c ****     /* Clear the old sample time */
 861:Drivers/STM32F4xx_HAL_Driver/Src/stm32f4xx_hal_adc_ex.c ****     hadc->Instance->SMPR2 &= ~ADC_SMPR2(ADC_SMPR2_SMP0, sConfigInjected->InjectedChannel);
 1626              		.loc 1 861 9
 1627 0074 7B68     		ldr	r3, [r7, #4]
 1628 0076 1B68     		ldr	r3, [r3]
 1629              		.loc 1 861 19
 1630 0078 1969     		ldr	r1, [r3, #16]
 1631              		.loc 1 861 31
 1632 007a 3B68     		ldr	r3, [r7]
 1633 007c 1B68     		ldr	r3, [r3]
 1634 007e 9BB2     		uxth	r3, r3
 1635 0080 1A46     		mov	r2, r3
 1636 0082 1346     		mov	r3, r2
 1637 0084 5B00     		lsls	r3, r3, #1
 1638 0086 1344     		add	r3, r3, r2
 1639 0088 0722     		movs	r2, #7
 1640 008a 02FA03F3 		lsl	r3, r2, r3
 1641              		.loc 1 861 30
 1642 008e DA43     		mvns	r2, r3
 1643              		.loc 1 861 9
 1644 0090 7B68     		ldr	r3, [r7, #4]
 1645 0092 1B68     		ldr	r3, [r3]
 1646              		.loc 1 861 27
 1647 0094 0A40     		ands	r2, r2, r1
 1648 0096 1A61     		str	r2, [r3, #16]
 862:Drivers/STM32F4xx_HAL_Driver/Src/stm32f4xx_hal_adc_ex.c **** 
 863:Drivers/STM32F4xx_HAL_Driver/Src/stm32f4xx_hal_adc_ex.c ****     /* Set the new sample time */
 864:Drivers/STM32F4xx_HAL_Driver/Src/stm32f4xx_hal_adc_ex.c ****     hadc->Instance->SMPR2 |= ADC_SMPR2(sConfigInjected->InjectedSamplingTime, sConfigInjected->Inje
 1649              		.loc 1 864 9
 1650 0098 7B68     		ldr	r3, [r7, #4]
 1651 009a 1B68     		ldr	r3, [r3]
ARM GAS  C:\Users\Halil\AppData\Local\Temp\ccl2Bawv.s 			page 45


 1652              		.loc 1 864 19
 1653 009c 1969     		ldr	r1, [r3, #16]
 1654              		.loc 1 864 30
 1655 009e 3B68     		ldr	r3, [r7]
 1656 00a0 9A68     		ldr	r2, [r3, #8]
 1657 00a2 3B68     		ldr	r3, [r7]
 1658 00a4 1B68     		ldr	r3, [r3]
 1659 00a6 9BB2     		uxth	r3, r3
 1660 00a8 1846     		mov	r0, r3
 1661 00aa 0346     		mov	r3, r0
 1662 00ac 5B00     		lsls	r3, r3, #1
 1663 00ae 0344     		add	r3, r3, r0
 1664 00b0 9A40     		lsls	r2, r2, r3
 1665              		.loc 1 864 9
 1666 00b2 7B68     		ldr	r3, [r7, #4]
 1667 00b4 1B68     		ldr	r3, [r3]
 1668              		.loc 1 864 27
 1669 00b6 0A43     		orrs	r2, r2, r1
 1670 00b8 1A61     		str	r2, [r3, #16]
 1671              	.L86:
 865:Drivers/STM32F4xx_HAL_Driver/Src/stm32f4xx_hal_adc_ex.c ****   }
 866:Drivers/STM32F4xx_HAL_Driver/Src/stm32f4xx_hal_adc_ex.c **** 
 867:Drivers/STM32F4xx_HAL_Driver/Src/stm32f4xx_hal_adc_ex.c ****   /*---------------------------- ADCx JSQR Configuration -----------------*/
 868:Drivers/STM32F4xx_HAL_Driver/Src/stm32f4xx_hal_adc_ex.c ****   hadc->Instance->JSQR &= ~(ADC_JSQR_JL);
 1672              		.loc 1 868 7
 1673 00ba 7B68     		ldr	r3, [r7, #4]
 1674 00bc 1B68     		ldr	r3, [r3]
 1675              		.loc 1 868 17
 1676 00be 9A6B     		ldr	r2, [r3, #56]
 1677              		.loc 1 868 7
 1678 00c0 7B68     		ldr	r3, [r7, #4]
 1679 00c2 1B68     		ldr	r3, [r3]
 1680              		.loc 1 868 24
 1681 00c4 22F44012 		bic	r2, r2, #3145728
 1682 00c8 9A63     		str	r2, [r3, #56]
 869:Drivers/STM32F4xx_HAL_Driver/Src/stm32f4xx_hal_adc_ex.c ****   hadc->Instance->JSQR |=  ADC_SQR1(sConfigInjected->InjectedNbrOfConversion);
 1683              		.loc 1 869 7
 1684 00ca 7B68     		ldr	r3, [r7, #4]
 1685 00cc 1B68     		ldr	r3, [r3]
 1686              		.loc 1 869 17
 1687 00ce 996B     		ldr	r1, [r3, #56]
 1688              		.loc 1 869 28
 1689 00d0 3B68     		ldr	r3, [r7]
 1690 00d2 1B69     		ldr	r3, [r3, #16]
 1691 00d4 013B     		subs	r3, r3, #1
 1692 00d6 1A05     		lsls	r2, r3, #20
 1693              		.loc 1 869 7
 1694 00d8 7B68     		ldr	r3, [r7, #4]
 1695 00da 1B68     		ldr	r3, [r3]
 1696              		.loc 1 869 24
 1697 00dc 0A43     		orrs	r2, r2, r1
 1698 00de 9A63     		str	r2, [r3, #56]
 870:Drivers/STM32F4xx_HAL_Driver/Src/stm32f4xx_hal_adc_ex.c **** 
 871:Drivers/STM32F4xx_HAL_Driver/Src/stm32f4xx_hal_adc_ex.c ****   /* Rank configuration */
 872:Drivers/STM32F4xx_HAL_Driver/Src/stm32f4xx_hal_adc_ex.c **** 
 873:Drivers/STM32F4xx_HAL_Driver/Src/stm32f4xx_hal_adc_ex.c ****   /* Clear the old SQx bits for the selected rank */
 874:Drivers/STM32F4xx_HAL_Driver/Src/stm32f4xx_hal_adc_ex.c ****   hadc->Instance->JSQR &= ~ADC_JSQR(ADC_JSQR_JSQ1, sConfigInjected->InjectedRank, sConfigInjected->
ARM GAS  C:\Users\Halil\AppData\Local\Temp\ccl2Bawv.s 			page 46


 1699              		.loc 1 874 7
 1700 00e0 7B68     		ldr	r3, [r7, #4]
 1701 00e2 1B68     		ldr	r3, [r3]
 1702              		.loc 1 874 17
 1703 00e4 996B     		ldr	r1, [r3, #56]
 1704              		.loc 1 874 28
 1705 00e6 3B68     		ldr	r3, [r7]
 1706 00e8 5B68     		ldr	r3, [r3, #4]
 1707 00ea DAB2     		uxtb	r2, r3
 1708 00ec 3B68     		ldr	r3, [r7]
 1709 00ee 1B69     		ldr	r3, [r3, #16]
 1710 00f0 DBB2     		uxtb	r3, r3
 1711 00f2 D31A     		subs	r3, r2, r3
 1712 00f4 DBB2     		uxtb	r3, r3
 1713 00f6 0333     		adds	r3, r3, #3
 1714 00f8 DBB2     		uxtb	r3, r3
 1715 00fa 1A46     		mov	r2, r3
 1716 00fc 1346     		mov	r3, r2
 1717 00fe 9B00     		lsls	r3, r3, #2
 1718 0100 1344     		add	r3, r3, r2
 1719 0102 1F22     		movs	r2, #31
 1720 0104 02FA03F3 		lsl	r3, r2, r3
 1721              		.loc 1 874 27
 1722 0108 DA43     		mvns	r2, r3
 1723              		.loc 1 874 7
 1724 010a 7B68     		ldr	r3, [r7, #4]
 1725 010c 1B68     		ldr	r3, [r3]
 1726              		.loc 1 874 24
 1727 010e 0A40     		ands	r2, r2, r1
 1728 0110 9A63     		str	r2, [r3, #56]
 875:Drivers/STM32F4xx_HAL_Driver/Src/stm32f4xx_hal_adc_ex.c **** 
 876:Drivers/STM32F4xx_HAL_Driver/Src/stm32f4xx_hal_adc_ex.c ****   /* Set the SQx bits for the selected rank */
 877:Drivers/STM32F4xx_HAL_Driver/Src/stm32f4xx_hal_adc_ex.c ****   hadc->Instance->JSQR |= ADC_JSQR(sConfigInjected->InjectedChannel, sConfigInjected->InjectedRank,
 1729              		.loc 1 877 7
 1730 0112 7B68     		ldr	r3, [r7, #4]
 1731 0114 1B68     		ldr	r3, [r3]
 1732              		.loc 1 877 17
 1733 0116 996B     		ldr	r1, [r3, #56]
 1734              		.loc 1 877 27
 1735 0118 3B68     		ldr	r3, [r7]
 1736 011a 1B68     		ldr	r3, [r3]
 1737 011c 9BB2     		uxth	r3, r3
 1738 011e 1846     		mov	r0, r3
 1739 0120 3B68     		ldr	r3, [r7]
 1740 0122 5B68     		ldr	r3, [r3, #4]
 1741 0124 DAB2     		uxtb	r2, r3
 1742 0126 3B68     		ldr	r3, [r7]
 1743 0128 1B69     		ldr	r3, [r3, #16]
 1744 012a DBB2     		uxtb	r3, r3
 1745 012c D31A     		subs	r3, r2, r3
 1746 012e DBB2     		uxtb	r3, r3
 1747 0130 0333     		adds	r3, r3, #3
 1748 0132 DBB2     		uxtb	r3, r3
 1749 0134 1A46     		mov	r2, r3
 1750 0136 1346     		mov	r3, r2
 1751 0138 9B00     		lsls	r3, r3, #2
 1752 013a 1344     		add	r3, r3, r2
ARM GAS  C:\Users\Halil\AppData\Local\Temp\ccl2Bawv.s 			page 47


 1753 013c 00FA03F2 		lsl	r2, r0, r3
 1754              		.loc 1 877 7
 1755 0140 7B68     		ldr	r3, [r7, #4]
 1756 0142 1B68     		ldr	r3, [r3]
 1757              		.loc 1 877 24
 1758 0144 0A43     		orrs	r2, r2, r1
 1759 0146 9A63     		str	r2, [r3, #56]
 878:Drivers/STM32F4xx_HAL_Driver/Src/stm32f4xx_hal_adc_ex.c **** 
 879:Drivers/STM32F4xx_HAL_Driver/Src/stm32f4xx_hal_adc_ex.c ****   /* Enable external trigger if trigger selection is different of software  */
 880:Drivers/STM32F4xx_HAL_Driver/Src/stm32f4xx_hal_adc_ex.c ****   /* start.                                                                 */
 881:Drivers/STM32F4xx_HAL_Driver/Src/stm32f4xx_hal_adc_ex.c ****   /* Note: This configuration keeps the hardware feature of parameter       */
 882:Drivers/STM32F4xx_HAL_Driver/Src/stm32f4xx_hal_adc_ex.c ****   /*       ExternalTrigConvEdge "trigger edge none" equivalent to           */
 883:Drivers/STM32F4xx_HAL_Driver/Src/stm32f4xx_hal_adc_ex.c ****   /*       software start.                                                  */
 884:Drivers/STM32F4xx_HAL_Driver/Src/stm32f4xx_hal_adc_ex.c ****   if (sConfigInjected->ExternalTrigInjecConv != ADC_INJECTED_SOFTWARE_START)
 1760              		.loc 1 884 22
 1761 0148 3B68     		ldr	r3, [r7]
 1762 014a 9B69     		ldr	r3, [r3, #24]
 1763              		.loc 1 884 6
 1764 014c 754A     		ldr	r2, .L101
 1765 014e 9342     		cmp	r3, r2
 1766 0150 22D0     		beq	.L87
 885:Drivers/STM32F4xx_HAL_Driver/Src/stm32f4xx_hal_adc_ex.c ****   {
 886:Drivers/STM32F4xx_HAL_Driver/Src/stm32f4xx_hal_adc_ex.c ****     /* Select external trigger to start conversion */
 887:Drivers/STM32F4xx_HAL_Driver/Src/stm32f4xx_hal_adc_ex.c ****     hadc->Instance->CR2 &= ~(ADC_CR2_JEXTSEL);
 1767              		.loc 1 887 9
 1768 0152 7B68     		ldr	r3, [r7, #4]
 1769 0154 1B68     		ldr	r3, [r3]
 1770              		.loc 1 887 19
 1771 0156 9A68     		ldr	r2, [r3, #8]
 1772              		.loc 1 887 9
 1773 0158 7B68     		ldr	r3, [r7, #4]
 1774 015a 1B68     		ldr	r3, [r3]
 1775              		.loc 1 887 25
 1776 015c 22F47022 		bic	r2, r2, #983040
 1777 0160 9A60     		str	r2, [r3, #8]
 888:Drivers/STM32F4xx_HAL_Driver/Src/stm32f4xx_hal_adc_ex.c ****     hadc->Instance->CR2 |=  sConfigInjected->ExternalTrigInjecConv;
 1778              		.loc 1 888 9
 1779 0162 7B68     		ldr	r3, [r7, #4]
 1780 0164 1B68     		ldr	r3, [r3]
 1781              		.loc 1 888 19
 1782 0166 9968     		ldr	r1, [r3, #8]
 1783              		.loc 1 888 44
 1784 0168 3B68     		ldr	r3, [r7]
 1785 016a 9A69     		ldr	r2, [r3, #24]
 1786              		.loc 1 888 9
 1787 016c 7B68     		ldr	r3, [r7, #4]
 1788 016e 1B68     		ldr	r3, [r3]
 1789              		.loc 1 888 25
 1790 0170 0A43     		orrs	r2, r2, r1
 1791 0172 9A60     		str	r2, [r3, #8]
 889:Drivers/STM32F4xx_HAL_Driver/Src/stm32f4xx_hal_adc_ex.c **** 
 890:Drivers/STM32F4xx_HAL_Driver/Src/stm32f4xx_hal_adc_ex.c ****     /* Select external trigger polarity */
 891:Drivers/STM32F4xx_HAL_Driver/Src/stm32f4xx_hal_adc_ex.c ****     hadc->Instance->CR2 &= ~(ADC_CR2_JEXTEN);
 1792              		.loc 1 891 9
 1793 0174 7B68     		ldr	r3, [r7, #4]
 1794 0176 1B68     		ldr	r3, [r3]
 1795              		.loc 1 891 19
ARM GAS  C:\Users\Halil\AppData\Local\Temp\ccl2Bawv.s 			page 48


 1796 0178 9A68     		ldr	r2, [r3, #8]
 1797              		.loc 1 891 9
 1798 017a 7B68     		ldr	r3, [r7, #4]
 1799 017c 1B68     		ldr	r3, [r3]
 1800              		.loc 1 891 25
 1801 017e 22F44012 		bic	r2, r2, #3145728
 1802 0182 9A60     		str	r2, [r3, #8]
 892:Drivers/STM32F4xx_HAL_Driver/Src/stm32f4xx_hal_adc_ex.c ****     hadc->Instance->CR2 |= sConfigInjected->ExternalTrigInjecConvEdge;
 1803              		.loc 1 892 9
 1804 0184 7B68     		ldr	r3, [r7, #4]
 1805 0186 1B68     		ldr	r3, [r3]
 1806              		.loc 1 892 19
 1807 0188 9968     		ldr	r1, [r3, #8]
 1808              		.loc 1 892 43
 1809 018a 3B68     		ldr	r3, [r7]
 1810 018c DA69     		ldr	r2, [r3, #28]
 1811              		.loc 1 892 9
 1812 018e 7B68     		ldr	r3, [r7, #4]
 1813 0190 1B68     		ldr	r3, [r3]
 1814              		.loc 1 892 25
 1815 0192 0A43     		orrs	r2, r2, r1
 1816 0194 9A60     		str	r2, [r3, #8]
 1817 0196 0FE0     		b	.L88
 1818              	.L87:
 893:Drivers/STM32F4xx_HAL_Driver/Src/stm32f4xx_hal_adc_ex.c ****   }
 894:Drivers/STM32F4xx_HAL_Driver/Src/stm32f4xx_hal_adc_ex.c ****   else
 895:Drivers/STM32F4xx_HAL_Driver/Src/stm32f4xx_hal_adc_ex.c ****   {
 896:Drivers/STM32F4xx_HAL_Driver/Src/stm32f4xx_hal_adc_ex.c ****     /* Reset the external trigger */
 897:Drivers/STM32F4xx_HAL_Driver/Src/stm32f4xx_hal_adc_ex.c ****     hadc->Instance->CR2 &= ~(ADC_CR2_JEXTSEL);
 1819              		.loc 1 897 9
 1820 0198 7B68     		ldr	r3, [r7, #4]
 1821 019a 1B68     		ldr	r3, [r3]
 1822              		.loc 1 897 19
 1823 019c 9A68     		ldr	r2, [r3, #8]
 1824              		.loc 1 897 9
 1825 019e 7B68     		ldr	r3, [r7, #4]
 1826 01a0 1B68     		ldr	r3, [r3]
 1827              		.loc 1 897 25
 1828 01a2 22F47022 		bic	r2, r2, #983040
 1829 01a6 9A60     		str	r2, [r3, #8]
 898:Drivers/STM32F4xx_HAL_Driver/Src/stm32f4xx_hal_adc_ex.c ****     hadc->Instance->CR2 &= ~(ADC_CR2_JEXTEN);
 1830              		.loc 1 898 9
 1831 01a8 7B68     		ldr	r3, [r7, #4]
 1832 01aa 1B68     		ldr	r3, [r3]
 1833              		.loc 1 898 19
 1834 01ac 9A68     		ldr	r2, [r3, #8]
 1835              		.loc 1 898 9
 1836 01ae 7B68     		ldr	r3, [r7, #4]
 1837 01b0 1B68     		ldr	r3, [r3]
 1838              		.loc 1 898 25
 1839 01b2 22F44012 		bic	r2, r2, #3145728
 1840 01b6 9A60     		str	r2, [r3, #8]
 1841              	.L88:
 899:Drivers/STM32F4xx_HAL_Driver/Src/stm32f4xx_hal_adc_ex.c ****   }
 900:Drivers/STM32F4xx_HAL_Driver/Src/stm32f4xx_hal_adc_ex.c **** 
 901:Drivers/STM32F4xx_HAL_Driver/Src/stm32f4xx_hal_adc_ex.c ****   if (sConfigInjected->AutoInjectedConv != DISABLE)
 1842              		.loc 1 901 22
ARM GAS  C:\Users\Halil\AppData\Local\Temp\ccl2Bawv.s 			page 49


 1843 01b8 3B68     		ldr	r3, [r7]
 1844 01ba 5B7D     		ldrb	r3, [r3, #21]	@ zero_extendqisi2
 1845              		.loc 1 901 6
 1846 01bc 002B     		cmp	r3, #0
 1847 01be 08D0     		beq	.L89
 902:Drivers/STM32F4xx_HAL_Driver/Src/stm32f4xx_hal_adc_ex.c ****   {
 903:Drivers/STM32F4xx_HAL_Driver/Src/stm32f4xx_hal_adc_ex.c ****     /* Enable the selected ADC automatic injected group conversion */
 904:Drivers/STM32F4xx_HAL_Driver/Src/stm32f4xx_hal_adc_ex.c ****     hadc->Instance->CR1 |= ADC_CR1_JAUTO;
 1848              		.loc 1 904 9
 1849 01c0 7B68     		ldr	r3, [r7, #4]
 1850 01c2 1B68     		ldr	r3, [r3]
 1851              		.loc 1 904 19
 1852 01c4 5A68     		ldr	r2, [r3, #4]
 1853              		.loc 1 904 9
 1854 01c6 7B68     		ldr	r3, [r7, #4]
 1855 01c8 1B68     		ldr	r3, [r3]
 1856              		.loc 1 904 25
 1857 01ca 42F48062 		orr	r2, r2, #1024
 1858 01ce 5A60     		str	r2, [r3, #4]
 1859 01d0 07E0     		b	.L90
 1860              	.L89:
 905:Drivers/STM32F4xx_HAL_Driver/Src/stm32f4xx_hal_adc_ex.c ****   }
 906:Drivers/STM32F4xx_HAL_Driver/Src/stm32f4xx_hal_adc_ex.c ****   else
 907:Drivers/STM32F4xx_HAL_Driver/Src/stm32f4xx_hal_adc_ex.c ****   {
 908:Drivers/STM32F4xx_HAL_Driver/Src/stm32f4xx_hal_adc_ex.c ****     /* Disable the selected ADC automatic injected group conversion */
 909:Drivers/STM32F4xx_HAL_Driver/Src/stm32f4xx_hal_adc_ex.c ****     hadc->Instance->CR1 &= ~(ADC_CR1_JAUTO);
 1861              		.loc 1 909 9
 1862 01d2 7B68     		ldr	r3, [r7, #4]
 1863 01d4 1B68     		ldr	r3, [r3]
 1864              		.loc 1 909 19
 1865 01d6 5A68     		ldr	r2, [r3, #4]
 1866              		.loc 1 909 9
 1867 01d8 7B68     		ldr	r3, [r7, #4]
 1868 01da 1B68     		ldr	r3, [r3]
 1869              		.loc 1 909 25
 1870 01dc 22F48062 		bic	r2, r2, #1024
 1871 01e0 5A60     		str	r2, [r3, #4]
 1872              	.L90:
 910:Drivers/STM32F4xx_HAL_Driver/Src/stm32f4xx_hal_adc_ex.c ****   }
 911:Drivers/STM32F4xx_HAL_Driver/Src/stm32f4xx_hal_adc_ex.c **** 
 912:Drivers/STM32F4xx_HAL_Driver/Src/stm32f4xx_hal_adc_ex.c ****   if (sConfigInjected->InjectedDiscontinuousConvMode != DISABLE)
 1873              		.loc 1 912 22
 1874 01e2 3B68     		ldr	r3, [r7]
 1875 01e4 1B7D     		ldrb	r3, [r3, #20]	@ zero_extendqisi2
 1876              		.loc 1 912 6
 1877 01e6 002B     		cmp	r3, #0
 1878 01e8 08D0     		beq	.L91
 913:Drivers/STM32F4xx_HAL_Driver/Src/stm32f4xx_hal_adc_ex.c ****   {
 914:Drivers/STM32F4xx_HAL_Driver/Src/stm32f4xx_hal_adc_ex.c ****     /* Enable the selected ADC injected discontinuous mode */
 915:Drivers/STM32F4xx_HAL_Driver/Src/stm32f4xx_hal_adc_ex.c ****     hadc->Instance->CR1 |= ADC_CR1_JDISCEN;
 1879              		.loc 1 915 9
 1880 01ea 7B68     		ldr	r3, [r7, #4]
 1881 01ec 1B68     		ldr	r3, [r3]
 1882              		.loc 1 915 19
 1883 01ee 5A68     		ldr	r2, [r3, #4]
 1884              		.loc 1 915 9
 1885 01f0 7B68     		ldr	r3, [r7, #4]
ARM GAS  C:\Users\Halil\AppData\Local\Temp\ccl2Bawv.s 			page 50


 1886 01f2 1B68     		ldr	r3, [r3]
 1887              		.loc 1 915 25
 1888 01f4 42F48052 		orr	r2, r2, #4096
 1889 01f8 5A60     		str	r2, [r3, #4]
 1890 01fa 07E0     		b	.L92
 1891              	.L91:
 916:Drivers/STM32F4xx_HAL_Driver/Src/stm32f4xx_hal_adc_ex.c ****   }
 917:Drivers/STM32F4xx_HAL_Driver/Src/stm32f4xx_hal_adc_ex.c ****   else
 918:Drivers/STM32F4xx_HAL_Driver/Src/stm32f4xx_hal_adc_ex.c ****   {
 919:Drivers/STM32F4xx_HAL_Driver/Src/stm32f4xx_hal_adc_ex.c ****     /* Disable the selected ADC injected discontinuous mode */
 920:Drivers/STM32F4xx_HAL_Driver/Src/stm32f4xx_hal_adc_ex.c ****     hadc->Instance->CR1 &= ~(ADC_CR1_JDISCEN);
 1892              		.loc 1 920 9
 1893 01fc 7B68     		ldr	r3, [r7, #4]
 1894 01fe 1B68     		ldr	r3, [r3]
 1895              		.loc 1 920 19
 1896 0200 5A68     		ldr	r2, [r3, #4]
 1897              		.loc 1 920 9
 1898 0202 7B68     		ldr	r3, [r7, #4]
 1899 0204 1B68     		ldr	r3, [r3]
 1900              		.loc 1 920 25
 1901 0206 22F48052 		bic	r2, r2, #4096
 1902 020a 5A60     		str	r2, [r3, #4]
 1903              	.L92:
 921:Drivers/STM32F4xx_HAL_Driver/Src/stm32f4xx_hal_adc_ex.c ****   }
 922:Drivers/STM32F4xx_HAL_Driver/Src/stm32f4xx_hal_adc_ex.c **** 
 923:Drivers/STM32F4xx_HAL_Driver/Src/stm32f4xx_hal_adc_ex.c ****   switch (sConfigInjected->InjectedRank)
 1904              		.loc 1 923 26
 1905 020c 3B68     		ldr	r3, [r7]
 1906 020e 5B68     		ldr	r3, [r3, #4]
 1907              		.loc 1 923 3
 1908 0210 032B     		cmp	r3, #3
 1909 0212 2ED0     		beq	.L93
 1910 0214 032B     		cmp	r3, #3
 1911 0216 40D8     		bhi	.L94
 1912 0218 012B     		cmp	r3, #1
 1913 021a 02D0     		beq	.L95
 1914 021c 022B     		cmp	r3, #2
 1915 021e 14D0     		beq	.L96
 1916 0220 3BE0     		b	.L94
 1917              	.L95:
 924:Drivers/STM32F4xx_HAL_Driver/Src/stm32f4xx_hal_adc_ex.c ****   {
 925:Drivers/STM32F4xx_HAL_Driver/Src/stm32f4xx_hal_adc_ex.c ****     case 1U:
 926:Drivers/STM32F4xx_HAL_Driver/Src/stm32f4xx_hal_adc_ex.c ****       /* Set injected channel 1 offset */
 927:Drivers/STM32F4xx_HAL_Driver/Src/stm32f4xx_hal_adc_ex.c ****       hadc->Instance->JOFR1 &= ~(ADC_JOFR1_JOFFSET1);
 1918              		.loc 1 927 11
 1919 0222 7B68     		ldr	r3, [r7, #4]
 1920 0224 1B68     		ldr	r3, [r3]
 1921              		.loc 1 927 21
 1922 0226 5B69     		ldr	r3, [r3, #20]
 1923              		.loc 1 927 11
 1924 0228 7A68     		ldr	r2, [r7, #4]
 1925 022a 1268     		ldr	r2, [r2]
 1926              		.loc 1 927 29
 1927 022c 23F47F63 		bic	r3, r3, #4080
 1928 0230 23F00F03 		bic	r3, r3, #15
 1929 0234 5361     		str	r3, [r2, #20]
 928:Drivers/STM32F4xx_HAL_Driver/Src/stm32f4xx_hal_adc_ex.c ****       hadc->Instance->JOFR1 |= sConfigInjected->InjectedOffset;
ARM GAS  C:\Users\Halil\AppData\Local\Temp\ccl2Bawv.s 			page 51


 1930              		.loc 1 928 11
 1931 0236 7B68     		ldr	r3, [r7, #4]
 1932 0238 1B68     		ldr	r3, [r3]
 1933              		.loc 1 928 21
 1934 023a 5969     		ldr	r1, [r3, #20]
 1935              		.loc 1 928 47
 1936 023c 3B68     		ldr	r3, [r7]
 1937 023e DA68     		ldr	r2, [r3, #12]
 1938              		.loc 1 928 11
 1939 0240 7B68     		ldr	r3, [r7, #4]
 1940 0242 1B68     		ldr	r3, [r3]
 1941              		.loc 1 928 29
 1942 0244 0A43     		orrs	r2, r2, r1
 1943 0246 5A61     		str	r2, [r3, #20]
 929:Drivers/STM32F4xx_HAL_Driver/Src/stm32f4xx_hal_adc_ex.c ****       break;
 1944              		.loc 1 929 7
 1945 0248 3BE0     		b	.L97
 1946              	.L96:
 930:Drivers/STM32F4xx_HAL_Driver/Src/stm32f4xx_hal_adc_ex.c ****     case 2U:
 931:Drivers/STM32F4xx_HAL_Driver/Src/stm32f4xx_hal_adc_ex.c ****       /* Set injected channel 2 offset */
 932:Drivers/STM32F4xx_HAL_Driver/Src/stm32f4xx_hal_adc_ex.c ****       hadc->Instance->JOFR2 &= ~(ADC_JOFR2_JOFFSET2);
 1947              		.loc 1 932 11
 1948 024a 7B68     		ldr	r3, [r7, #4]
 1949 024c 1B68     		ldr	r3, [r3]
 1950              		.loc 1 932 21
 1951 024e 9B69     		ldr	r3, [r3, #24]
 1952              		.loc 1 932 11
 1953 0250 7A68     		ldr	r2, [r7, #4]
 1954 0252 1268     		ldr	r2, [r2]
 1955              		.loc 1 932 29
 1956 0254 23F47F63 		bic	r3, r3, #4080
 1957 0258 23F00F03 		bic	r3, r3, #15
 1958 025c 9361     		str	r3, [r2, #24]
 933:Drivers/STM32F4xx_HAL_Driver/Src/stm32f4xx_hal_adc_ex.c ****       hadc->Instance->JOFR2 |= sConfigInjected->InjectedOffset;
 1959              		.loc 1 933 11
 1960 025e 7B68     		ldr	r3, [r7, #4]
 1961 0260 1B68     		ldr	r3, [r3]
 1962              		.loc 1 933 21
 1963 0262 9969     		ldr	r1, [r3, #24]
 1964              		.loc 1 933 47
 1965 0264 3B68     		ldr	r3, [r7]
 1966 0266 DA68     		ldr	r2, [r3, #12]
 1967              		.loc 1 933 11
 1968 0268 7B68     		ldr	r3, [r7, #4]
 1969 026a 1B68     		ldr	r3, [r3]
 1970              		.loc 1 933 29
 1971 026c 0A43     		orrs	r2, r2, r1
 1972 026e 9A61     		str	r2, [r3, #24]
 934:Drivers/STM32F4xx_HAL_Driver/Src/stm32f4xx_hal_adc_ex.c ****       break;
 1973              		.loc 1 934 7
 1974 0270 27E0     		b	.L97
 1975              	.L93:
 935:Drivers/STM32F4xx_HAL_Driver/Src/stm32f4xx_hal_adc_ex.c ****     case 3U:
 936:Drivers/STM32F4xx_HAL_Driver/Src/stm32f4xx_hal_adc_ex.c ****       /* Set injected channel 3 offset */
 937:Drivers/STM32F4xx_HAL_Driver/Src/stm32f4xx_hal_adc_ex.c ****       hadc->Instance->JOFR3 &= ~(ADC_JOFR3_JOFFSET3);
 1976              		.loc 1 937 11
 1977 0272 7B68     		ldr	r3, [r7, #4]
ARM GAS  C:\Users\Halil\AppData\Local\Temp\ccl2Bawv.s 			page 52


 1978 0274 1B68     		ldr	r3, [r3]
 1979              		.loc 1 937 21
 1980 0276 DB69     		ldr	r3, [r3, #28]
 1981              		.loc 1 937 11
 1982 0278 7A68     		ldr	r2, [r7, #4]
 1983 027a 1268     		ldr	r2, [r2]
 1984              		.loc 1 937 29
 1985 027c 23F47F63 		bic	r3, r3, #4080
 1986 0280 23F00F03 		bic	r3, r3, #15
 1987 0284 D361     		str	r3, [r2, #28]
 938:Drivers/STM32F4xx_HAL_Driver/Src/stm32f4xx_hal_adc_ex.c ****       hadc->Instance->JOFR3 |= sConfigInjected->InjectedOffset;
 1988              		.loc 1 938 11
 1989 0286 7B68     		ldr	r3, [r7, #4]
 1990 0288 1B68     		ldr	r3, [r3]
 1991              		.loc 1 938 21
 1992 028a D969     		ldr	r1, [r3, #28]
 1993              		.loc 1 938 47
 1994 028c 3B68     		ldr	r3, [r7]
 1995 028e DA68     		ldr	r2, [r3, #12]
 1996              		.loc 1 938 11
 1997 0290 7B68     		ldr	r3, [r7, #4]
 1998 0292 1B68     		ldr	r3, [r3]
 1999              		.loc 1 938 29
 2000 0294 0A43     		orrs	r2, r2, r1
 2001 0296 DA61     		str	r2, [r3, #28]
 939:Drivers/STM32F4xx_HAL_Driver/Src/stm32f4xx_hal_adc_ex.c ****       break;
 2002              		.loc 1 939 7
 2003 0298 13E0     		b	.L97
 2004              	.L94:
 940:Drivers/STM32F4xx_HAL_Driver/Src/stm32f4xx_hal_adc_ex.c ****     default:
 941:Drivers/STM32F4xx_HAL_Driver/Src/stm32f4xx_hal_adc_ex.c ****       /* Set injected channel 4 offset */
 942:Drivers/STM32F4xx_HAL_Driver/Src/stm32f4xx_hal_adc_ex.c ****       hadc->Instance->JOFR4 &= ~(ADC_JOFR4_JOFFSET4);
 2005              		.loc 1 942 11
 2006 029a 7B68     		ldr	r3, [r7, #4]
 2007 029c 1B68     		ldr	r3, [r3]
 2008              		.loc 1 942 21
 2009 029e 1B6A     		ldr	r3, [r3, #32]
 2010              		.loc 1 942 11
 2011 02a0 7A68     		ldr	r2, [r7, #4]
 2012 02a2 1268     		ldr	r2, [r2]
 2013              		.loc 1 942 29
 2014 02a4 23F47F63 		bic	r3, r3, #4080
 2015 02a8 23F00F03 		bic	r3, r3, #15
 2016 02ac 1362     		str	r3, [r2, #32]
 943:Drivers/STM32F4xx_HAL_Driver/Src/stm32f4xx_hal_adc_ex.c ****       hadc->Instance->JOFR4 |= sConfigInjected->InjectedOffset;
 2017              		.loc 1 943 11
 2018 02ae 7B68     		ldr	r3, [r7, #4]
 2019 02b0 1B68     		ldr	r3, [r3]
 2020              		.loc 1 943 21
 2021 02b2 196A     		ldr	r1, [r3, #32]
 2022              		.loc 1 943 47
 2023 02b4 3B68     		ldr	r3, [r7]
 2024 02b6 DA68     		ldr	r2, [r3, #12]
 2025              		.loc 1 943 11
 2026 02b8 7B68     		ldr	r3, [r7, #4]
 2027 02ba 1B68     		ldr	r3, [r3]
 2028              		.loc 1 943 29
ARM GAS  C:\Users\Halil\AppData\Local\Temp\ccl2Bawv.s 			page 53


 2029 02bc 0A43     		orrs	r2, r2, r1
 2030 02be 1A62     		str	r2, [r3, #32]
 944:Drivers/STM32F4xx_HAL_Driver/Src/stm32f4xx_hal_adc_ex.c ****       break;
 2031              		.loc 1 944 7
 2032 02c0 00BF     		nop
 2033              	.L97:
 945:Drivers/STM32F4xx_HAL_Driver/Src/stm32f4xx_hal_adc_ex.c ****   }
 946:Drivers/STM32F4xx_HAL_Driver/Src/stm32f4xx_hal_adc_ex.c **** 
 947:Drivers/STM32F4xx_HAL_Driver/Src/stm32f4xx_hal_adc_ex.c ****   /* Pointer to the common control register to which is belonging hadc    */
 948:Drivers/STM32F4xx_HAL_Driver/Src/stm32f4xx_hal_adc_ex.c ****   /* (Depending on STM32F4 product, there may be up to 3 ADC and 1 common */
 949:Drivers/STM32F4xx_HAL_Driver/Src/stm32f4xx_hal_adc_ex.c ****   /* control register)                                                    */
 950:Drivers/STM32F4xx_HAL_Driver/Src/stm32f4xx_hal_adc_ex.c ****   tmpADC_Common = ADC_COMMON_REGISTER(hadc);
 2034              		.loc 1 950 17
 2035 02c2 194B     		ldr	r3, .L101+4
 2036 02c4 FB60     		str	r3, [r7, #12]
 951:Drivers/STM32F4xx_HAL_Driver/Src/stm32f4xx_hal_adc_ex.c **** 
 952:Drivers/STM32F4xx_HAL_Driver/Src/stm32f4xx_hal_adc_ex.c ****   /* if ADC1 Channel_18 is selected enable VBAT Channel */
 953:Drivers/STM32F4xx_HAL_Driver/Src/stm32f4xx_hal_adc_ex.c ****   if ((hadc->Instance == ADC1) && (sConfigInjected->InjectedChannel == ADC_CHANNEL_VBAT))
 2037              		.loc 1 953 12
 2038 02c6 7B68     		ldr	r3, [r7, #4]
 2039 02c8 1B68     		ldr	r3, [r3]
 2040              		.loc 1 953 6
 2041 02ca 184A     		ldr	r2, .L101+8
 2042 02cc 9342     		cmp	r3, r2
 2043 02ce 09D1     		bne	.L98
 2044              		.loc 1 953 51 discriminator 1
 2045 02d0 3B68     		ldr	r3, [r7]
 2046 02d2 1B68     		ldr	r3, [r3]
 2047              		.loc 1 953 32 discriminator 1
 2048 02d4 122B     		cmp	r3, #18
 2049 02d6 05D1     		bne	.L98
 954:Drivers/STM32F4xx_HAL_Driver/Src/stm32f4xx_hal_adc_ex.c ****   {
 955:Drivers/STM32F4xx_HAL_Driver/Src/stm32f4xx_hal_adc_ex.c ****     /* Enable the VBAT channel*/
 956:Drivers/STM32F4xx_HAL_Driver/Src/stm32f4xx_hal_adc_ex.c ****     tmpADC_Common->CCR |= ADC_CCR_VBATE;
 2050              		.loc 1 956 18
 2051 02d8 FB68     		ldr	r3, [r7, #12]
 2052 02da 5B68     		ldr	r3, [r3, #4]
 2053              		.loc 1 956 24
 2054 02dc 43F48002 		orr	r2, r3, #4194304
 2055 02e0 FB68     		ldr	r3, [r7, #12]
 2056 02e2 5A60     		str	r2, [r3, #4]
 2057              	.L98:
 957:Drivers/STM32F4xx_HAL_Driver/Src/stm32f4xx_hal_adc_ex.c ****   }
 958:Drivers/STM32F4xx_HAL_Driver/Src/stm32f4xx_hal_adc_ex.c **** 
 959:Drivers/STM32F4xx_HAL_Driver/Src/stm32f4xx_hal_adc_ex.c ****   /* if ADC1 Channel_16 or Channel_17 is selected enable TSVREFE Channel(Temperature sensor and VRE
 960:Drivers/STM32F4xx_HAL_Driver/Src/stm32f4xx_hal_adc_ex.c ****   if ((hadc->Instance == ADC1) && ((sConfigInjected->InjectedChannel == ADC_CHANNEL_TEMPSENSOR) || 
 2058              		.loc 1 960 12
 2059 02e4 7B68     		ldr	r3, [r7, #4]
 2060 02e6 1B68     		ldr	r3, [r3]
 2061              		.loc 1 960 6
 2062 02e8 104A     		ldr	r2, .L101+8
 2063 02ea 9342     		cmp	r3, r2
 2064 02ec 0ED1     		bne	.L99
 2065              		.loc 1 960 52 discriminator 1
 2066 02ee 3B68     		ldr	r3, [r7]
 2067 02f0 1B68     		ldr	r3, [r3]
 2068              		.loc 1 960 32 discriminator 1
ARM GAS  C:\Users\Halil\AppData\Local\Temp\ccl2Bawv.s 			page 54


 2069 02f2 0F4A     		ldr	r2, .L101+12
 2070 02f4 9342     		cmp	r3, r2
 2071 02f6 03D0     		beq	.L100
 2072              		.loc 1 960 116 discriminator 2
 2073 02f8 3B68     		ldr	r3, [r7]
 2074 02fa 1B68     		ldr	r3, [r3]
 2075              		.loc 1 960 97 discriminator 2
 2076 02fc 112B     		cmp	r3, #17
 2077 02fe 05D1     		bne	.L99
 2078              	.L100:
 961:Drivers/STM32F4xx_HAL_Driver/Src/stm32f4xx_hal_adc_ex.c ****   {
 962:Drivers/STM32F4xx_HAL_Driver/Src/stm32f4xx_hal_adc_ex.c ****     /* Enable the TSVREFE channel*/
 963:Drivers/STM32F4xx_HAL_Driver/Src/stm32f4xx_hal_adc_ex.c ****     tmpADC_Common->CCR |= ADC_CCR_TSVREFE;
 2079              		.loc 1 963 18
 2080 0300 FB68     		ldr	r3, [r7, #12]
 2081 0302 5B68     		ldr	r3, [r3, #4]
 2082              		.loc 1 963 24
 2083 0304 43F40002 		orr	r2, r3, #8388608
 2084 0308 FB68     		ldr	r3, [r7, #12]
 2085 030a 5A60     		str	r2, [r3, #4]
 2086              	.L99:
 964:Drivers/STM32F4xx_HAL_Driver/Src/stm32f4xx_hal_adc_ex.c ****   }
 965:Drivers/STM32F4xx_HAL_Driver/Src/stm32f4xx_hal_adc_ex.c **** 
 966:Drivers/STM32F4xx_HAL_Driver/Src/stm32f4xx_hal_adc_ex.c ****   /* Process unlocked */
 967:Drivers/STM32F4xx_HAL_Driver/Src/stm32f4xx_hal_adc_ex.c ****   __HAL_UNLOCK(hadc);
 2087              		.loc 1 967 3
 2088 030c 7B68     		ldr	r3, [r7, #4]
 2089 030e 0022     		movs	r2, #0
 2090 0310 83F83C20 		strb	r2, [r3, #60]
 968:Drivers/STM32F4xx_HAL_Driver/Src/stm32f4xx_hal_adc_ex.c **** 
 969:Drivers/STM32F4xx_HAL_Driver/Src/stm32f4xx_hal_adc_ex.c ****   /* Return function status */
 970:Drivers/STM32F4xx_HAL_Driver/Src/stm32f4xx_hal_adc_ex.c ****   return HAL_OK;
 2091              		.loc 1 970 10
 2092 0314 0023     		movs	r3, #0
 2093              	.L84:
 971:Drivers/STM32F4xx_HAL_Driver/Src/stm32f4xx_hal_adc_ex.c **** }
 2094              		.loc 1 971 1
 2095 0316 1846     		mov	r0, r3
 2096 0318 1437     		adds	r7, r7, #20
 2097              		.cfi_def_cfa_offset 4
 2098 031a BD46     		mov	sp, r7
 2099              		.cfi_def_cfa_register 13
 2100              		@ sp needed
 2101 031c 5DF8047B 		ldr	r7, [sp], #4
 2102              		.cfi_restore 7
 2103              		.cfi_def_cfa_offset 0
 2104 0320 7047     		bx	lr
 2105              	.L102:
 2106 0322 00BF     		.align	2
 2107              	.L101:
 2108 0324 01000F00 		.word	983041
 2109 0328 00230140 		.word	1073816320
 2110 032c 00200140 		.word	1073815552
 2111 0330 12000010 		.word	268435474
 2112              		.cfi_endproc
 2113              	.LFE249:
 2115              		.section	.text.HAL_ADCEx_MultiModeConfigChannel,"ax",%progbits
ARM GAS  C:\Users\Halil\AppData\Local\Temp\ccl2Bawv.s 			page 55


 2116              		.align	1
 2117              		.global	HAL_ADCEx_MultiModeConfigChannel
 2118              		.syntax unified
 2119              		.thumb
 2120              		.thumb_func
 2122              	HAL_ADCEx_MultiModeConfigChannel:
 2123              	.LFB250:
 972:Drivers/STM32F4xx_HAL_Driver/Src/stm32f4xx_hal_adc_ex.c **** 
 973:Drivers/STM32F4xx_HAL_Driver/Src/stm32f4xx_hal_adc_ex.c **** /**
 974:Drivers/STM32F4xx_HAL_Driver/Src/stm32f4xx_hal_adc_ex.c ****   * @brief  Configures the ADC multi-mode
 975:Drivers/STM32F4xx_HAL_Driver/Src/stm32f4xx_hal_adc_ex.c ****   * @param  hadc       pointer to a ADC_HandleTypeDef structure that contains
 976:Drivers/STM32F4xx_HAL_Driver/Src/stm32f4xx_hal_adc_ex.c ****   *                     the configuration information for the specified ADC.
 977:Drivers/STM32F4xx_HAL_Driver/Src/stm32f4xx_hal_adc_ex.c ****   * @param  multimode  pointer to an ADC_MultiModeTypeDef structure that contains
 978:Drivers/STM32F4xx_HAL_Driver/Src/stm32f4xx_hal_adc_ex.c ****   *                     the configuration information for  multimode.
 979:Drivers/STM32F4xx_HAL_Driver/Src/stm32f4xx_hal_adc_ex.c ****   * @retval HAL status
 980:Drivers/STM32F4xx_HAL_Driver/Src/stm32f4xx_hal_adc_ex.c ****   */
 981:Drivers/STM32F4xx_HAL_Driver/Src/stm32f4xx_hal_adc_ex.c **** HAL_StatusTypeDef HAL_ADCEx_MultiModeConfigChannel(ADC_HandleTypeDef *hadc, ADC_MultiModeTypeDef *m
 982:Drivers/STM32F4xx_HAL_Driver/Src/stm32f4xx_hal_adc_ex.c **** {
 2124              		.loc 1 982 1
 2125              		.cfi_startproc
 2126              		@ args = 0, pretend = 0, frame = 16
 2127              		@ frame_needed = 1, uses_anonymous_args = 0
 2128              		@ link register save eliminated.
 2129 0000 80B4     		push	{r7}
 2130              		.cfi_def_cfa_offset 4
 2131              		.cfi_offset 7, -4
 2132 0002 85B0     		sub	sp, sp, #20
 2133              		.cfi_def_cfa_offset 24
 2134 0004 00AF     		add	r7, sp, #0
 2135              		.cfi_def_cfa_register 7
 2136 0006 7860     		str	r0, [r7, #4]
 2137 0008 3960     		str	r1, [r7]
 983:Drivers/STM32F4xx_HAL_Driver/Src/stm32f4xx_hal_adc_ex.c **** 
 984:Drivers/STM32F4xx_HAL_Driver/Src/stm32f4xx_hal_adc_ex.c ****   ADC_Common_TypeDef *tmpADC_Common;
 985:Drivers/STM32F4xx_HAL_Driver/Src/stm32f4xx_hal_adc_ex.c **** 
 986:Drivers/STM32F4xx_HAL_Driver/Src/stm32f4xx_hal_adc_ex.c ****   /* Check the parameters */
 987:Drivers/STM32F4xx_HAL_Driver/Src/stm32f4xx_hal_adc_ex.c ****   assert_param(IS_ADC_MODE(multimode->Mode));
 988:Drivers/STM32F4xx_HAL_Driver/Src/stm32f4xx_hal_adc_ex.c ****   assert_param(IS_ADC_DMA_ACCESS_MODE(multimode->DMAAccessMode));
 989:Drivers/STM32F4xx_HAL_Driver/Src/stm32f4xx_hal_adc_ex.c ****   assert_param(IS_ADC_SAMPLING_DELAY(multimode->TwoSamplingDelay));
 990:Drivers/STM32F4xx_HAL_Driver/Src/stm32f4xx_hal_adc_ex.c **** 
 991:Drivers/STM32F4xx_HAL_Driver/Src/stm32f4xx_hal_adc_ex.c ****   /* Process locked */
 992:Drivers/STM32F4xx_HAL_Driver/Src/stm32f4xx_hal_adc_ex.c ****   __HAL_LOCK(hadc);
 2138              		.loc 1 992 3
 2139 000a 7B68     		ldr	r3, [r7, #4]
 2140 000c 93F83C30 		ldrb	r3, [r3, #60]	@ zero_extendqisi2
 2141 0010 012B     		cmp	r3, #1
 2142 0012 01D1     		bne	.L104
 2143              		.loc 1 992 3 is_stmt 0 discriminator 1
 2144 0014 0223     		movs	r3, #2
 2145 0016 31E0     		b	.L105
 2146              	.L104:
 2147              		.loc 1 992 3 discriminator 2
 2148 0018 7B68     		ldr	r3, [r7, #4]
 2149 001a 0122     		movs	r2, #1
 2150 001c 83F83C20 		strb	r2, [r3, #60]
 993:Drivers/STM32F4xx_HAL_Driver/Src/stm32f4xx_hal_adc_ex.c **** 
 994:Drivers/STM32F4xx_HAL_Driver/Src/stm32f4xx_hal_adc_ex.c ****   /* Pointer to the common control register to which is belonging hadc    */
ARM GAS  C:\Users\Halil\AppData\Local\Temp\ccl2Bawv.s 			page 56


 995:Drivers/STM32F4xx_HAL_Driver/Src/stm32f4xx_hal_adc_ex.c ****   /* (Depending on STM32F4 product, there may be up to 3 ADC and 1 common */
 996:Drivers/STM32F4xx_HAL_Driver/Src/stm32f4xx_hal_adc_ex.c ****   /* control register)                                                    */
 997:Drivers/STM32F4xx_HAL_Driver/Src/stm32f4xx_hal_adc_ex.c ****   tmpADC_Common = ADC_COMMON_REGISTER(hadc);
 2151              		.loc 1 997 17 is_stmt 1 discriminator 2
 2152 0020 194B     		ldr	r3, .L106
 2153 0022 FB60     		str	r3, [r7, #12]
 998:Drivers/STM32F4xx_HAL_Driver/Src/stm32f4xx_hal_adc_ex.c **** 
 999:Drivers/STM32F4xx_HAL_Driver/Src/stm32f4xx_hal_adc_ex.c ****   /* Set ADC mode */
1000:Drivers/STM32F4xx_HAL_Driver/Src/stm32f4xx_hal_adc_ex.c ****   tmpADC_Common->CCR &= ~(ADC_CCR_MULTI);
 2154              		.loc 1 1000 16 discriminator 2
 2155 0024 FB68     		ldr	r3, [r7, #12]
 2156 0026 5B68     		ldr	r3, [r3, #4]
 2157              		.loc 1 1000 22 discriminator 2
 2158 0028 23F01F02 		bic	r2, r3, #31
 2159 002c FB68     		ldr	r3, [r7, #12]
 2160 002e 5A60     		str	r2, [r3, #4]
1001:Drivers/STM32F4xx_HAL_Driver/Src/stm32f4xx_hal_adc_ex.c ****   tmpADC_Common->CCR |= multimode->Mode;
 2161              		.loc 1 1001 16 discriminator 2
 2162 0030 FB68     		ldr	r3, [r7, #12]
 2163 0032 5A68     		ldr	r2, [r3, #4]
 2164              		.loc 1 1001 34 discriminator 2
 2165 0034 3B68     		ldr	r3, [r7]
 2166 0036 1B68     		ldr	r3, [r3]
 2167              		.loc 1 1001 22 discriminator 2
 2168 0038 1A43     		orrs	r2, r2, r3
 2169 003a FB68     		ldr	r3, [r7, #12]
 2170 003c 5A60     		str	r2, [r3, #4]
1002:Drivers/STM32F4xx_HAL_Driver/Src/stm32f4xx_hal_adc_ex.c **** 
1003:Drivers/STM32F4xx_HAL_Driver/Src/stm32f4xx_hal_adc_ex.c ****   /* Set the ADC DMA access mode */
1004:Drivers/STM32F4xx_HAL_Driver/Src/stm32f4xx_hal_adc_ex.c ****   tmpADC_Common->CCR &= ~(ADC_CCR_DMA);
 2171              		.loc 1 1004 16 discriminator 2
 2172 003e FB68     		ldr	r3, [r7, #12]
 2173 0040 5B68     		ldr	r3, [r3, #4]
 2174              		.loc 1 1004 22 discriminator 2
 2175 0042 23F44042 		bic	r2, r3, #49152
 2176 0046 FB68     		ldr	r3, [r7, #12]
 2177 0048 5A60     		str	r2, [r3, #4]
1005:Drivers/STM32F4xx_HAL_Driver/Src/stm32f4xx_hal_adc_ex.c ****   tmpADC_Common->CCR |= multimode->DMAAccessMode;
 2178              		.loc 1 1005 16 discriminator 2
 2179 004a FB68     		ldr	r3, [r7, #12]
 2180 004c 5A68     		ldr	r2, [r3, #4]
 2181              		.loc 1 1005 34 discriminator 2
 2182 004e 3B68     		ldr	r3, [r7]
 2183 0050 5B68     		ldr	r3, [r3, #4]
 2184              		.loc 1 1005 22 discriminator 2
 2185 0052 1A43     		orrs	r2, r2, r3
 2186 0054 FB68     		ldr	r3, [r7, #12]
 2187 0056 5A60     		str	r2, [r3, #4]
1006:Drivers/STM32F4xx_HAL_Driver/Src/stm32f4xx_hal_adc_ex.c **** 
1007:Drivers/STM32F4xx_HAL_Driver/Src/stm32f4xx_hal_adc_ex.c ****   /* Set delay between two sampling phases */
1008:Drivers/STM32F4xx_HAL_Driver/Src/stm32f4xx_hal_adc_ex.c ****   tmpADC_Common->CCR &= ~(ADC_CCR_DELAY);
 2188              		.loc 1 1008 16 discriminator 2
 2189 0058 FB68     		ldr	r3, [r7, #12]
 2190 005a 5B68     		ldr	r3, [r3, #4]
 2191              		.loc 1 1008 22 discriminator 2
 2192 005c 23F47062 		bic	r2, r3, #3840
 2193 0060 FB68     		ldr	r3, [r7, #12]
ARM GAS  C:\Users\Halil\AppData\Local\Temp\ccl2Bawv.s 			page 57


 2194 0062 5A60     		str	r2, [r3, #4]
1009:Drivers/STM32F4xx_HAL_Driver/Src/stm32f4xx_hal_adc_ex.c ****   tmpADC_Common->CCR |= multimode->TwoSamplingDelay;
 2195              		.loc 1 1009 16 discriminator 2
 2196 0064 FB68     		ldr	r3, [r7, #12]
 2197 0066 5A68     		ldr	r2, [r3, #4]
 2198              		.loc 1 1009 34 discriminator 2
 2199 0068 3B68     		ldr	r3, [r7]
 2200 006a 9B68     		ldr	r3, [r3, #8]
 2201              		.loc 1 1009 22 discriminator 2
 2202 006c 1A43     		orrs	r2, r2, r3
 2203 006e FB68     		ldr	r3, [r7, #12]
 2204 0070 5A60     		str	r2, [r3, #4]
1010:Drivers/STM32F4xx_HAL_Driver/Src/stm32f4xx_hal_adc_ex.c **** 
1011:Drivers/STM32F4xx_HAL_Driver/Src/stm32f4xx_hal_adc_ex.c ****   /* Process unlocked */
1012:Drivers/STM32F4xx_HAL_Driver/Src/stm32f4xx_hal_adc_ex.c ****   __HAL_UNLOCK(hadc);
 2205              		.loc 1 1012 3 discriminator 2
 2206 0072 7B68     		ldr	r3, [r7, #4]
 2207 0074 0022     		movs	r2, #0
 2208 0076 83F83C20 		strb	r2, [r3, #60]
1013:Drivers/STM32F4xx_HAL_Driver/Src/stm32f4xx_hal_adc_ex.c **** 
1014:Drivers/STM32F4xx_HAL_Driver/Src/stm32f4xx_hal_adc_ex.c ****   /* Return function status */
1015:Drivers/STM32F4xx_HAL_Driver/Src/stm32f4xx_hal_adc_ex.c ****   return HAL_OK;
 2209              		.loc 1 1015 10 discriminator 2
 2210 007a 0023     		movs	r3, #0
 2211              	.L105:
1016:Drivers/STM32F4xx_HAL_Driver/Src/stm32f4xx_hal_adc_ex.c **** }
 2212              		.loc 1 1016 1
 2213 007c 1846     		mov	r0, r3
 2214 007e 1437     		adds	r7, r7, #20
 2215              		.cfi_def_cfa_offset 4
 2216 0080 BD46     		mov	sp, r7
 2217              		.cfi_def_cfa_register 13
 2218              		@ sp needed
 2219 0082 5DF8047B 		ldr	r7, [sp], #4
 2220              		.cfi_restore 7
 2221              		.cfi_def_cfa_offset 0
 2222 0086 7047     		bx	lr
 2223              	.L107:
 2224              		.align	2
 2225              	.L106:
 2226 0088 00230140 		.word	1073816320
 2227              		.cfi_endproc
 2228              	.LFE250:
 2230              		.section	.text.ADC_MultiModeDMAConvCplt,"ax",%progbits
 2231              		.align	1
 2232              		.syntax unified
 2233              		.thumb
 2234              		.thumb_func
 2236              	ADC_MultiModeDMAConvCplt:
 2237              	.LFB251:
1017:Drivers/STM32F4xx_HAL_Driver/Src/stm32f4xx_hal_adc_ex.c **** 
1018:Drivers/STM32F4xx_HAL_Driver/Src/stm32f4xx_hal_adc_ex.c **** /**
1019:Drivers/STM32F4xx_HAL_Driver/Src/stm32f4xx_hal_adc_ex.c ****   * @}
1020:Drivers/STM32F4xx_HAL_Driver/Src/stm32f4xx_hal_adc_ex.c ****   */
1021:Drivers/STM32F4xx_HAL_Driver/Src/stm32f4xx_hal_adc_ex.c **** 
1022:Drivers/STM32F4xx_HAL_Driver/Src/stm32f4xx_hal_adc_ex.c **** /**
1023:Drivers/STM32F4xx_HAL_Driver/Src/stm32f4xx_hal_adc_ex.c ****   * @brief  DMA transfer complete callback.
ARM GAS  C:\Users\Halil\AppData\Local\Temp\ccl2Bawv.s 			page 58


1024:Drivers/STM32F4xx_HAL_Driver/Src/stm32f4xx_hal_adc_ex.c ****   * @param  hdma pointer to a DMA_HandleTypeDef structure that contains
1025:Drivers/STM32F4xx_HAL_Driver/Src/stm32f4xx_hal_adc_ex.c ****   *                the configuration information for the specified DMA module.
1026:Drivers/STM32F4xx_HAL_Driver/Src/stm32f4xx_hal_adc_ex.c ****   * @retval None
1027:Drivers/STM32F4xx_HAL_Driver/Src/stm32f4xx_hal_adc_ex.c ****   */
1028:Drivers/STM32F4xx_HAL_Driver/Src/stm32f4xx_hal_adc_ex.c **** static void ADC_MultiModeDMAConvCplt(DMA_HandleTypeDef *hdma)
1029:Drivers/STM32F4xx_HAL_Driver/Src/stm32f4xx_hal_adc_ex.c **** {
 2238              		.loc 1 1029 1
 2239              		.cfi_startproc
 2240              		@ args = 0, pretend = 0, frame = 16
 2241              		@ frame_needed = 1, uses_anonymous_args = 0
 2242 0000 80B5     		push	{r7, lr}
 2243              		.cfi_def_cfa_offset 8
 2244              		.cfi_offset 7, -8
 2245              		.cfi_offset 14, -4
 2246 0002 84B0     		sub	sp, sp, #16
 2247              		.cfi_def_cfa_offset 24
 2248 0004 00AF     		add	r7, sp, #0
 2249              		.cfi_def_cfa_register 7
 2250 0006 7860     		str	r0, [r7, #4]
1030:Drivers/STM32F4xx_HAL_Driver/Src/stm32f4xx_hal_adc_ex.c ****   /* Retrieve ADC handle corresponding to current DMA handle */
1031:Drivers/STM32F4xx_HAL_Driver/Src/stm32f4xx_hal_adc_ex.c ****   ADC_HandleTypeDef *hadc = (ADC_HandleTypeDef *)((DMA_HandleTypeDef *)hdma)->Parent;
 2251              		.loc 1 1031 22
 2252 0008 7B68     		ldr	r3, [r7, #4]
 2253 000a 9B6B     		ldr	r3, [r3, #56]
 2254 000c FB60     		str	r3, [r7, #12]
1032:Drivers/STM32F4xx_HAL_Driver/Src/stm32f4xx_hal_adc_ex.c **** 
1033:Drivers/STM32F4xx_HAL_Driver/Src/stm32f4xx_hal_adc_ex.c ****   /* Update state machine on conversion status if not in error state */
1034:Drivers/STM32F4xx_HAL_Driver/Src/stm32f4xx_hal_adc_ex.c ****   if (HAL_IS_BIT_CLR(hadc->State, HAL_ADC_STATE_ERROR_INTERNAL | HAL_ADC_STATE_ERROR_DMA))
 2255              		.loc 1 1034 7
 2256 000e FB68     		ldr	r3, [r7, #12]
 2257 0010 1B6C     		ldr	r3, [r3, #64]
 2258 0012 03F05003 		and	r3, r3, #80
 2259              		.loc 1 1034 6
 2260 0016 002B     		cmp	r3, #0
 2261 0018 3CD1     		bne	.L109
1035:Drivers/STM32F4xx_HAL_Driver/Src/stm32f4xx_hal_adc_ex.c ****   {
1036:Drivers/STM32F4xx_HAL_Driver/Src/stm32f4xx_hal_adc_ex.c ****     /* Update ADC state machine */
1037:Drivers/STM32F4xx_HAL_Driver/Src/stm32f4xx_hal_adc_ex.c ****     SET_BIT(hadc->State, HAL_ADC_STATE_REG_EOC);
 2262              		.loc 1 1037 5
 2263 001a FB68     		ldr	r3, [r7, #12]
 2264 001c 1B6C     		ldr	r3, [r3, #64]
 2265 001e 43F40072 		orr	r2, r3, #512
 2266 0022 FB68     		ldr	r3, [r7, #12]
 2267 0024 1A64     		str	r2, [r3, #64]
1038:Drivers/STM32F4xx_HAL_Driver/Src/stm32f4xx_hal_adc_ex.c **** 
1039:Drivers/STM32F4xx_HAL_Driver/Src/stm32f4xx_hal_adc_ex.c ****     /* Determine whether any further conversion upcoming on group regular   */
1040:Drivers/STM32F4xx_HAL_Driver/Src/stm32f4xx_hal_adc_ex.c ****     /* by external trigger, continuous mode or scan sequence on going.      */
1041:Drivers/STM32F4xx_HAL_Driver/Src/stm32f4xx_hal_adc_ex.c ****     /* Note: On STM32F4, there is no independent flag of end of sequence.   */
1042:Drivers/STM32F4xx_HAL_Driver/Src/stm32f4xx_hal_adc_ex.c ****     /*       The test of scan sequence on going is done either with scan    */
1043:Drivers/STM32F4xx_HAL_Driver/Src/stm32f4xx_hal_adc_ex.c ****     /*       sequence disabled or with end of conversion flag set to        */
1044:Drivers/STM32F4xx_HAL_Driver/Src/stm32f4xx_hal_adc_ex.c ****     /*       of end of sequence.                                            */
1045:Drivers/STM32F4xx_HAL_Driver/Src/stm32f4xx_hal_adc_ex.c ****     if (ADC_IS_SOFTWARE_START_REGULAR(hadc)                   &&
 2268              		.loc 1 1045 9
 2269 0026 FB68     		ldr	r3, [r7, #12]
 2270 0028 1B68     		ldr	r3, [r3]
 2271 002a 9B68     		ldr	r3, [r3, #8]
 2272 002c 03F04053 		and	r3, r3, #805306368
ARM GAS  C:\Users\Halil\AppData\Local\Temp\ccl2Bawv.s 			page 59


 2273              		.loc 1 1045 8
 2274 0030 002B     		cmp	r3, #0
 2275 0032 2BD1     		bne	.L110
1046:Drivers/STM32F4xx_HAL_Driver/Src/stm32f4xx_hal_adc_ex.c ****         (hadc->Init.ContinuousConvMode == DISABLE)            &&
 2276              		.loc 1 1046 20 discriminator 1
 2277 0034 FB68     		ldr	r3, [r7, #12]
 2278 0036 1B7E     		ldrb	r3, [r3, #24]	@ zero_extendqisi2
1045:Drivers/STM32F4xx_HAL_Driver/Src/stm32f4xx_hal_adc_ex.c ****         (hadc->Init.ContinuousConvMode == DISABLE)            &&
 2279              		.loc 1 1045 63 discriminator 1
 2280 0038 002B     		cmp	r3, #0
 2281 003a 27D1     		bne	.L110
1047:Drivers/STM32F4xx_HAL_Driver/Src/stm32f4xx_hal_adc_ex.c ****         (HAL_IS_BIT_CLR(hadc->Instance->SQR1, ADC_SQR1_L) ||
 2282              		.loc 1 1047 10
 2283 003c FB68     		ldr	r3, [r7, #12]
 2284 003e 1B68     		ldr	r3, [r3]
 2285 0040 DB6A     		ldr	r3, [r3, #44]
 2286 0042 03F47003 		and	r3, r3, #15728640
1046:Drivers/STM32F4xx_HAL_Driver/Src/stm32f4xx_hal_adc_ex.c ****         (hadc->Init.ContinuousConvMode == DISABLE)            &&
 2287              		.loc 1 1046 63
 2288 0046 002B     		cmp	r3, #0
 2289 0048 06D0     		beq	.L111
1048:Drivers/STM32F4xx_HAL_Driver/Src/stm32f4xx_hal_adc_ex.c ****          HAL_IS_BIT_CLR(hadc->Instance->CR2, ADC_CR2_EOCS)))
 2290              		.loc 1 1048 10
 2291 004a FB68     		ldr	r3, [r7, #12]
 2292 004c 1B68     		ldr	r3, [r3]
 2293 004e 9B68     		ldr	r3, [r3, #8]
 2294 0050 03F48063 		and	r3, r3, #1024
1047:Drivers/STM32F4xx_HAL_Driver/Src/stm32f4xx_hal_adc_ex.c ****         (HAL_IS_BIT_CLR(hadc->Instance->SQR1, ADC_SQR1_L) ||
 2295              		.loc 1 1047 59
 2296 0054 002B     		cmp	r3, #0
 2297 0056 19D1     		bne	.L110
 2298              	.L111:
1049:Drivers/STM32F4xx_HAL_Driver/Src/stm32f4xx_hal_adc_ex.c ****     {
1050:Drivers/STM32F4xx_HAL_Driver/Src/stm32f4xx_hal_adc_ex.c ****       /* Disable ADC end of single conversion interrupt on group regular */
1051:Drivers/STM32F4xx_HAL_Driver/Src/stm32f4xx_hal_adc_ex.c ****       /* Note: Overrun interrupt was enabled with EOC interrupt in          */
1052:Drivers/STM32F4xx_HAL_Driver/Src/stm32f4xx_hal_adc_ex.c ****       /* HAL_ADC_Start_IT(), but is not disabled here because can be used   */
1053:Drivers/STM32F4xx_HAL_Driver/Src/stm32f4xx_hal_adc_ex.c ****       /* by overrun IRQ process below.                                      */
1054:Drivers/STM32F4xx_HAL_Driver/Src/stm32f4xx_hal_adc_ex.c ****       __HAL_ADC_DISABLE_IT(hadc, ADC_IT_EOC);
 2299              		.loc 1 1054 7
 2300 0058 FB68     		ldr	r3, [r7, #12]
 2301 005a 1B68     		ldr	r3, [r3]
 2302 005c 5A68     		ldr	r2, [r3, #4]
 2303 005e FB68     		ldr	r3, [r7, #12]
 2304 0060 1B68     		ldr	r3, [r3]
 2305 0062 22F02002 		bic	r2, r2, #32
 2306 0066 5A60     		str	r2, [r3, #4]
1055:Drivers/STM32F4xx_HAL_Driver/Src/stm32f4xx_hal_adc_ex.c **** 
1056:Drivers/STM32F4xx_HAL_Driver/Src/stm32f4xx_hal_adc_ex.c ****       /* Set ADC state */
1057:Drivers/STM32F4xx_HAL_Driver/Src/stm32f4xx_hal_adc_ex.c ****       CLEAR_BIT(hadc->State, HAL_ADC_STATE_REG_BUSY);
 2307              		.loc 1 1057 7
 2308 0068 FB68     		ldr	r3, [r7, #12]
 2309 006a 1B6C     		ldr	r3, [r3, #64]
 2310 006c 23F48072 		bic	r2, r3, #256
 2311 0070 FB68     		ldr	r3, [r7, #12]
 2312 0072 1A64     		str	r2, [r3, #64]
1058:Drivers/STM32F4xx_HAL_Driver/Src/stm32f4xx_hal_adc_ex.c **** 
1059:Drivers/STM32F4xx_HAL_Driver/Src/stm32f4xx_hal_adc_ex.c ****       if (HAL_IS_BIT_CLR(hadc->State, HAL_ADC_STATE_INJ_BUSY))
ARM GAS  C:\Users\Halil\AppData\Local\Temp\ccl2Bawv.s 			page 60


 2313              		.loc 1 1059 11
 2314 0074 FB68     		ldr	r3, [r7, #12]
 2315 0076 1B6C     		ldr	r3, [r3, #64]
 2316 0078 03F48053 		and	r3, r3, #4096
 2317              		.loc 1 1059 10
 2318 007c 002B     		cmp	r3, #0
 2319 007e 05D1     		bne	.L110
1060:Drivers/STM32F4xx_HAL_Driver/Src/stm32f4xx_hal_adc_ex.c ****       {
1061:Drivers/STM32F4xx_HAL_Driver/Src/stm32f4xx_hal_adc_ex.c ****         SET_BIT(hadc->State, HAL_ADC_STATE_READY);
 2320              		.loc 1 1061 9
 2321 0080 FB68     		ldr	r3, [r7, #12]
 2322 0082 1B6C     		ldr	r3, [r3, #64]
 2323 0084 43F00102 		orr	r2, r3, #1
 2324 0088 FB68     		ldr	r3, [r7, #12]
 2325 008a 1A64     		str	r2, [r3, #64]
 2326              	.L110:
1062:Drivers/STM32F4xx_HAL_Driver/Src/stm32f4xx_hal_adc_ex.c ****       }
1063:Drivers/STM32F4xx_HAL_Driver/Src/stm32f4xx_hal_adc_ex.c ****     }
1064:Drivers/STM32F4xx_HAL_Driver/Src/stm32f4xx_hal_adc_ex.c **** 
1065:Drivers/STM32F4xx_HAL_Driver/Src/stm32f4xx_hal_adc_ex.c ****     /* Conversion complete callback */
1066:Drivers/STM32F4xx_HAL_Driver/Src/stm32f4xx_hal_adc_ex.c ****     HAL_ADC_ConvCpltCallback(hadc);
 2327              		.loc 1 1066 5
 2328 008c F868     		ldr	r0, [r7, #12]
 2329 008e FFF7FEFF 		bl	HAL_ADC_ConvCpltCallback
1067:Drivers/STM32F4xx_HAL_Driver/Src/stm32f4xx_hal_adc_ex.c ****   }
1068:Drivers/STM32F4xx_HAL_Driver/Src/stm32f4xx_hal_adc_ex.c ****   else
1069:Drivers/STM32F4xx_HAL_Driver/Src/stm32f4xx_hal_adc_ex.c ****   {
1070:Drivers/STM32F4xx_HAL_Driver/Src/stm32f4xx_hal_adc_ex.c ****     /* Call DMA error callback */
1071:Drivers/STM32F4xx_HAL_Driver/Src/stm32f4xx_hal_adc_ex.c ****     hadc->DMA_Handle->XferErrorCallback(hdma);
1072:Drivers/STM32F4xx_HAL_Driver/Src/stm32f4xx_hal_adc_ex.c ****   }
1073:Drivers/STM32F4xx_HAL_Driver/Src/stm32f4xx_hal_adc_ex.c **** }
 2330              		.loc 1 1073 1
 2331 0092 04E0     		b	.L113
 2332              	.L109:
1071:Drivers/STM32F4xx_HAL_Driver/Src/stm32f4xx_hal_adc_ex.c ****   }
 2333              		.loc 1 1071 9
 2334 0094 FB68     		ldr	r3, [r7, #12]
 2335 0096 9B6B     		ldr	r3, [r3, #56]
1071:Drivers/STM32F4xx_HAL_Driver/Src/stm32f4xx_hal_adc_ex.c ****   }
 2336              		.loc 1 1071 21
 2337 0098 DB6C     		ldr	r3, [r3, #76]
1071:Drivers/STM32F4xx_HAL_Driver/Src/stm32f4xx_hal_adc_ex.c ****   }
 2338              		.loc 1 1071 5
 2339 009a 7868     		ldr	r0, [r7, #4]
 2340 009c 9847     		blx	r3
 2341              	.LVL0:
 2342              	.L113:
 2343              		.loc 1 1073 1
 2344 009e 00BF     		nop
 2345 00a0 1037     		adds	r7, r7, #16
 2346              		.cfi_def_cfa_offset 8
 2347 00a2 BD46     		mov	sp, r7
 2348              		.cfi_def_cfa_register 13
 2349              		@ sp needed
 2350 00a4 80BD     		pop	{r7, pc}
 2351              		.cfi_endproc
 2352              	.LFE251:
ARM GAS  C:\Users\Halil\AppData\Local\Temp\ccl2Bawv.s 			page 61


 2354              		.section	.text.ADC_MultiModeDMAHalfConvCplt,"ax",%progbits
 2355              		.align	1
 2356              		.syntax unified
 2357              		.thumb
 2358              		.thumb_func
 2360              	ADC_MultiModeDMAHalfConvCplt:
 2361              	.LFB252:
1074:Drivers/STM32F4xx_HAL_Driver/Src/stm32f4xx_hal_adc_ex.c **** 
1075:Drivers/STM32F4xx_HAL_Driver/Src/stm32f4xx_hal_adc_ex.c **** /**
1076:Drivers/STM32F4xx_HAL_Driver/Src/stm32f4xx_hal_adc_ex.c ****   * @brief  DMA half transfer complete callback.
1077:Drivers/STM32F4xx_HAL_Driver/Src/stm32f4xx_hal_adc_ex.c ****   * @param  hdma pointer to a DMA_HandleTypeDef structure that contains
1078:Drivers/STM32F4xx_HAL_Driver/Src/stm32f4xx_hal_adc_ex.c ****   *                the configuration information for the specified DMA module.
1079:Drivers/STM32F4xx_HAL_Driver/Src/stm32f4xx_hal_adc_ex.c ****   * @retval None
1080:Drivers/STM32F4xx_HAL_Driver/Src/stm32f4xx_hal_adc_ex.c ****   */
1081:Drivers/STM32F4xx_HAL_Driver/Src/stm32f4xx_hal_adc_ex.c **** static void ADC_MultiModeDMAHalfConvCplt(DMA_HandleTypeDef *hdma)
1082:Drivers/STM32F4xx_HAL_Driver/Src/stm32f4xx_hal_adc_ex.c **** {
 2362              		.loc 1 1082 1
 2363              		.cfi_startproc
 2364              		@ args = 0, pretend = 0, frame = 16
 2365              		@ frame_needed = 1, uses_anonymous_args = 0
 2366 0000 80B5     		push	{r7, lr}
 2367              		.cfi_def_cfa_offset 8
 2368              		.cfi_offset 7, -8
 2369              		.cfi_offset 14, -4
 2370 0002 84B0     		sub	sp, sp, #16
 2371              		.cfi_def_cfa_offset 24
 2372 0004 00AF     		add	r7, sp, #0
 2373              		.cfi_def_cfa_register 7
 2374 0006 7860     		str	r0, [r7, #4]
1083:Drivers/STM32F4xx_HAL_Driver/Src/stm32f4xx_hal_adc_ex.c ****   ADC_HandleTypeDef *hadc = (ADC_HandleTypeDef *)((DMA_HandleTypeDef *)hdma)->Parent;
 2375              		.loc 1 1083 22
 2376 0008 7B68     		ldr	r3, [r7, #4]
 2377 000a 9B6B     		ldr	r3, [r3, #56]
 2378 000c FB60     		str	r3, [r7, #12]
1084:Drivers/STM32F4xx_HAL_Driver/Src/stm32f4xx_hal_adc_ex.c ****   /* Conversion complete callback */
1085:Drivers/STM32F4xx_HAL_Driver/Src/stm32f4xx_hal_adc_ex.c ****   HAL_ADC_ConvHalfCpltCallback(hadc);
 2379              		.loc 1 1085 3
 2380 000e F868     		ldr	r0, [r7, #12]
 2381 0010 FFF7FEFF 		bl	HAL_ADC_ConvHalfCpltCallback
1086:Drivers/STM32F4xx_HAL_Driver/Src/stm32f4xx_hal_adc_ex.c **** }
 2382              		.loc 1 1086 1
 2383 0014 00BF     		nop
 2384 0016 1037     		adds	r7, r7, #16
 2385              		.cfi_def_cfa_offset 8
 2386 0018 BD46     		mov	sp, r7
 2387              		.cfi_def_cfa_register 13
 2388              		@ sp needed
 2389 001a 80BD     		pop	{r7, pc}
 2390              		.cfi_endproc
 2391              	.LFE252:
 2393              		.section	.text.ADC_MultiModeDMAError,"ax",%progbits
 2394              		.align	1
 2395              		.syntax unified
 2396              		.thumb
 2397              		.thumb_func
 2399              	ADC_MultiModeDMAError:
 2400              	.LFB253:
ARM GAS  C:\Users\Halil\AppData\Local\Temp\ccl2Bawv.s 			page 62


1087:Drivers/STM32F4xx_HAL_Driver/Src/stm32f4xx_hal_adc_ex.c **** 
1088:Drivers/STM32F4xx_HAL_Driver/Src/stm32f4xx_hal_adc_ex.c **** /**
1089:Drivers/STM32F4xx_HAL_Driver/Src/stm32f4xx_hal_adc_ex.c ****   * @brief  DMA error callback
1090:Drivers/STM32F4xx_HAL_Driver/Src/stm32f4xx_hal_adc_ex.c ****   * @param  hdma pointer to a DMA_HandleTypeDef structure that contains
1091:Drivers/STM32F4xx_HAL_Driver/Src/stm32f4xx_hal_adc_ex.c ****   *                the configuration information for the specified DMA module.
1092:Drivers/STM32F4xx_HAL_Driver/Src/stm32f4xx_hal_adc_ex.c ****   * @retval None
1093:Drivers/STM32F4xx_HAL_Driver/Src/stm32f4xx_hal_adc_ex.c ****   */
1094:Drivers/STM32F4xx_HAL_Driver/Src/stm32f4xx_hal_adc_ex.c **** static void ADC_MultiModeDMAError(DMA_HandleTypeDef *hdma)
1095:Drivers/STM32F4xx_HAL_Driver/Src/stm32f4xx_hal_adc_ex.c **** {
 2401              		.loc 1 1095 1
 2402              		.cfi_startproc
 2403              		@ args = 0, pretend = 0, frame = 16
 2404              		@ frame_needed = 1, uses_anonymous_args = 0
 2405 0000 80B5     		push	{r7, lr}
 2406              		.cfi_def_cfa_offset 8
 2407              		.cfi_offset 7, -8
 2408              		.cfi_offset 14, -4
 2409 0002 84B0     		sub	sp, sp, #16
 2410              		.cfi_def_cfa_offset 24
 2411 0004 00AF     		add	r7, sp, #0
 2412              		.cfi_def_cfa_register 7
 2413 0006 7860     		str	r0, [r7, #4]
1096:Drivers/STM32F4xx_HAL_Driver/Src/stm32f4xx_hal_adc_ex.c ****   ADC_HandleTypeDef *hadc = (ADC_HandleTypeDef *)((DMA_HandleTypeDef *)hdma)->Parent;
 2414              		.loc 1 1096 22
 2415 0008 7B68     		ldr	r3, [r7, #4]
 2416 000a 9B6B     		ldr	r3, [r3, #56]
 2417 000c FB60     		str	r3, [r7, #12]
1097:Drivers/STM32F4xx_HAL_Driver/Src/stm32f4xx_hal_adc_ex.c ****   hadc->State = HAL_ADC_STATE_ERROR_DMA;
 2418              		.loc 1 1097 15
 2419 000e FB68     		ldr	r3, [r7, #12]
 2420 0010 4022     		movs	r2, #64
 2421 0012 1A64     		str	r2, [r3, #64]
1098:Drivers/STM32F4xx_HAL_Driver/Src/stm32f4xx_hal_adc_ex.c ****   /* Set ADC error code to DMA error */
1099:Drivers/STM32F4xx_HAL_Driver/Src/stm32f4xx_hal_adc_ex.c ****   hadc->ErrorCode |= HAL_ADC_ERROR_DMA;
 2422              		.loc 1 1099 7
 2423 0014 FB68     		ldr	r3, [r7, #12]
 2424 0016 5B6C     		ldr	r3, [r3, #68]
 2425              		.loc 1 1099 19
 2426 0018 43F00402 		orr	r2, r3, #4
 2427 001c FB68     		ldr	r3, [r7, #12]
 2428 001e 5A64     		str	r2, [r3, #68]
1100:Drivers/STM32F4xx_HAL_Driver/Src/stm32f4xx_hal_adc_ex.c ****   HAL_ADC_ErrorCallback(hadc);
 2429              		.loc 1 1100 3
 2430 0020 F868     		ldr	r0, [r7, #12]
 2431 0022 FFF7FEFF 		bl	HAL_ADC_ErrorCallback
1101:Drivers/STM32F4xx_HAL_Driver/Src/stm32f4xx_hal_adc_ex.c **** }
 2432              		.loc 1 1101 1
 2433 0026 00BF     		nop
 2434 0028 1037     		adds	r7, r7, #16
 2435              		.cfi_def_cfa_offset 8
 2436 002a BD46     		mov	sp, r7
 2437              		.cfi_def_cfa_register 13
 2438              		@ sp needed
 2439 002c 80BD     		pop	{r7, pc}
 2440              		.cfi_endproc
 2441              	.LFE253:
 2443              		.text
ARM GAS  C:\Users\Halil\AppData\Local\Temp\ccl2Bawv.s 			page 63


 2444              	.Letext0:
 2445              		.file 2 "C:\\ST\\STM32CubeIDE_1.14.1\\STM32CubeIDE\\plugins\\com.st.stm32cube.ide.mcu.externaltool
 2446              		.file 3 "C:\\ST\\STM32CubeIDE_1.14.1\\STM32CubeIDE\\plugins\\com.st.stm32cube.ide.mcu.externaltool
 2447              		.file 4 "Drivers/CMSIS/Device/ST/STM32F4xx/Include/stm32f446xx.h"
 2448              		.file 5 "Drivers/CMSIS/Device/ST/STM32F4xx/Include/stm32f4xx.h"
 2449              		.file 6 "Drivers/STM32F4xx_HAL_Driver/Inc/stm32f4xx_hal_def.h"
 2450              		.file 7 "Drivers/STM32F4xx_HAL_Driver/Inc/stm32f4xx_hal_dma.h"
 2451              		.file 8 "Drivers/STM32F4xx_HAL_Driver/Inc/stm32f4xx_hal_adc.h"
 2452              		.file 9 "Drivers/STM32F4xx_HAL_Driver/Inc/stm32f4xx_hal_adc_ex.h"
 2453              		.file 10 "Drivers/CMSIS/Device/ST/STM32F4xx/Include/system_stm32f4xx.h"
 2454              		.file 11 "Drivers/STM32F4xx_HAL_Driver/Inc/stm32f4xx_hal.h"
ARM GAS  C:\Users\Halil\AppData\Local\Temp\ccl2Bawv.s 			page 64

