ARM GAS  C:\Users\Halil\AppData\Local\Temp\cc7e4Lrl.s 			page 1


   1              		.cpu cortex-m4
   2              		.arch armv7e-m
   3              		.fpu fpv4-sp-d16
   4              		.eabi_attribute 27, 1
   5              		.eabi_attribute 28, 1
   6              		.eabi_attribute 20, 1
   7              		.eabi_attribute 21, 1
   8              		.eabi_attribute 23, 3
   9              		.eabi_attribute 24, 1
  10              		.eabi_attribute 25, 1
  11              		.eabi_attribute 26, 1
  12              		.eabi_attribute 30, 6
  13              		.eabi_attribute 34, 1
  14              		.eabi_attribute 18, 4
  15              		.file	"stm32f4xx_hal_adc.c"
  16              		.text
  17              	.Ltext0:
  18              		.cfi_sections	.debug_frame
  19              		.file 1 "Drivers/STM32F4xx_HAL_Driver/Src/stm32f4xx_hal_adc.c"
  20              		.section	.text.HAL_ADC_Init,"ax",%progbits
  21              		.align	1
  22              		.global	HAL_ADC_Init
  23              		.syntax unified
  24              		.thumb
  25              		.thumb_func
  27              	HAL_ADC_Init:
  28              	.LFB239:
   1:Drivers/STM32F4xx_HAL_Driver/Src/stm32f4xx_hal_adc.c **** /**
   2:Drivers/STM32F4xx_HAL_Driver/Src/stm32f4xx_hal_adc.c ****   ******************************************************************************
   3:Drivers/STM32F4xx_HAL_Driver/Src/stm32f4xx_hal_adc.c ****   * @file    stm32f4xx_hal_adc.c
   4:Drivers/STM32F4xx_HAL_Driver/Src/stm32f4xx_hal_adc.c ****   * @author  MCD Application Team
   5:Drivers/STM32F4xx_HAL_Driver/Src/stm32f4xx_hal_adc.c ****   * @brief   This file provides firmware functions to manage the following
   6:Drivers/STM32F4xx_HAL_Driver/Src/stm32f4xx_hal_adc.c ****   *          functionalities of the Analog to Digital Converter (ADC) peripheral:
   7:Drivers/STM32F4xx_HAL_Driver/Src/stm32f4xx_hal_adc.c ****   *           + Initialization and de-initialization functions
   8:Drivers/STM32F4xx_HAL_Driver/Src/stm32f4xx_hal_adc.c ****   *           + Peripheral Control functions
   9:Drivers/STM32F4xx_HAL_Driver/Src/stm32f4xx_hal_adc.c ****   *           + Peripheral State functions
  10:Drivers/STM32F4xx_HAL_Driver/Src/stm32f4xx_hal_adc.c ****   *
  11:Drivers/STM32F4xx_HAL_Driver/Src/stm32f4xx_hal_adc.c ****   ******************************************************************************
  12:Drivers/STM32F4xx_HAL_Driver/Src/stm32f4xx_hal_adc.c ****   * @attention
  13:Drivers/STM32F4xx_HAL_Driver/Src/stm32f4xx_hal_adc.c ****   *
  14:Drivers/STM32F4xx_HAL_Driver/Src/stm32f4xx_hal_adc.c ****   * Copyright (c) 2017 STMicroelectronics.
  15:Drivers/STM32F4xx_HAL_Driver/Src/stm32f4xx_hal_adc.c ****   * All rights reserved.
  16:Drivers/STM32F4xx_HAL_Driver/Src/stm32f4xx_hal_adc.c ****   *
  17:Drivers/STM32F4xx_HAL_Driver/Src/stm32f4xx_hal_adc.c ****   * This software is licensed under terms that can be found in the LICENSE file
  18:Drivers/STM32F4xx_HAL_Driver/Src/stm32f4xx_hal_adc.c ****   * in the root directory of this software component.
  19:Drivers/STM32F4xx_HAL_Driver/Src/stm32f4xx_hal_adc.c ****   * If no LICENSE file comes with this software, it is provided AS-IS.
  20:Drivers/STM32F4xx_HAL_Driver/Src/stm32f4xx_hal_adc.c ****   *
  21:Drivers/STM32F4xx_HAL_Driver/Src/stm32f4xx_hal_adc.c ****   ******************************************************************************
  22:Drivers/STM32F4xx_HAL_Driver/Src/stm32f4xx_hal_adc.c ****   @verbatim
  23:Drivers/STM32F4xx_HAL_Driver/Src/stm32f4xx_hal_adc.c ****   ==============================================================================
  24:Drivers/STM32F4xx_HAL_Driver/Src/stm32f4xx_hal_adc.c ****                     ##### ADC Peripheral features #####
  25:Drivers/STM32F4xx_HAL_Driver/Src/stm32f4xx_hal_adc.c ****   ==============================================================================
  26:Drivers/STM32F4xx_HAL_Driver/Src/stm32f4xx_hal_adc.c ****   [..]
  27:Drivers/STM32F4xx_HAL_Driver/Src/stm32f4xx_hal_adc.c ****   (#) 12-bit, 10-bit, 8-bit or 6-bit configurable resolution.
  28:Drivers/STM32F4xx_HAL_Driver/Src/stm32f4xx_hal_adc.c ****   (#) Interrupt generation at the end of conversion, end of injected conversion,
  29:Drivers/STM32F4xx_HAL_Driver/Src/stm32f4xx_hal_adc.c ****       and in case of analog watchdog or overrun events
  30:Drivers/STM32F4xx_HAL_Driver/Src/stm32f4xx_hal_adc.c ****   (#) Single and continuous conversion modes.
ARM GAS  C:\Users\Halil\AppData\Local\Temp\cc7e4Lrl.s 			page 2


  31:Drivers/STM32F4xx_HAL_Driver/Src/stm32f4xx_hal_adc.c ****   (#) Scan mode for automatic conversion of channel 0 to channel x.
  32:Drivers/STM32F4xx_HAL_Driver/Src/stm32f4xx_hal_adc.c ****   (#) Data alignment with in-built data coherency.
  33:Drivers/STM32F4xx_HAL_Driver/Src/stm32f4xx_hal_adc.c ****   (#) Channel-wise programmable sampling time.
  34:Drivers/STM32F4xx_HAL_Driver/Src/stm32f4xx_hal_adc.c ****   (#) External trigger option with configurable polarity for both regular and
  35:Drivers/STM32F4xx_HAL_Driver/Src/stm32f4xx_hal_adc.c ****       injected conversion.
  36:Drivers/STM32F4xx_HAL_Driver/Src/stm32f4xx_hal_adc.c ****   (#) Dual/Triple mode (on devices with 2 ADCs or more).
  37:Drivers/STM32F4xx_HAL_Driver/Src/stm32f4xx_hal_adc.c ****   (#) Configurable DMA data storage in Dual/Triple ADC mode.
  38:Drivers/STM32F4xx_HAL_Driver/Src/stm32f4xx_hal_adc.c ****   (#) Configurable delay between conversions in Dual/Triple interleaved mode.
  39:Drivers/STM32F4xx_HAL_Driver/Src/stm32f4xx_hal_adc.c ****   (#) ADC conversion type (refer to the datasheets).
  40:Drivers/STM32F4xx_HAL_Driver/Src/stm32f4xx_hal_adc.c ****   (#) ADC supply requirements: 2.4 V to 3.6 V at full speed and down to 1.8 V at
  41:Drivers/STM32F4xx_HAL_Driver/Src/stm32f4xx_hal_adc.c ****       slower speed.
  42:Drivers/STM32F4xx_HAL_Driver/Src/stm32f4xx_hal_adc.c ****   (#) ADC input range: VREF(minus) = VIN = VREF(plus).
  43:Drivers/STM32F4xx_HAL_Driver/Src/stm32f4xx_hal_adc.c ****   (#) DMA request generation during regular channel conversion.
  44:Drivers/STM32F4xx_HAL_Driver/Src/stm32f4xx_hal_adc.c **** 
  45:Drivers/STM32F4xx_HAL_Driver/Src/stm32f4xx_hal_adc.c **** 
  46:Drivers/STM32F4xx_HAL_Driver/Src/stm32f4xx_hal_adc.c ****                      ##### How to use this driver #####
  47:Drivers/STM32F4xx_HAL_Driver/Src/stm32f4xx_hal_adc.c ****   ==============================================================================
  48:Drivers/STM32F4xx_HAL_Driver/Src/stm32f4xx_hal_adc.c ****   [..]
  49:Drivers/STM32F4xx_HAL_Driver/Src/stm32f4xx_hal_adc.c ****   (#)Initialize the ADC low level resources by implementing the HAL_ADC_MspInit():
  50:Drivers/STM32F4xx_HAL_Driver/Src/stm32f4xx_hal_adc.c ****        (##) Enable the ADC interface clock using __HAL_RCC_ADC_CLK_ENABLE()
  51:Drivers/STM32F4xx_HAL_Driver/Src/stm32f4xx_hal_adc.c ****        (##) ADC pins configuration
  52:Drivers/STM32F4xx_HAL_Driver/Src/stm32f4xx_hal_adc.c ****              (+++) Enable the clock for the ADC GPIOs using the following function:
  53:Drivers/STM32F4xx_HAL_Driver/Src/stm32f4xx_hal_adc.c ****                    __HAL_RCC_GPIOx_CLK_ENABLE()
  54:Drivers/STM32F4xx_HAL_Driver/Src/stm32f4xx_hal_adc.c ****              (+++) Configure these ADC pins in analog mode using HAL_GPIO_Init()
  55:Drivers/STM32F4xx_HAL_Driver/Src/stm32f4xx_hal_adc.c ****        (##) In case of using interrupts (e.g. HAL_ADC_Start_IT())
  56:Drivers/STM32F4xx_HAL_Driver/Src/stm32f4xx_hal_adc.c ****              (+++) Configure the ADC interrupt priority using HAL_NVIC_SetPriority()
  57:Drivers/STM32F4xx_HAL_Driver/Src/stm32f4xx_hal_adc.c ****              (+++) Enable the ADC IRQ handler using HAL_NVIC_EnableIRQ()
  58:Drivers/STM32F4xx_HAL_Driver/Src/stm32f4xx_hal_adc.c ****              (+++) In ADC IRQ handler, call HAL_ADC_IRQHandler()
  59:Drivers/STM32F4xx_HAL_Driver/Src/stm32f4xx_hal_adc.c ****        (##) In case of using DMA to control data transfer (e.g. HAL_ADC_Start_DMA())
  60:Drivers/STM32F4xx_HAL_Driver/Src/stm32f4xx_hal_adc.c ****              (+++) Enable the DMAx interface clock using __HAL_RCC_DMAx_CLK_ENABLE()
  61:Drivers/STM32F4xx_HAL_Driver/Src/stm32f4xx_hal_adc.c ****              (+++) Configure and enable two DMA streams stream for managing data
  62:Drivers/STM32F4xx_HAL_Driver/Src/stm32f4xx_hal_adc.c ****                  transfer from peripheral to memory (output stream)
  63:Drivers/STM32F4xx_HAL_Driver/Src/stm32f4xx_hal_adc.c ****              (+++) Associate the initialized DMA handle to the CRYP DMA handle
  64:Drivers/STM32F4xx_HAL_Driver/Src/stm32f4xx_hal_adc.c ****                  using  __HAL_LINKDMA()
  65:Drivers/STM32F4xx_HAL_Driver/Src/stm32f4xx_hal_adc.c ****              (+++) Configure the priority and enable the NVIC for the transfer complete
  66:Drivers/STM32F4xx_HAL_Driver/Src/stm32f4xx_hal_adc.c ****                  interrupt on the two DMA Streams. The output stream should have higher
  67:Drivers/STM32F4xx_HAL_Driver/Src/stm32f4xx_hal_adc.c ****                  priority than the input stream.
  68:Drivers/STM32F4xx_HAL_Driver/Src/stm32f4xx_hal_adc.c **** 
  69:Drivers/STM32F4xx_HAL_Driver/Src/stm32f4xx_hal_adc.c ****     *** Configuration of ADC, groups regular/injected, channels parameters ***
  70:Drivers/STM32F4xx_HAL_Driver/Src/stm32f4xx_hal_adc.c ****   ==============================================================================
  71:Drivers/STM32F4xx_HAL_Driver/Src/stm32f4xx_hal_adc.c ****   [..]
  72:Drivers/STM32F4xx_HAL_Driver/Src/stm32f4xx_hal_adc.c ****   (#) Configure the ADC parameters (resolution, data alignment, ...)
  73:Drivers/STM32F4xx_HAL_Driver/Src/stm32f4xx_hal_adc.c ****       and regular group parameters (conversion trigger, sequencer, ...)
  74:Drivers/STM32F4xx_HAL_Driver/Src/stm32f4xx_hal_adc.c ****       using function HAL_ADC_Init().
  75:Drivers/STM32F4xx_HAL_Driver/Src/stm32f4xx_hal_adc.c **** 
  76:Drivers/STM32F4xx_HAL_Driver/Src/stm32f4xx_hal_adc.c ****   (#) Configure the channels for regular group parameters (channel number,
  77:Drivers/STM32F4xx_HAL_Driver/Src/stm32f4xx_hal_adc.c ****       channel rank into sequencer, ..., into regular group)
  78:Drivers/STM32F4xx_HAL_Driver/Src/stm32f4xx_hal_adc.c ****       using function HAL_ADC_ConfigChannel().
  79:Drivers/STM32F4xx_HAL_Driver/Src/stm32f4xx_hal_adc.c **** 
  80:Drivers/STM32F4xx_HAL_Driver/Src/stm32f4xx_hal_adc.c ****   (#) Optionally, configure the injected group parameters (conversion trigger,
  81:Drivers/STM32F4xx_HAL_Driver/Src/stm32f4xx_hal_adc.c ****       sequencer, ..., of injected group)
  82:Drivers/STM32F4xx_HAL_Driver/Src/stm32f4xx_hal_adc.c ****       and the channels for injected group parameters (channel number,
  83:Drivers/STM32F4xx_HAL_Driver/Src/stm32f4xx_hal_adc.c ****       channel rank into sequencer, ..., into injected group)
  84:Drivers/STM32F4xx_HAL_Driver/Src/stm32f4xx_hal_adc.c ****       using function HAL_ADCEx_InjectedConfigChannel().
  85:Drivers/STM32F4xx_HAL_Driver/Src/stm32f4xx_hal_adc.c **** 
  86:Drivers/STM32F4xx_HAL_Driver/Src/stm32f4xx_hal_adc.c ****   (#) Optionally, configure the analog watchdog parameters (channels
  87:Drivers/STM32F4xx_HAL_Driver/Src/stm32f4xx_hal_adc.c ****       monitored, thresholds, ...) using function HAL_ADC_AnalogWDGConfig().
ARM GAS  C:\Users\Halil\AppData\Local\Temp\cc7e4Lrl.s 			page 3


  88:Drivers/STM32F4xx_HAL_Driver/Src/stm32f4xx_hal_adc.c **** 
  89:Drivers/STM32F4xx_HAL_Driver/Src/stm32f4xx_hal_adc.c ****   (#) Optionally, for devices with several ADC instances: configure the
  90:Drivers/STM32F4xx_HAL_Driver/Src/stm32f4xx_hal_adc.c ****       multimode parameters using function HAL_ADCEx_MultiModeConfigChannel().
  91:Drivers/STM32F4xx_HAL_Driver/Src/stm32f4xx_hal_adc.c **** 
  92:Drivers/STM32F4xx_HAL_Driver/Src/stm32f4xx_hal_adc.c ****                        *** Execution of ADC conversions ***
  93:Drivers/STM32F4xx_HAL_Driver/Src/stm32f4xx_hal_adc.c ****   ==============================================================================
  94:Drivers/STM32F4xx_HAL_Driver/Src/stm32f4xx_hal_adc.c ****   [..]
  95:Drivers/STM32F4xx_HAL_Driver/Src/stm32f4xx_hal_adc.c ****   (#) ADC driver can be used among three modes: polling, interruption,
  96:Drivers/STM32F4xx_HAL_Driver/Src/stm32f4xx_hal_adc.c ****       transfer by DMA.
  97:Drivers/STM32F4xx_HAL_Driver/Src/stm32f4xx_hal_adc.c **** 
  98:Drivers/STM32F4xx_HAL_Driver/Src/stm32f4xx_hal_adc.c ****      *** Polling mode IO operation ***
  99:Drivers/STM32F4xx_HAL_Driver/Src/stm32f4xx_hal_adc.c ****      =================================
 100:Drivers/STM32F4xx_HAL_Driver/Src/stm32f4xx_hal_adc.c ****      [..]
 101:Drivers/STM32F4xx_HAL_Driver/Src/stm32f4xx_hal_adc.c ****        (+) Start the ADC peripheral using HAL_ADC_Start()
 102:Drivers/STM32F4xx_HAL_Driver/Src/stm32f4xx_hal_adc.c ****        (+) Wait for end of conversion using HAL_ADC_PollForConversion(), at this stage
 103:Drivers/STM32F4xx_HAL_Driver/Src/stm32f4xx_hal_adc.c ****            user can specify the value of timeout according to his end application
 104:Drivers/STM32F4xx_HAL_Driver/Src/stm32f4xx_hal_adc.c ****        (+) To read the ADC converted values, use the HAL_ADC_GetValue() function.
 105:Drivers/STM32F4xx_HAL_Driver/Src/stm32f4xx_hal_adc.c ****        (+) Stop the ADC peripheral using HAL_ADC_Stop()
 106:Drivers/STM32F4xx_HAL_Driver/Src/stm32f4xx_hal_adc.c **** 
 107:Drivers/STM32F4xx_HAL_Driver/Src/stm32f4xx_hal_adc.c ****      *** Interrupt mode IO operation ***
 108:Drivers/STM32F4xx_HAL_Driver/Src/stm32f4xx_hal_adc.c ****      ===================================
 109:Drivers/STM32F4xx_HAL_Driver/Src/stm32f4xx_hal_adc.c ****      [..]
 110:Drivers/STM32F4xx_HAL_Driver/Src/stm32f4xx_hal_adc.c ****        (+) Start the ADC peripheral using HAL_ADC_Start_IT()
 111:Drivers/STM32F4xx_HAL_Driver/Src/stm32f4xx_hal_adc.c ****        (+) Use HAL_ADC_IRQHandler() called under ADC_IRQHandler() Interrupt subroutine
 112:Drivers/STM32F4xx_HAL_Driver/Src/stm32f4xx_hal_adc.c ****        (+) At ADC end of conversion HAL_ADC_ConvCpltCallback() function is executed and user can
 113:Drivers/STM32F4xx_HAL_Driver/Src/stm32f4xx_hal_adc.c ****            add his own code by customization of function pointer HAL_ADC_ConvCpltCallback
 114:Drivers/STM32F4xx_HAL_Driver/Src/stm32f4xx_hal_adc.c ****        (+) In case of ADC Error, HAL_ADC_ErrorCallback() function is executed and user can
 115:Drivers/STM32F4xx_HAL_Driver/Src/stm32f4xx_hal_adc.c ****            add his own code by customization of function pointer HAL_ADC_ErrorCallback
 116:Drivers/STM32F4xx_HAL_Driver/Src/stm32f4xx_hal_adc.c ****        (+) Stop the ADC peripheral using HAL_ADC_Stop_IT()
 117:Drivers/STM32F4xx_HAL_Driver/Src/stm32f4xx_hal_adc.c **** 
 118:Drivers/STM32F4xx_HAL_Driver/Src/stm32f4xx_hal_adc.c ****      *** DMA mode IO operation ***
 119:Drivers/STM32F4xx_HAL_Driver/Src/stm32f4xx_hal_adc.c ****      ==============================
 120:Drivers/STM32F4xx_HAL_Driver/Src/stm32f4xx_hal_adc.c ****      [..]
 121:Drivers/STM32F4xx_HAL_Driver/Src/stm32f4xx_hal_adc.c ****        (+) Start the ADC peripheral using HAL_ADC_Start_DMA(), at this stage the user specify the l
 122:Drivers/STM32F4xx_HAL_Driver/Src/stm32f4xx_hal_adc.c ****            of data to be transferred at each end of conversion
 123:Drivers/STM32F4xx_HAL_Driver/Src/stm32f4xx_hal_adc.c ****        (+) At The end of data transfer by HAL_ADC_ConvCpltCallback() function is executed and user 
 124:Drivers/STM32F4xx_HAL_Driver/Src/stm32f4xx_hal_adc.c ****            add his own code by customization of function pointer HAL_ADC_ConvCpltCallback
 125:Drivers/STM32F4xx_HAL_Driver/Src/stm32f4xx_hal_adc.c ****        (+) In case of transfer Error, HAL_ADC_ErrorCallback() function is executed and user can
 126:Drivers/STM32F4xx_HAL_Driver/Src/stm32f4xx_hal_adc.c ****            add his own code by customization of function pointer HAL_ADC_ErrorCallback
 127:Drivers/STM32F4xx_HAL_Driver/Src/stm32f4xx_hal_adc.c ****        (+) Stop the ADC peripheral using HAL_ADC_Stop_DMA()
 128:Drivers/STM32F4xx_HAL_Driver/Src/stm32f4xx_hal_adc.c **** 
 129:Drivers/STM32F4xx_HAL_Driver/Src/stm32f4xx_hal_adc.c ****      *** ADC HAL driver macros list ***
 130:Drivers/STM32F4xx_HAL_Driver/Src/stm32f4xx_hal_adc.c ****      =============================================
 131:Drivers/STM32F4xx_HAL_Driver/Src/stm32f4xx_hal_adc.c ****      [..]
 132:Drivers/STM32F4xx_HAL_Driver/Src/stm32f4xx_hal_adc.c ****        Below the list of most used macros in ADC HAL driver.
 133:Drivers/STM32F4xx_HAL_Driver/Src/stm32f4xx_hal_adc.c **** 
 134:Drivers/STM32F4xx_HAL_Driver/Src/stm32f4xx_hal_adc.c ****       (+) __HAL_ADC_ENABLE : Enable the ADC peripheral
 135:Drivers/STM32F4xx_HAL_Driver/Src/stm32f4xx_hal_adc.c ****       (+) __HAL_ADC_DISABLE : Disable the ADC peripheral
 136:Drivers/STM32F4xx_HAL_Driver/Src/stm32f4xx_hal_adc.c ****       (+) __HAL_ADC_ENABLE_IT: Enable the ADC end of conversion interrupt
 137:Drivers/STM32F4xx_HAL_Driver/Src/stm32f4xx_hal_adc.c ****       (+) __HAL_ADC_DISABLE_IT: Disable the ADC end of conversion interrupt
 138:Drivers/STM32F4xx_HAL_Driver/Src/stm32f4xx_hal_adc.c ****       (+) __HAL_ADC_GET_IT_SOURCE: Check if the specified ADC interrupt source is enabled or disabl
 139:Drivers/STM32F4xx_HAL_Driver/Src/stm32f4xx_hal_adc.c ****       (+) __HAL_ADC_CLEAR_FLAG: Clear the ADC's pending flags
 140:Drivers/STM32F4xx_HAL_Driver/Src/stm32f4xx_hal_adc.c ****       (+) __HAL_ADC_GET_FLAG: Get the selected ADC's flag status
 141:Drivers/STM32F4xx_HAL_Driver/Src/stm32f4xx_hal_adc.c ****       (+) ADC_GET_RESOLUTION: Return resolution bits in CR1 register
 142:Drivers/STM32F4xx_HAL_Driver/Src/stm32f4xx_hal_adc.c **** 
 143:Drivers/STM32F4xx_HAL_Driver/Src/stm32f4xx_hal_adc.c ****      [..]
 144:Drivers/STM32F4xx_HAL_Driver/Src/stm32f4xx_hal_adc.c ****        (@) You can refer to the ADC HAL driver header file for more useful macros
ARM GAS  C:\Users\Halil\AppData\Local\Temp\cc7e4Lrl.s 			page 4


 145:Drivers/STM32F4xx_HAL_Driver/Src/stm32f4xx_hal_adc.c **** 
 146:Drivers/STM32F4xx_HAL_Driver/Src/stm32f4xx_hal_adc.c ****                       *** Deinitialization of ADC ***
 147:Drivers/STM32F4xx_HAL_Driver/Src/stm32f4xx_hal_adc.c ****   ==============================================================================
 148:Drivers/STM32F4xx_HAL_Driver/Src/stm32f4xx_hal_adc.c ****   [..]
 149:Drivers/STM32F4xx_HAL_Driver/Src/stm32f4xx_hal_adc.c ****   (#) Disable the ADC interface
 150:Drivers/STM32F4xx_HAL_Driver/Src/stm32f4xx_hal_adc.c ****      (++) ADC clock can be hard reset and disabled at RCC top level.
 151:Drivers/STM32F4xx_HAL_Driver/Src/stm32f4xx_hal_adc.c ****      (++) Hard reset of ADC peripherals
 152:Drivers/STM32F4xx_HAL_Driver/Src/stm32f4xx_hal_adc.c ****           using macro __HAL_RCC_ADC_FORCE_RESET(), __HAL_RCC_ADC_RELEASE_RESET().
 153:Drivers/STM32F4xx_HAL_Driver/Src/stm32f4xx_hal_adc.c ****      (++) ADC clock disable using the equivalent macro/functions as configuration step.
 154:Drivers/STM32F4xx_HAL_Driver/Src/stm32f4xx_hal_adc.c ****                (+++) Example:
 155:Drivers/STM32F4xx_HAL_Driver/Src/stm32f4xx_hal_adc.c ****                    Into HAL_ADC_MspDeInit() (recommended code location) or with
 156:Drivers/STM32F4xx_HAL_Driver/Src/stm32f4xx_hal_adc.c ****                    other device clock parameters configuration:
 157:Drivers/STM32F4xx_HAL_Driver/Src/stm32f4xx_hal_adc.c ****                (+++) HAL_RCC_GetOscConfig(&RCC_OscInitStructure);
 158:Drivers/STM32F4xx_HAL_Driver/Src/stm32f4xx_hal_adc.c ****                (+++) RCC_OscInitStructure.OscillatorType = RCC_OSCILLATORTYPE_HSI;
 159:Drivers/STM32F4xx_HAL_Driver/Src/stm32f4xx_hal_adc.c ****                (+++) RCC_OscInitStructure.HSIState = RCC_HSI_OFF; (if not used for system clock)
 160:Drivers/STM32F4xx_HAL_Driver/Src/stm32f4xx_hal_adc.c ****                (+++) HAL_RCC_OscConfig(&RCC_OscInitStructure);
 161:Drivers/STM32F4xx_HAL_Driver/Src/stm32f4xx_hal_adc.c **** 
 162:Drivers/STM32F4xx_HAL_Driver/Src/stm32f4xx_hal_adc.c ****   (#) ADC pins configuration
 163:Drivers/STM32F4xx_HAL_Driver/Src/stm32f4xx_hal_adc.c ****      (++) Disable the clock for the ADC GPIOs using macro __HAL_RCC_GPIOx_CLK_DISABLE()
 164:Drivers/STM32F4xx_HAL_Driver/Src/stm32f4xx_hal_adc.c **** 
 165:Drivers/STM32F4xx_HAL_Driver/Src/stm32f4xx_hal_adc.c ****   (#) Optionally, in case of usage of ADC with interruptions:
 166:Drivers/STM32F4xx_HAL_Driver/Src/stm32f4xx_hal_adc.c ****      (++) Disable the NVIC for ADC using function HAL_NVIC_DisableIRQ(ADCx_IRQn)
 167:Drivers/STM32F4xx_HAL_Driver/Src/stm32f4xx_hal_adc.c **** 
 168:Drivers/STM32F4xx_HAL_Driver/Src/stm32f4xx_hal_adc.c ****   (#) Optionally, in case of usage of DMA:
 169:Drivers/STM32F4xx_HAL_Driver/Src/stm32f4xx_hal_adc.c ****         (++) Deinitialize the DMA using function HAL_DMA_DeInit().
 170:Drivers/STM32F4xx_HAL_Driver/Src/stm32f4xx_hal_adc.c ****         (++) Disable the NVIC for DMA using function HAL_NVIC_DisableIRQ(DMAx_Channelx_IRQn)
 171:Drivers/STM32F4xx_HAL_Driver/Src/stm32f4xx_hal_adc.c ****                       *** Callback registration ***
 172:Drivers/STM32F4xx_HAL_Driver/Src/stm32f4xx_hal_adc.c ****   ==============================================================================
 173:Drivers/STM32F4xx_HAL_Driver/Src/stm32f4xx_hal_adc.c ****     [..]
 174:Drivers/STM32F4xx_HAL_Driver/Src/stm32f4xx_hal_adc.c **** 
 175:Drivers/STM32F4xx_HAL_Driver/Src/stm32f4xx_hal_adc.c ****      The compilation flag USE_HAL_ADC_REGISTER_CALLBACKS, when set to 1,
 176:Drivers/STM32F4xx_HAL_Driver/Src/stm32f4xx_hal_adc.c ****      allows the user to configure dynamically the driver callbacks.
 177:Drivers/STM32F4xx_HAL_Driver/Src/stm32f4xx_hal_adc.c ****      Use Functions HAL_ADC_RegisterCallback()
 178:Drivers/STM32F4xx_HAL_Driver/Src/stm32f4xx_hal_adc.c ****      to register an interrupt callback.
 179:Drivers/STM32F4xx_HAL_Driver/Src/stm32f4xx_hal_adc.c ****     [..]
 180:Drivers/STM32F4xx_HAL_Driver/Src/stm32f4xx_hal_adc.c **** 
 181:Drivers/STM32F4xx_HAL_Driver/Src/stm32f4xx_hal_adc.c ****      Function HAL_ADC_RegisterCallback() allows to register following callbacks:
 182:Drivers/STM32F4xx_HAL_Driver/Src/stm32f4xx_hal_adc.c ****        (+) ConvCpltCallback               : ADC conversion complete callback
 183:Drivers/STM32F4xx_HAL_Driver/Src/stm32f4xx_hal_adc.c ****        (+) ConvHalfCpltCallback           : ADC conversion DMA half-transfer callback
 184:Drivers/STM32F4xx_HAL_Driver/Src/stm32f4xx_hal_adc.c ****        (+) LevelOutOfWindowCallback       : ADC analog watchdog 1 callback
 185:Drivers/STM32F4xx_HAL_Driver/Src/stm32f4xx_hal_adc.c ****        (+) ErrorCallback                  : ADC error callback
 186:Drivers/STM32F4xx_HAL_Driver/Src/stm32f4xx_hal_adc.c ****        (+) InjectedConvCpltCallback       : ADC group injected conversion complete callback
 187:Drivers/STM32F4xx_HAL_Driver/Src/stm32f4xx_hal_adc.c ****        (+) InjectedQueueOverflowCallback  : ADC group injected context queue overflow callback
 188:Drivers/STM32F4xx_HAL_Driver/Src/stm32f4xx_hal_adc.c ****        (+) LevelOutOfWindow2Callback      : ADC analog watchdog 2 callback
 189:Drivers/STM32F4xx_HAL_Driver/Src/stm32f4xx_hal_adc.c ****        (+) LevelOutOfWindow3Callback      : ADC analog watchdog 3 callback
 190:Drivers/STM32F4xx_HAL_Driver/Src/stm32f4xx_hal_adc.c ****        (+) EndOfSamplingCallback          : ADC end of sampling callback
 191:Drivers/STM32F4xx_HAL_Driver/Src/stm32f4xx_hal_adc.c ****        (+) MspInitCallback                : ADC Msp Init callback
 192:Drivers/STM32F4xx_HAL_Driver/Src/stm32f4xx_hal_adc.c ****        (+) MspDeInitCallback              : ADC Msp DeInit callback
 193:Drivers/STM32F4xx_HAL_Driver/Src/stm32f4xx_hal_adc.c ****      This function takes as parameters the HAL peripheral handle, the Callback ID
 194:Drivers/STM32F4xx_HAL_Driver/Src/stm32f4xx_hal_adc.c ****      and a pointer to the user callback function.
 195:Drivers/STM32F4xx_HAL_Driver/Src/stm32f4xx_hal_adc.c ****     [..]
 196:Drivers/STM32F4xx_HAL_Driver/Src/stm32f4xx_hal_adc.c **** 
 197:Drivers/STM32F4xx_HAL_Driver/Src/stm32f4xx_hal_adc.c ****      Use function HAL_ADC_UnRegisterCallback to reset a callback to the default
 198:Drivers/STM32F4xx_HAL_Driver/Src/stm32f4xx_hal_adc.c ****      weak function.
 199:Drivers/STM32F4xx_HAL_Driver/Src/stm32f4xx_hal_adc.c ****     [..]
 200:Drivers/STM32F4xx_HAL_Driver/Src/stm32f4xx_hal_adc.c **** 
 201:Drivers/STM32F4xx_HAL_Driver/Src/stm32f4xx_hal_adc.c ****      HAL_ADC_UnRegisterCallback takes as parameters the HAL peripheral handle,
ARM GAS  C:\Users\Halil\AppData\Local\Temp\cc7e4Lrl.s 			page 5


 202:Drivers/STM32F4xx_HAL_Driver/Src/stm32f4xx_hal_adc.c ****      and the Callback ID.
 203:Drivers/STM32F4xx_HAL_Driver/Src/stm32f4xx_hal_adc.c ****      This function allows to reset following callbacks:
 204:Drivers/STM32F4xx_HAL_Driver/Src/stm32f4xx_hal_adc.c ****        (+) ConvCpltCallback               : ADC conversion complete callback
 205:Drivers/STM32F4xx_HAL_Driver/Src/stm32f4xx_hal_adc.c ****        (+) ConvHalfCpltCallback           : ADC conversion DMA half-transfer callback
 206:Drivers/STM32F4xx_HAL_Driver/Src/stm32f4xx_hal_adc.c ****        (+) LevelOutOfWindowCallback       : ADC analog watchdog 1 callback
 207:Drivers/STM32F4xx_HAL_Driver/Src/stm32f4xx_hal_adc.c ****        (+) ErrorCallback                  : ADC error callback
 208:Drivers/STM32F4xx_HAL_Driver/Src/stm32f4xx_hal_adc.c ****        (+) InjectedConvCpltCallback       : ADC group injected conversion complete callback
 209:Drivers/STM32F4xx_HAL_Driver/Src/stm32f4xx_hal_adc.c ****        (+) InjectedQueueOverflowCallback  : ADC group injected context queue overflow callback
 210:Drivers/STM32F4xx_HAL_Driver/Src/stm32f4xx_hal_adc.c ****        (+) LevelOutOfWindow2Callback      : ADC analog watchdog 2 callback
 211:Drivers/STM32F4xx_HAL_Driver/Src/stm32f4xx_hal_adc.c ****        (+) LevelOutOfWindow3Callback      : ADC analog watchdog 3 callback
 212:Drivers/STM32F4xx_HAL_Driver/Src/stm32f4xx_hal_adc.c ****        (+) EndOfSamplingCallback          : ADC end of sampling callback
 213:Drivers/STM32F4xx_HAL_Driver/Src/stm32f4xx_hal_adc.c ****        (+) MspInitCallback                : ADC Msp Init callback
 214:Drivers/STM32F4xx_HAL_Driver/Src/stm32f4xx_hal_adc.c ****        (+) MspDeInitCallback              : ADC Msp DeInit callback
 215:Drivers/STM32F4xx_HAL_Driver/Src/stm32f4xx_hal_adc.c ****      [..]
 216:Drivers/STM32F4xx_HAL_Driver/Src/stm32f4xx_hal_adc.c **** 
 217:Drivers/STM32F4xx_HAL_Driver/Src/stm32f4xx_hal_adc.c ****      By default, after the HAL_ADC_Init() and when the state is HAL_ADC_STATE_RESET
 218:Drivers/STM32F4xx_HAL_Driver/Src/stm32f4xx_hal_adc.c ****      all callbacks are set to the corresponding weak functions:
 219:Drivers/STM32F4xx_HAL_Driver/Src/stm32f4xx_hal_adc.c ****      examples HAL_ADC_ConvCpltCallback(), HAL_ADC_ErrorCallback().
 220:Drivers/STM32F4xx_HAL_Driver/Src/stm32f4xx_hal_adc.c ****      Exception done for MspInit and MspDeInit functions that are
 221:Drivers/STM32F4xx_HAL_Driver/Src/stm32f4xx_hal_adc.c ****      reset to the legacy weak functions in the HAL_ADC_Init()/ HAL_ADC_DeInit() only when
 222:Drivers/STM32F4xx_HAL_Driver/Src/stm32f4xx_hal_adc.c ****      these callbacks are null (not registered beforehand).
 223:Drivers/STM32F4xx_HAL_Driver/Src/stm32f4xx_hal_adc.c ****     [..]
 224:Drivers/STM32F4xx_HAL_Driver/Src/stm32f4xx_hal_adc.c **** 
 225:Drivers/STM32F4xx_HAL_Driver/Src/stm32f4xx_hal_adc.c ****      If MspInit or MspDeInit are not null, the HAL_ADC_Init()/ HAL_ADC_DeInit()
 226:Drivers/STM32F4xx_HAL_Driver/Src/stm32f4xx_hal_adc.c ****      keep and use the user MspInit/MspDeInit callbacks (registered beforehand) whatever the state.
 227:Drivers/STM32F4xx_HAL_Driver/Src/stm32f4xx_hal_adc.c ****      [..]
 228:Drivers/STM32F4xx_HAL_Driver/Src/stm32f4xx_hal_adc.c **** 
 229:Drivers/STM32F4xx_HAL_Driver/Src/stm32f4xx_hal_adc.c ****      Callbacks can be registered/unregistered in HAL_ADC_STATE_READY state only.
 230:Drivers/STM32F4xx_HAL_Driver/Src/stm32f4xx_hal_adc.c ****      Exception done MspInit/MspDeInit functions that can be registered/unregistered
 231:Drivers/STM32F4xx_HAL_Driver/Src/stm32f4xx_hal_adc.c ****      in HAL_ADC_STATE_READY or HAL_ADC_STATE_RESET state,
 232:Drivers/STM32F4xx_HAL_Driver/Src/stm32f4xx_hal_adc.c ****      thus registered (user) MspInit/DeInit callbacks can be used during the Init/DeInit.
 233:Drivers/STM32F4xx_HAL_Driver/Src/stm32f4xx_hal_adc.c ****     [..]
 234:Drivers/STM32F4xx_HAL_Driver/Src/stm32f4xx_hal_adc.c **** 
 235:Drivers/STM32F4xx_HAL_Driver/Src/stm32f4xx_hal_adc.c ****      Then, the user first registers the MspInit/MspDeInit user callbacks
 236:Drivers/STM32F4xx_HAL_Driver/Src/stm32f4xx_hal_adc.c ****      using HAL_ADC_RegisterCallback() before calling HAL_ADC_DeInit()
 237:Drivers/STM32F4xx_HAL_Driver/Src/stm32f4xx_hal_adc.c ****      or HAL_ADC_Init() function.
 238:Drivers/STM32F4xx_HAL_Driver/Src/stm32f4xx_hal_adc.c ****      [..]
 239:Drivers/STM32F4xx_HAL_Driver/Src/stm32f4xx_hal_adc.c **** 
 240:Drivers/STM32F4xx_HAL_Driver/Src/stm32f4xx_hal_adc.c ****      When the compilation flag USE_HAL_ADC_REGISTER_CALLBACKS is set to 0 or
 241:Drivers/STM32F4xx_HAL_Driver/Src/stm32f4xx_hal_adc.c ****      not defined, the callback registration feature is not available and all callbacks
 242:Drivers/STM32F4xx_HAL_Driver/Src/stm32f4xx_hal_adc.c ****      are set to the corresponding weak functions.
 243:Drivers/STM32F4xx_HAL_Driver/Src/stm32f4xx_hal_adc.c **** 
 244:Drivers/STM32F4xx_HAL_Driver/Src/stm32f4xx_hal_adc.c ****     @endverbatim
 245:Drivers/STM32F4xx_HAL_Driver/Src/stm32f4xx_hal_adc.c ****   */
 246:Drivers/STM32F4xx_HAL_Driver/Src/stm32f4xx_hal_adc.c **** 
 247:Drivers/STM32F4xx_HAL_Driver/Src/stm32f4xx_hal_adc.c **** /* Includes ------------------------------------------------------------------*/
 248:Drivers/STM32F4xx_HAL_Driver/Src/stm32f4xx_hal_adc.c **** #include "stm32f4xx_hal.h"
 249:Drivers/STM32F4xx_HAL_Driver/Src/stm32f4xx_hal_adc.c **** 
 250:Drivers/STM32F4xx_HAL_Driver/Src/stm32f4xx_hal_adc.c **** /** @addtogroup STM32F4xx_HAL_Driver
 251:Drivers/STM32F4xx_HAL_Driver/Src/stm32f4xx_hal_adc.c ****   * @{
 252:Drivers/STM32F4xx_HAL_Driver/Src/stm32f4xx_hal_adc.c ****   */
 253:Drivers/STM32F4xx_HAL_Driver/Src/stm32f4xx_hal_adc.c **** 
 254:Drivers/STM32F4xx_HAL_Driver/Src/stm32f4xx_hal_adc.c **** /** @defgroup ADC ADC
 255:Drivers/STM32F4xx_HAL_Driver/Src/stm32f4xx_hal_adc.c ****   * @brief ADC driver modules
 256:Drivers/STM32F4xx_HAL_Driver/Src/stm32f4xx_hal_adc.c ****   * @{
 257:Drivers/STM32F4xx_HAL_Driver/Src/stm32f4xx_hal_adc.c ****   */
 258:Drivers/STM32F4xx_HAL_Driver/Src/stm32f4xx_hal_adc.c **** 
ARM GAS  C:\Users\Halil\AppData\Local\Temp\cc7e4Lrl.s 			page 6


 259:Drivers/STM32F4xx_HAL_Driver/Src/stm32f4xx_hal_adc.c **** #ifdef HAL_ADC_MODULE_ENABLED
 260:Drivers/STM32F4xx_HAL_Driver/Src/stm32f4xx_hal_adc.c **** 
 261:Drivers/STM32F4xx_HAL_Driver/Src/stm32f4xx_hal_adc.c **** /* Private typedef -----------------------------------------------------------*/
 262:Drivers/STM32F4xx_HAL_Driver/Src/stm32f4xx_hal_adc.c **** /* Private define ------------------------------------------------------------*/
 263:Drivers/STM32F4xx_HAL_Driver/Src/stm32f4xx_hal_adc.c **** /* Private macro -------------------------------------------------------------*/
 264:Drivers/STM32F4xx_HAL_Driver/Src/stm32f4xx_hal_adc.c **** /* Private variables ---------------------------------------------------------*/
 265:Drivers/STM32F4xx_HAL_Driver/Src/stm32f4xx_hal_adc.c **** /** @addtogroup ADC_Private_Functions
 266:Drivers/STM32F4xx_HAL_Driver/Src/stm32f4xx_hal_adc.c ****   * @{
 267:Drivers/STM32F4xx_HAL_Driver/Src/stm32f4xx_hal_adc.c ****   */
 268:Drivers/STM32F4xx_HAL_Driver/Src/stm32f4xx_hal_adc.c **** /* Private function prototypes -----------------------------------------------*/
 269:Drivers/STM32F4xx_HAL_Driver/Src/stm32f4xx_hal_adc.c **** static void ADC_Init(ADC_HandleTypeDef *hadc);
 270:Drivers/STM32F4xx_HAL_Driver/Src/stm32f4xx_hal_adc.c **** static void ADC_DMAConvCplt(DMA_HandleTypeDef *hdma);
 271:Drivers/STM32F4xx_HAL_Driver/Src/stm32f4xx_hal_adc.c **** static void ADC_DMAError(DMA_HandleTypeDef *hdma);
 272:Drivers/STM32F4xx_HAL_Driver/Src/stm32f4xx_hal_adc.c **** static void ADC_DMAHalfConvCplt(DMA_HandleTypeDef *hdma);
 273:Drivers/STM32F4xx_HAL_Driver/Src/stm32f4xx_hal_adc.c **** /**
 274:Drivers/STM32F4xx_HAL_Driver/Src/stm32f4xx_hal_adc.c ****   * @}
 275:Drivers/STM32F4xx_HAL_Driver/Src/stm32f4xx_hal_adc.c ****   */
 276:Drivers/STM32F4xx_HAL_Driver/Src/stm32f4xx_hal_adc.c **** /* Exported functions --------------------------------------------------------*/
 277:Drivers/STM32F4xx_HAL_Driver/Src/stm32f4xx_hal_adc.c **** /** @defgroup ADC_Exported_Functions ADC Exported Functions
 278:Drivers/STM32F4xx_HAL_Driver/Src/stm32f4xx_hal_adc.c ****   * @{
 279:Drivers/STM32F4xx_HAL_Driver/Src/stm32f4xx_hal_adc.c ****   */
 280:Drivers/STM32F4xx_HAL_Driver/Src/stm32f4xx_hal_adc.c **** 
 281:Drivers/STM32F4xx_HAL_Driver/Src/stm32f4xx_hal_adc.c **** /** @defgroup ADC_Exported_Functions_Group1 Initialization and de-initialization functions
 282:Drivers/STM32F4xx_HAL_Driver/Src/stm32f4xx_hal_adc.c ****  *  @brief    Initialization and Configuration functions
 283:Drivers/STM32F4xx_HAL_Driver/Src/stm32f4xx_hal_adc.c ****  *
 284:Drivers/STM32F4xx_HAL_Driver/Src/stm32f4xx_hal_adc.c **** @verbatim
 285:Drivers/STM32F4xx_HAL_Driver/Src/stm32f4xx_hal_adc.c ****  ===============================================================================
 286:Drivers/STM32F4xx_HAL_Driver/Src/stm32f4xx_hal_adc.c ****               ##### Initialization and de-initialization functions #####
 287:Drivers/STM32F4xx_HAL_Driver/Src/stm32f4xx_hal_adc.c ****  ===============================================================================
 288:Drivers/STM32F4xx_HAL_Driver/Src/stm32f4xx_hal_adc.c ****     [..]  This section provides functions allowing to:
 289:Drivers/STM32F4xx_HAL_Driver/Src/stm32f4xx_hal_adc.c ****       (+) Initialize and configure the ADC.
 290:Drivers/STM32F4xx_HAL_Driver/Src/stm32f4xx_hal_adc.c ****       (+) De-initialize the ADC.
 291:Drivers/STM32F4xx_HAL_Driver/Src/stm32f4xx_hal_adc.c **** 
 292:Drivers/STM32F4xx_HAL_Driver/Src/stm32f4xx_hal_adc.c **** @endverbatim
 293:Drivers/STM32F4xx_HAL_Driver/Src/stm32f4xx_hal_adc.c ****   * @{
 294:Drivers/STM32F4xx_HAL_Driver/Src/stm32f4xx_hal_adc.c ****   */
 295:Drivers/STM32F4xx_HAL_Driver/Src/stm32f4xx_hal_adc.c **** 
 296:Drivers/STM32F4xx_HAL_Driver/Src/stm32f4xx_hal_adc.c **** /**
 297:Drivers/STM32F4xx_HAL_Driver/Src/stm32f4xx_hal_adc.c ****   * @brief  Initializes the ADCx peripheral according to the specified parameters
 298:Drivers/STM32F4xx_HAL_Driver/Src/stm32f4xx_hal_adc.c ****   *         in the ADC_InitStruct and initializes the ADC MSP.
 299:Drivers/STM32F4xx_HAL_Driver/Src/stm32f4xx_hal_adc.c ****   *
 300:Drivers/STM32F4xx_HAL_Driver/Src/stm32f4xx_hal_adc.c ****   * @note   This function is used to configure the global features of the ADC (
 301:Drivers/STM32F4xx_HAL_Driver/Src/stm32f4xx_hal_adc.c ****   *         ClockPrescaler, Resolution, Data Alignment and number of conversion), however,
 302:Drivers/STM32F4xx_HAL_Driver/Src/stm32f4xx_hal_adc.c ****   *         the rest of the configuration parameters are specific to the regular
 303:Drivers/STM32F4xx_HAL_Driver/Src/stm32f4xx_hal_adc.c ****   *         channels group (scan mode activation, continuous mode activation,
 304:Drivers/STM32F4xx_HAL_Driver/Src/stm32f4xx_hal_adc.c ****   *         External trigger source and edge, DMA continuous request after the
 305:Drivers/STM32F4xx_HAL_Driver/Src/stm32f4xx_hal_adc.c ****   *         last transfer and End of conversion selection).
 306:Drivers/STM32F4xx_HAL_Driver/Src/stm32f4xx_hal_adc.c ****   *
 307:Drivers/STM32F4xx_HAL_Driver/Src/stm32f4xx_hal_adc.c ****   * @param  hadc pointer to a ADC_HandleTypeDef structure that contains
 308:Drivers/STM32F4xx_HAL_Driver/Src/stm32f4xx_hal_adc.c ****   *         the configuration information for the specified ADC.
 309:Drivers/STM32F4xx_HAL_Driver/Src/stm32f4xx_hal_adc.c ****   * @retval HAL status
 310:Drivers/STM32F4xx_HAL_Driver/Src/stm32f4xx_hal_adc.c ****   */
 311:Drivers/STM32F4xx_HAL_Driver/Src/stm32f4xx_hal_adc.c **** HAL_StatusTypeDef HAL_ADC_Init(ADC_HandleTypeDef *hadc)
 312:Drivers/STM32F4xx_HAL_Driver/Src/stm32f4xx_hal_adc.c **** {
  29              		.loc 1 312 1
  30              		.cfi_startproc
  31              		@ args = 0, pretend = 0, frame = 16
ARM GAS  C:\Users\Halil\AppData\Local\Temp\cc7e4Lrl.s 			page 7


  32              		@ frame_needed = 1, uses_anonymous_args = 0
  33 0000 80B5     		push	{r7, lr}
  34              		.cfi_def_cfa_offset 8
  35              		.cfi_offset 7, -8
  36              		.cfi_offset 14, -4
  37 0002 84B0     		sub	sp, sp, #16
  38              		.cfi_def_cfa_offset 24
  39 0004 00AF     		add	r7, sp, #0
  40              		.cfi_def_cfa_register 7
  41 0006 7860     		str	r0, [r7, #4]
 313:Drivers/STM32F4xx_HAL_Driver/Src/stm32f4xx_hal_adc.c ****   HAL_StatusTypeDef tmp_hal_status = HAL_OK;
  42              		.loc 1 313 21
  43 0008 0023     		movs	r3, #0
  44 000a FB73     		strb	r3, [r7, #15]
 314:Drivers/STM32F4xx_HAL_Driver/Src/stm32f4xx_hal_adc.c **** 
 315:Drivers/STM32F4xx_HAL_Driver/Src/stm32f4xx_hal_adc.c ****   /* Check ADC handle */
 316:Drivers/STM32F4xx_HAL_Driver/Src/stm32f4xx_hal_adc.c ****   if (hadc == NULL)
  45              		.loc 1 316 6
  46 000c 7B68     		ldr	r3, [r7, #4]
  47 000e 002B     		cmp	r3, #0
  48 0010 01D1     		bne	.L2
 317:Drivers/STM32F4xx_HAL_Driver/Src/stm32f4xx_hal_adc.c ****   {
 318:Drivers/STM32F4xx_HAL_Driver/Src/stm32f4xx_hal_adc.c ****     return HAL_ERROR;
  49              		.loc 1 318 12
  50 0012 0123     		movs	r3, #1
  51 0014 33E0     		b	.L3
  52              	.L2:
 319:Drivers/STM32F4xx_HAL_Driver/Src/stm32f4xx_hal_adc.c ****   }
 320:Drivers/STM32F4xx_HAL_Driver/Src/stm32f4xx_hal_adc.c **** 
 321:Drivers/STM32F4xx_HAL_Driver/Src/stm32f4xx_hal_adc.c ****   /* Check the parameters */
 322:Drivers/STM32F4xx_HAL_Driver/Src/stm32f4xx_hal_adc.c ****   assert_param(IS_ADC_ALL_INSTANCE(hadc->Instance));
 323:Drivers/STM32F4xx_HAL_Driver/Src/stm32f4xx_hal_adc.c ****   assert_param(IS_ADC_CLOCKPRESCALER(hadc->Init.ClockPrescaler));
 324:Drivers/STM32F4xx_HAL_Driver/Src/stm32f4xx_hal_adc.c ****   assert_param(IS_ADC_RESOLUTION(hadc->Init.Resolution));
 325:Drivers/STM32F4xx_HAL_Driver/Src/stm32f4xx_hal_adc.c ****   assert_param(IS_FUNCTIONAL_STATE(hadc->Init.ScanConvMode));
 326:Drivers/STM32F4xx_HAL_Driver/Src/stm32f4xx_hal_adc.c ****   assert_param(IS_FUNCTIONAL_STATE(hadc->Init.ContinuousConvMode));
 327:Drivers/STM32F4xx_HAL_Driver/Src/stm32f4xx_hal_adc.c ****   assert_param(IS_ADC_EXT_TRIG(hadc->Init.ExternalTrigConv));
 328:Drivers/STM32F4xx_HAL_Driver/Src/stm32f4xx_hal_adc.c ****   assert_param(IS_ADC_DATA_ALIGN(hadc->Init.DataAlign));
 329:Drivers/STM32F4xx_HAL_Driver/Src/stm32f4xx_hal_adc.c ****   assert_param(IS_ADC_REGULAR_LENGTH(hadc->Init.NbrOfConversion));
 330:Drivers/STM32F4xx_HAL_Driver/Src/stm32f4xx_hal_adc.c ****   assert_param(IS_FUNCTIONAL_STATE(hadc->Init.DMAContinuousRequests));
 331:Drivers/STM32F4xx_HAL_Driver/Src/stm32f4xx_hal_adc.c ****   assert_param(IS_ADC_EOCSelection(hadc->Init.EOCSelection));
 332:Drivers/STM32F4xx_HAL_Driver/Src/stm32f4xx_hal_adc.c ****   assert_param(IS_FUNCTIONAL_STATE(hadc->Init.DiscontinuousConvMode));
 333:Drivers/STM32F4xx_HAL_Driver/Src/stm32f4xx_hal_adc.c **** 
 334:Drivers/STM32F4xx_HAL_Driver/Src/stm32f4xx_hal_adc.c ****   if (hadc->Init.ExternalTrigConv != ADC_SOFTWARE_START)
 335:Drivers/STM32F4xx_HAL_Driver/Src/stm32f4xx_hal_adc.c ****   {
 336:Drivers/STM32F4xx_HAL_Driver/Src/stm32f4xx_hal_adc.c ****     assert_param(IS_ADC_EXT_TRIG_EDGE(hadc->Init.ExternalTrigConvEdge));
 337:Drivers/STM32F4xx_HAL_Driver/Src/stm32f4xx_hal_adc.c ****   }
 338:Drivers/STM32F4xx_HAL_Driver/Src/stm32f4xx_hal_adc.c **** 
 339:Drivers/STM32F4xx_HAL_Driver/Src/stm32f4xx_hal_adc.c ****   if (hadc->State == HAL_ADC_STATE_RESET)
  53              		.loc 1 339 11
  54 0016 7B68     		ldr	r3, [r7, #4]
  55 0018 1B6C     		ldr	r3, [r3, #64]
  56              		.loc 1 339 6
  57 001a 002B     		cmp	r3, #0
  58 001c 09D1     		bne	.L4
 340:Drivers/STM32F4xx_HAL_Driver/Src/stm32f4xx_hal_adc.c ****   {
 341:Drivers/STM32F4xx_HAL_Driver/Src/stm32f4xx_hal_adc.c **** #if (USE_HAL_ADC_REGISTER_CALLBACKS == 1)
 342:Drivers/STM32F4xx_HAL_Driver/Src/stm32f4xx_hal_adc.c ****     /* Init the ADC Callback settings */
ARM GAS  C:\Users\Halil\AppData\Local\Temp\cc7e4Lrl.s 			page 8


 343:Drivers/STM32F4xx_HAL_Driver/Src/stm32f4xx_hal_adc.c ****     hadc->ConvCpltCallback              = HAL_ADC_ConvCpltCallback;                 /* Legacy weak 
 344:Drivers/STM32F4xx_HAL_Driver/Src/stm32f4xx_hal_adc.c ****     hadc->ConvHalfCpltCallback          = HAL_ADC_ConvHalfCpltCallback;             /* Legacy weak 
 345:Drivers/STM32F4xx_HAL_Driver/Src/stm32f4xx_hal_adc.c ****     hadc->LevelOutOfWindowCallback      = HAL_ADC_LevelOutOfWindowCallback;         /* Legacy weak 
 346:Drivers/STM32F4xx_HAL_Driver/Src/stm32f4xx_hal_adc.c ****     hadc->ErrorCallback                 = HAL_ADC_ErrorCallback;                    /* Legacy weak 
 347:Drivers/STM32F4xx_HAL_Driver/Src/stm32f4xx_hal_adc.c ****     hadc->InjectedConvCpltCallback      = HAL_ADCEx_InjectedConvCpltCallback;       /* Legacy weak 
 348:Drivers/STM32F4xx_HAL_Driver/Src/stm32f4xx_hal_adc.c ****     if (hadc->MspInitCallback == NULL)
 349:Drivers/STM32F4xx_HAL_Driver/Src/stm32f4xx_hal_adc.c ****     {
 350:Drivers/STM32F4xx_HAL_Driver/Src/stm32f4xx_hal_adc.c ****       hadc->MspInitCallback = HAL_ADC_MspInit; /* Legacy weak MspInit  */
 351:Drivers/STM32F4xx_HAL_Driver/Src/stm32f4xx_hal_adc.c ****     }
 352:Drivers/STM32F4xx_HAL_Driver/Src/stm32f4xx_hal_adc.c **** 
 353:Drivers/STM32F4xx_HAL_Driver/Src/stm32f4xx_hal_adc.c ****     /* Init the low level hardware */
 354:Drivers/STM32F4xx_HAL_Driver/Src/stm32f4xx_hal_adc.c ****     hadc->MspInitCallback(hadc);
 355:Drivers/STM32F4xx_HAL_Driver/Src/stm32f4xx_hal_adc.c **** #else
 356:Drivers/STM32F4xx_HAL_Driver/Src/stm32f4xx_hal_adc.c ****     /* Init the low level hardware */
 357:Drivers/STM32F4xx_HAL_Driver/Src/stm32f4xx_hal_adc.c ****     HAL_ADC_MspInit(hadc);
  59              		.loc 1 357 5
  60 001e 7868     		ldr	r0, [r7, #4]
  61 0020 FFF7FEFF 		bl	HAL_ADC_MspInit
 358:Drivers/STM32F4xx_HAL_Driver/Src/stm32f4xx_hal_adc.c **** #endif /* USE_HAL_ADC_REGISTER_CALLBACKS */
 359:Drivers/STM32F4xx_HAL_Driver/Src/stm32f4xx_hal_adc.c **** 
 360:Drivers/STM32F4xx_HAL_Driver/Src/stm32f4xx_hal_adc.c ****     /* Initialize ADC error code */
 361:Drivers/STM32F4xx_HAL_Driver/Src/stm32f4xx_hal_adc.c ****     ADC_CLEAR_ERRORCODE(hadc);
  62              		.loc 1 361 5
  63 0024 7B68     		ldr	r3, [r7, #4]
  64 0026 0022     		movs	r2, #0
  65 0028 5A64     		str	r2, [r3, #68]
 362:Drivers/STM32F4xx_HAL_Driver/Src/stm32f4xx_hal_adc.c **** 
 363:Drivers/STM32F4xx_HAL_Driver/Src/stm32f4xx_hal_adc.c ****     /* Allocate lock resource and initialize it */
 364:Drivers/STM32F4xx_HAL_Driver/Src/stm32f4xx_hal_adc.c ****     hadc->Lock = HAL_UNLOCKED;
  66              		.loc 1 364 16
  67 002a 7B68     		ldr	r3, [r7, #4]
  68 002c 0022     		movs	r2, #0
  69 002e 83F83C20 		strb	r2, [r3, #60]
  70              	.L4:
 365:Drivers/STM32F4xx_HAL_Driver/Src/stm32f4xx_hal_adc.c ****   }
 366:Drivers/STM32F4xx_HAL_Driver/Src/stm32f4xx_hal_adc.c **** 
 367:Drivers/STM32F4xx_HAL_Driver/Src/stm32f4xx_hal_adc.c ****   /* Configuration of ADC parameters if previous preliminary actions are      */
 368:Drivers/STM32F4xx_HAL_Driver/Src/stm32f4xx_hal_adc.c ****   /* correctly completed.                                                     */
 369:Drivers/STM32F4xx_HAL_Driver/Src/stm32f4xx_hal_adc.c ****   if (HAL_IS_BIT_CLR(hadc->State, HAL_ADC_STATE_ERROR_INTERNAL))
  71              		.loc 1 369 7
  72 0032 7B68     		ldr	r3, [r7, #4]
  73 0034 1B6C     		ldr	r3, [r3, #64]
  74 0036 03F01003 		and	r3, r3, #16
  75              		.loc 1 369 6
  76 003a 002B     		cmp	r3, #0
  77 003c 18D1     		bne	.L5
 370:Drivers/STM32F4xx_HAL_Driver/Src/stm32f4xx_hal_adc.c ****   {
 371:Drivers/STM32F4xx_HAL_Driver/Src/stm32f4xx_hal_adc.c ****     /* Set ADC state */
 372:Drivers/STM32F4xx_HAL_Driver/Src/stm32f4xx_hal_adc.c ****     ADC_STATE_CLR_SET(hadc->State,
  78              		.loc 1 372 5
  79 003e 7B68     		ldr	r3, [r7, #4]
  80 0040 1B6C     		ldr	r3, [r3, #64]
  81 0042 23F48853 		bic	r3, r3, #4352
  82 0046 23F00203 		bic	r3, r3, #2
  83 004a 43F00202 		orr	r2, r3, #2
  84 004e 7B68     		ldr	r3, [r7, #4]
  85 0050 1A64     		str	r2, [r3, #64]
ARM GAS  C:\Users\Halil\AppData\Local\Temp\cc7e4Lrl.s 			page 9


 373:Drivers/STM32F4xx_HAL_Driver/Src/stm32f4xx_hal_adc.c ****                       HAL_ADC_STATE_REG_BUSY | HAL_ADC_STATE_INJ_BUSY,
 374:Drivers/STM32F4xx_HAL_Driver/Src/stm32f4xx_hal_adc.c ****                       HAL_ADC_STATE_BUSY_INTERNAL);
 375:Drivers/STM32F4xx_HAL_Driver/Src/stm32f4xx_hal_adc.c **** 
 376:Drivers/STM32F4xx_HAL_Driver/Src/stm32f4xx_hal_adc.c ****     /* Set ADC parameters */
 377:Drivers/STM32F4xx_HAL_Driver/Src/stm32f4xx_hal_adc.c ****     ADC_Init(hadc);
  86              		.loc 1 377 5
  87 0052 7868     		ldr	r0, [r7, #4]
  88 0054 FFF7FEFF 		bl	ADC_Init
 378:Drivers/STM32F4xx_HAL_Driver/Src/stm32f4xx_hal_adc.c **** 
 379:Drivers/STM32F4xx_HAL_Driver/Src/stm32f4xx_hal_adc.c ****     /* Set ADC error code to none */
 380:Drivers/STM32F4xx_HAL_Driver/Src/stm32f4xx_hal_adc.c ****     ADC_CLEAR_ERRORCODE(hadc);
  89              		.loc 1 380 5
  90 0058 7B68     		ldr	r3, [r7, #4]
  91 005a 0022     		movs	r2, #0
  92 005c 5A64     		str	r2, [r3, #68]
 381:Drivers/STM32F4xx_HAL_Driver/Src/stm32f4xx_hal_adc.c **** 
 382:Drivers/STM32F4xx_HAL_Driver/Src/stm32f4xx_hal_adc.c ****     /* Set the ADC state */
 383:Drivers/STM32F4xx_HAL_Driver/Src/stm32f4xx_hal_adc.c ****     ADC_STATE_CLR_SET(hadc->State,
  93              		.loc 1 383 5
  94 005e 7B68     		ldr	r3, [r7, #4]
  95 0060 1B6C     		ldr	r3, [r3, #64]
  96 0062 23F00303 		bic	r3, r3, #3
  97 0066 43F00102 		orr	r2, r3, #1
  98 006a 7B68     		ldr	r3, [r7, #4]
  99 006c 1A64     		str	r2, [r3, #64]
 100 006e 01E0     		b	.L6
 101              	.L5:
 384:Drivers/STM32F4xx_HAL_Driver/Src/stm32f4xx_hal_adc.c ****                       HAL_ADC_STATE_BUSY_INTERNAL,
 385:Drivers/STM32F4xx_HAL_Driver/Src/stm32f4xx_hal_adc.c ****                       HAL_ADC_STATE_READY);
 386:Drivers/STM32F4xx_HAL_Driver/Src/stm32f4xx_hal_adc.c ****   }
 387:Drivers/STM32F4xx_HAL_Driver/Src/stm32f4xx_hal_adc.c ****   else
 388:Drivers/STM32F4xx_HAL_Driver/Src/stm32f4xx_hal_adc.c ****   {
 389:Drivers/STM32F4xx_HAL_Driver/Src/stm32f4xx_hal_adc.c ****     tmp_hal_status = HAL_ERROR;
 102              		.loc 1 389 20
 103 0070 0123     		movs	r3, #1
 104 0072 FB73     		strb	r3, [r7, #15]
 105              	.L6:
 390:Drivers/STM32F4xx_HAL_Driver/Src/stm32f4xx_hal_adc.c ****   }
 391:Drivers/STM32F4xx_HAL_Driver/Src/stm32f4xx_hal_adc.c **** 
 392:Drivers/STM32F4xx_HAL_Driver/Src/stm32f4xx_hal_adc.c ****   /* Release Lock */
 393:Drivers/STM32F4xx_HAL_Driver/Src/stm32f4xx_hal_adc.c ****   __HAL_UNLOCK(hadc);
 106              		.loc 1 393 3
 107 0074 7B68     		ldr	r3, [r7, #4]
 108 0076 0022     		movs	r2, #0
 109 0078 83F83C20 		strb	r2, [r3, #60]
 394:Drivers/STM32F4xx_HAL_Driver/Src/stm32f4xx_hal_adc.c **** 
 395:Drivers/STM32F4xx_HAL_Driver/Src/stm32f4xx_hal_adc.c ****   /* Return function status */
 396:Drivers/STM32F4xx_HAL_Driver/Src/stm32f4xx_hal_adc.c ****   return tmp_hal_status;
 110              		.loc 1 396 10
 111 007c FB7B     		ldrb	r3, [r7, #15]	@ zero_extendqisi2
 112              	.L3:
 397:Drivers/STM32F4xx_HAL_Driver/Src/stm32f4xx_hal_adc.c **** }
 113              		.loc 1 397 1
 114 007e 1846     		mov	r0, r3
 115 0080 1037     		adds	r7, r7, #16
 116              		.cfi_def_cfa_offset 8
 117 0082 BD46     		mov	sp, r7
ARM GAS  C:\Users\Halil\AppData\Local\Temp\cc7e4Lrl.s 			page 10


 118              		.cfi_def_cfa_register 13
 119              		@ sp needed
 120 0084 80BD     		pop	{r7, pc}
 121              		.cfi_endproc
 122              	.LFE239:
 124              		.section	.text.HAL_ADC_DeInit,"ax",%progbits
 125              		.align	1
 126              		.global	HAL_ADC_DeInit
 127              		.syntax unified
 128              		.thumb
 129              		.thumb_func
 131              	HAL_ADC_DeInit:
 132              	.LFB240:
 398:Drivers/STM32F4xx_HAL_Driver/Src/stm32f4xx_hal_adc.c **** 
 399:Drivers/STM32F4xx_HAL_Driver/Src/stm32f4xx_hal_adc.c **** /**
 400:Drivers/STM32F4xx_HAL_Driver/Src/stm32f4xx_hal_adc.c ****   * @brief  Deinitializes the ADCx peripheral registers to their default reset values.
 401:Drivers/STM32F4xx_HAL_Driver/Src/stm32f4xx_hal_adc.c ****   * @param  hadc pointer to a ADC_HandleTypeDef structure that contains
 402:Drivers/STM32F4xx_HAL_Driver/Src/stm32f4xx_hal_adc.c ****   *         the configuration information for the specified ADC.
 403:Drivers/STM32F4xx_HAL_Driver/Src/stm32f4xx_hal_adc.c ****   * @retval HAL status
 404:Drivers/STM32F4xx_HAL_Driver/Src/stm32f4xx_hal_adc.c ****   */
 405:Drivers/STM32F4xx_HAL_Driver/Src/stm32f4xx_hal_adc.c **** HAL_StatusTypeDef HAL_ADC_DeInit(ADC_HandleTypeDef *hadc)
 406:Drivers/STM32F4xx_HAL_Driver/Src/stm32f4xx_hal_adc.c **** {
 133              		.loc 1 406 1
 134              		.cfi_startproc
 135              		@ args = 0, pretend = 0, frame = 16
 136              		@ frame_needed = 1, uses_anonymous_args = 0
 137 0000 80B5     		push	{r7, lr}
 138              		.cfi_def_cfa_offset 8
 139              		.cfi_offset 7, -8
 140              		.cfi_offset 14, -4
 141 0002 84B0     		sub	sp, sp, #16
 142              		.cfi_def_cfa_offset 24
 143 0004 00AF     		add	r7, sp, #0
 144              		.cfi_def_cfa_register 7
 145 0006 7860     		str	r0, [r7, #4]
 407:Drivers/STM32F4xx_HAL_Driver/Src/stm32f4xx_hal_adc.c ****   HAL_StatusTypeDef tmp_hal_status = HAL_OK;
 146              		.loc 1 407 21
 147 0008 0023     		movs	r3, #0
 148 000a FB73     		strb	r3, [r7, #15]
 408:Drivers/STM32F4xx_HAL_Driver/Src/stm32f4xx_hal_adc.c **** 
 409:Drivers/STM32F4xx_HAL_Driver/Src/stm32f4xx_hal_adc.c ****   /* Check ADC handle */
 410:Drivers/STM32F4xx_HAL_Driver/Src/stm32f4xx_hal_adc.c ****   if (hadc == NULL)
 149              		.loc 1 410 6
 150 000c 7B68     		ldr	r3, [r7, #4]
 151 000e 002B     		cmp	r3, #0
 152 0010 01D1     		bne	.L8
 411:Drivers/STM32F4xx_HAL_Driver/Src/stm32f4xx_hal_adc.c ****   {
 412:Drivers/STM32F4xx_HAL_Driver/Src/stm32f4xx_hal_adc.c ****     return HAL_ERROR;
 153              		.loc 1 412 12
 154 0012 0123     		movs	r3, #1
 155 0014 22E0     		b	.L9
 156              	.L8:
 413:Drivers/STM32F4xx_HAL_Driver/Src/stm32f4xx_hal_adc.c ****   }
 414:Drivers/STM32F4xx_HAL_Driver/Src/stm32f4xx_hal_adc.c **** 
 415:Drivers/STM32F4xx_HAL_Driver/Src/stm32f4xx_hal_adc.c ****   /* Check the parameters */
 416:Drivers/STM32F4xx_HAL_Driver/Src/stm32f4xx_hal_adc.c ****   assert_param(IS_ADC_ALL_INSTANCE(hadc->Instance));
 417:Drivers/STM32F4xx_HAL_Driver/Src/stm32f4xx_hal_adc.c **** 
ARM GAS  C:\Users\Halil\AppData\Local\Temp\cc7e4Lrl.s 			page 11


 418:Drivers/STM32F4xx_HAL_Driver/Src/stm32f4xx_hal_adc.c ****   /* Set ADC state */
 419:Drivers/STM32F4xx_HAL_Driver/Src/stm32f4xx_hal_adc.c ****   SET_BIT(hadc->State, HAL_ADC_STATE_BUSY_INTERNAL);
 157              		.loc 1 419 3
 158 0016 7B68     		ldr	r3, [r7, #4]
 159 0018 1B6C     		ldr	r3, [r3, #64]
 160 001a 43F00202 		orr	r2, r3, #2
 161 001e 7B68     		ldr	r3, [r7, #4]
 162 0020 1A64     		str	r2, [r3, #64]
 420:Drivers/STM32F4xx_HAL_Driver/Src/stm32f4xx_hal_adc.c **** 
 421:Drivers/STM32F4xx_HAL_Driver/Src/stm32f4xx_hal_adc.c ****   /* Stop potential conversion on going, on regular and injected groups */
 422:Drivers/STM32F4xx_HAL_Driver/Src/stm32f4xx_hal_adc.c ****   /* Disable ADC peripheral */
 423:Drivers/STM32F4xx_HAL_Driver/Src/stm32f4xx_hal_adc.c ****   __HAL_ADC_DISABLE(hadc);
 163              		.loc 1 423 3
 164 0022 7B68     		ldr	r3, [r7, #4]
 165 0024 1B68     		ldr	r3, [r3]
 166 0026 9A68     		ldr	r2, [r3, #8]
 167 0028 7B68     		ldr	r3, [r7, #4]
 168 002a 1B68     		ldr	r3, [r3]
 169 002c 22F00102 		bic	r2, r2, #1
 170 0030 9A60     		str	r2, [r3, #8]
 424:Drivers/STM32F4xx_HAL_Driver/Src/stm32f4xx_hal_adc.c **** 
 425:Drivers/STM32F4xx_HAL_Driver/Src/stm32f4xx_hal_adc.c ****   /* Configuration of ADC parameters if previous preliminary actions are      */
 426:Drivers/STM32F4xx_HAL_Driver/Src/stm32f4xx_hal_adc.c ****   /* correctly completed.                                                     */
 427:Drivers/STM32F4xx_HAL_Driver/Src/stm32f4xx_hal_adc.c ****   if (HAL_IS_BIT_CLR(hadc->Instance->CR2, ADC_CR2_ADON))
 171              		.loc 1 427 7
 172 0032 7B68     		ldr	r3, [r7, #4]
 173 0034 1B68     		ldr	r3, [r3]
 174 0036 9B68     		ldr	r3, [r3, #8]
 175 0038 03F00103 		and	r3, r3, #1
 176              		.loc 1 427 6
 177 003c 002B     		cmp	r3, #0
 178 003e 08D1     		bne	.L10
 428:Drivers/STM32F4xx_HAL_Driver/Src/stm32f4xx_hal_adc.c ****   {
 429:Drivers/STM32F4xx_HAL_Driver/Src/stm32f4xx_hal_adc.c **** #if (USE_HAL_ADC_REGISTER_CALLBACKS == 1)
 430:Drivers/STM32F4xx_HAL_Driver/Src/stm32f4xx_hal_adc.c ****     if (hadc->MspDeInitCallback == NULL)
 431:Drivers/STM32F4xx_HAL_Driver/Src/stm32f4xx_hal_adc.c ****     {
 432:Drivers/STM32F4xx_HAL_Driver/Src/stm32f4xx_hal_adc.c ****       hadc->MspDeInitCallback = HAL_ADC_MspDeInit; /* Legacy weak MspDeInit  */
 433:Drivers/STM32F4xx_HAL_Driver/Src/stm32f4xx_hal_adc.c ****     }
 434:Drivers/STM32F4xx_HAL_Driver/Src/stm32f4xx_hal_adc.c **** 
 435:Drivers/STM32F4xx_HAL_Driver/Src/stm32f4xx_hal_adc.c ****     /* DeInit the low level hardware: RCC clock, NVIC */
 436:Drivers/STM32F4xx_HAL_Driver/Src/stm32f4xx_hal_adc.c ****     hadc->MspDeInitCallback(hadc);
 437:Drivers/STM32F4xx_HAL_Driver/Src/stm32f4xx_hal_adc.c **** #else
 438:Drivers/STM32F4xx_HAL_Driver/Src/stm32f4xx_hal_adc.c ****     /* DeInit the low level hardware: RCC clock, NVIC */
 439:Drivers/STM32F4xx_HAL_Driver/Src/stm32f4xx_hal_adc.c ****     HAL_ADC_MspDeInit(hadc);
 179              		.loc 1 439 5
 180 0040 7868     		ldr	r0, [r7, #4]
 181 0042 FFF7FEFF 		bl	HAL_ADC_MspDeInit
 440:Drivers/STM32F4xx_HAL_Driver/Src/stm32f4xx_hal_adc.c **** #endif /* USE_HAL_ADC_REGISTER_CALLBACKS */
 441:Drivers/STM32F4xx_HAL_Driver/Src/stm32f4xx_hal_adc.c **** 
 442:Drivers/STM32F4xx_HAL_Driver/Src/stm32f4xx_hal_adc.c ****     /* Set ADC error code to none */
 443:Drivers/STM32F4xx_HAL_Driver/Src/stm32f4xx_hal_adc.c ****     ADC_CLEAR_ERRORCODE(hadc);
 182              		.loc 1 443 5
 183 0046 7B68     		ldr	r3, [r7, #4]
 184 0048 0022     		movs	r2, #0
 185 004a 5A64     		str	r2, [r3, #68]
 444:Drivers/STM32F4xx_HAL_Driver/Src/stm32f4xx_hal_adc.c **** 
 445:Drivers/STM32F4xx_HAL_Driver/Src/stm32f4xx_hal_adc.c ****     /* Set ADC state */
ARM GAS  C:\Users\Halil\AppData\Local\Temp\cc7e4Lrl.s 			page 12


 446:Drivers/STM32F4xx_HAL_Driver/Src/stm32f4xx_hal_adc.c ****     hadc->State = HAL_ADC_STATE_RESET;
 186              		.loc 1 446 17
 187 004c 7B68     		ldr	r3, [r7, #4]
 188 004e 0022     		movs	r2, #0
 189 0050 1A64     		str	r2, [r3, #64]
 190              	.L10:
 447:Drivers/STM32F4xx_HAL_Driver/Src/stm32f4xx_hal_adc.c ****   }
 448:Drivers/STM32F4xx_HAL_Driver/Src/stm32f4xx_hal_adc.c **** 
 449:Drivers/STM32F4xx_HAL_Driver/Src/stm32f4xx_hal_adc.c ****   /* Process unlocked */
 450:Drivers/STM32F4xx_HAL_Driver/Src/stm32f4xx_hal_adc.c ****   __HAL_UNLOCK(hadc);
 191              		.loc 1 450 3
 192 0052 7B68     		ldr	r3, [r7, #4]
 193 0054 0022     		movs	r2, #0
 194 0056 83F83C20 		strb	r2, [r3, #60]
 451:Drivers/STM32F4xx_HAL_Driver/Src/stm32f4xx_hal_adc.c **** 
 452:Drivers/STM32F4xx_HAL_Driver/Src/stm32f4xx_hal_adc.c ****   /* Return function status */
 453:Drivers/STM32F4xx_HAL_Driver/Src/stm32f4xx_hal_adc.c ****   return tmp_hal_status;
 195              		.loc 1 453 10
 196 005a FB7B     		ldrb	r3, [r7, #15]	@ zero_extendqisi2
 197              	.L9:
 454:Drivers/STM32F4xx_HAL_Driver/Src/stm32f4xx_hal_adc.c **** }
 198              		.loc 1 454 1
 199 005c 1846     		mov	r0, r3
 200 005e 1037     		adds	r7, r7, #16
 201              		.cfi_def_cfa_offset 8
 202 0060 BD46     		mov	sp, r7
 203              		.cfi_def_cfa_register 13
 204              		@ sp needed
 205 0062 80BD     		pop	{r7, pc}
 206              		.cfi_endproc
 207              	.LFE240:
 209              		.section	.text.HAL_ADC_MspInit,"ax",%progbits
 210              		.align	1
 211              		.weak	HAL_ADC_MspInit
 212              		.syntax unified
 213              		.thumb
 214              		.thumb_func
 216              	HAL_ADC_MspInit:
 217              	.LFB241:
 455:Drivers/STM32F4xx_HAL_Driver/Src/stm32f4xx_hal_adc.c **** 
 456:Drivers/STM32F4xx_HAL_Driver/Src/stm32f4xx_hal_adc.c **** #if (USE_HAL_ADC_REGISTER_CALLBACKS == 1)
 457:Drivers/STM32F4xx_HAL_Driver/Src/stm32f4xx_hal_adc.c **** /**
 458:Drivers/STM32F4xx_HAL_Driver/Src/stm32f4xx_hal_adc.c ****   * @brief  Register a User ADC Callback
 459:Drivers/STM32F4xx_HAL_Driver/Src/stm32f4xx_hal_adc.c ****   *         To be used instead of the weak predefined callback
 460:Drivers/STM32F4xx_HAL_Driver/Src/stm32f4xx_hal_adc.c ****   * @param  hadc Pointer to a ADC_HandleTypeDef structure that contains
 461:Drivers/STM32F4xx_HAL_Driver/Src/stm32f4xx_hal_adc.c ****   *                the configuration information for the specified ADC.
 462:Drivers/STM32F4xx_HAL_Driver/Src/stm32f4xx_hal_adc.c ****   * @param  CallbackID ID of the callback to be registered
 463:Drivers/STM32F4xx_HAL_Driver/Src/stm32f4xx_hal_adc.c ****   *         This parameter can be one of the following values:
 464:Drivers/STM32F4xx_HAL_Driver/Src/stm32f4xx_hal_adc.c ****   *          @arg @ref HAL_ADC_CONVERSION_COMPLETE_CB_ID      ADC conversion complete callback ID
 465:Drivers/STM32F4xx_HAL_Driver/Src/stm32f4xx_hal_adc.c ****   *          @arg @ref HAL_ADC_CONVERSION_HALF_CB_ID          ADC conversion DMA half-transfer call
 466:Drivers/STM32F4xx_HAL_Driver/Src/stm32f4xx_hal_adc.c ****   *          @arg @ref HAL_ADC_LEVEL_OUT_OF_WINDOW_1_CB_ID    ADC analog watchdog 1 callback ID
 467:Drivers/STM32F4xx_HAL_Driver/Src/stm32f4xx_hal_adc.c ****   *          @arg @ref HAL_ADC_ERROR_CB_ID                    ADC error callback ID
 468:Drivers/STM32F4xx_HAL_Driver/Src/stm32f4xx_hal_adc.c ****   *          @arg @ref HAL_ADC_INJ_CONVERSION_COMPLETE_CB_ID  ADC group injected conversion complet
 469:Drivers/STM32F4xx_HAL_Driver/Src/stm32f4xx_hal_adc.c ****   *          @arg @ref HAL_ADC_MSPINIT_CB_ID                  ADC Msp Init callback ID
 470:Drivers/STM32F4xx_HAL_Driver/Src/stm32f4xx_hal_adc.c ****   *          @arg @ref HAL_ADC_MSPDEINIT_CB_ID                ADC Msp DeInit callback ID
 471:Drivers/STM32F4xx_HAL_Driver/Src/stm32f4xx_hal_adc.c ****   * @param  pCallback pointer to the Callback function
 472:Drivers/STM32F4xx_HAL_Driver/Src/stm32f4xx_hal_adc.c ****   * @retval HAL status
ARM GAS  C:\Users\Halil\AppData\Local\Temp\cc7e4Lrl.s 			page 13


 473:Drivers/STM32F4xx_HAL_Driver/Src/stm32f4xx_hal_adc.c ****   */
 474:Drivers/STM32F4xx_HAL_Driver/Src/stm32f4xx_hal_adc.c **** HAL_StatusTypeDef HAL_ADC_RegisterCallback(ADC_HandleTypeDef *hadc, HAL_ADC_CallbackIDTypeDef Callb
 475:Drivers/STM32F4xx_HAL_Driver/Src/stm32f4xx_hal_adc.c **** {
 476:Drivers/STM32F4xx_HAL_Driver/Src/stm32f4xx_hal_adc.c ****   HAL_StatusTypeDef status = HAL_OK;
 477:Drivers/STM32F4xx_HAL_Driver/Src/stm32f4xx_hal_adc.c **** 
 478:Drivers/STM32F4xx_HAL_Driver/Src/stm32f4xx_hal_adc.c ****   if (pCallback == NULL)
 479:Drivers/STM32F4xx_HAL_Driver/Src/stm32f4xx_hal_adc.c ****   {
 480:Drivers/STM32F4xx_HAL_Driver/Src/stm32f4xx_hal_adc.c ****     /* Update the error code */
 481:Drivers/STM32F4xx_HAL_Driver/Src/stm32f4xx_hal_adc.c ****     hadc->ErrorCode |= HAL_ADC_ERROR_INVALID_CALLBACK;
 482:Drivers/STM32F4xx_HAL_Driver/Src/stm32f4xx_hal_adc.c **** 
 483:Drivers/STM32F4xx_HAL_Driver/Src/stm32f4xx_hal_adc.c ****     return HAL_ERROR;
 484:Drivers/STM32F4xx_HAL_Driver/Src/stm32f4xx_hal_adc.c ****   }
 485:Drivers/STM32F4xx_HAL_Driver/Src/stm32f4xx_hal_adc.c **** 
 486:Drivers/STM32F4xx_HAL_Driver/Src/stm32f4xx_hal_adc.c ****   if ((hadc->State & HAL_ADC_STATE_READY) != 0UL)
 487:Drivers/STM32F4xx_HAL_Driver/Src/stm32f4xx_hal_adc.c ****   {
 488:Drivers/STM32F4xx_HAL_Driver/Src/stm32f4xx_hal_adc.c ****     switch (CallbackID)
 489:Drivers/STM32F4xx_HAL_Driver/Src/stm32f4xx_hal_adc.c ****     {
 490:Drivers/STM32F4xx_HAL_Driver/Src/stm32f4xx_hal_adc.c ****       case HAL_ADC_CONVERSION_COMPLETE_CB_ID :
 491:Drivers/STM32F4xx_HAL_Driver/Src/stm32f4xx_hal_adc.c ****         hadc->ConvCpltCallback = pCallback;
 492:Drivers/STM32F4xx_HAL_Driver/Src/stm32f4xx_hal_adc.c ****         break;
 493:Drivers/STM32F4xx_HAL_Driver/Src/stm32f4xx_hal_adc.c **** 
 494:Drivers/STM32F4xx_HAL_Driver/Src/stm32f4xx_hal_adc.c ****       case HAL_ADC_CONVERSION_HALF_CB_ID :
 495:Drivers/STM32F4xx_HAL_Driver/Src/stm32f4xx_hal_adc.c ****         hadc->ConvHalfCpltCallback = pCallback;
 496:Drivers/STM32F4xx_HAL_Driver/Src/stm32f4xx_hal_adc.c ****         break;
 497:Drivers/STM32F4xx_HAL_Driver/Src/stm32f4xx_hal_adc.c **** 
 498:Drivers/STM32F4xx_HAL_Driver/Src/stm32f4xx_hal_adc.c ****       case HAL_ADC_LEVEL_OUT_OF_WINDOW_1_CB_ID :
 499:Drivers/STM32F4xx_HAL_Driver/Src/stm32f4xx_hal_adc.c ****         hadc->LevelOutOfWindowCallback = pCallback;
 500:Drivers/STM32F4xx_HAL_Driver/Src/stm32f4xx_hal_adc.c ****         break;
 501:Drivers/STM32F4xx_HAL_Driver/Src/stm32f4xx_hal_adc.c **** 
 502:Drivers/STM32F4xx_HAL_Driver/Src/stm32f4xx_hal_adc.c ****       case HAL_ADC_ERROR_CB_ID :
 503:Drivers/STM32F4xx_HAL_Driver/Src/stm32f4xx_hal_adc.c ****         hadc->ErrorCallback = pCallback;
 504:Drivers/STM32F4xx_HAL_Driver/Src/stm32f4xx_hal_adc.c ****         break;
 505:Drivers/STM32F4xx_HAL_Driver/Src/stm32f4xx_hal_adc.c **** 
 506:Drivers/STM32F4xx_HAL_Driver/Src/stm32f4xx_hal_adc.c ****       case HAL_ADC_INJ_CONVERSION_COMPLETE_CB_ID :
 507:Drivers/STM32F4xx_HAL_Driver/Src/stm32f4xx_hal_adc.c ****         hadc->InjectedConvCpltCallback = pCallback;
 508:Drivers/STM32F4xx_HAL_Driver/Src/stm32f4xx_hal_adc.c ****         break;
 509:Drivers/STM32F4xx_HAL_Driver/Src/stm32f4xx_hal_adc.c **** 
 510:Drivers/STM32F4xx_HAL_Driver/Src/stm32f4xx_hal_adc.c ****       case HAL_ADC_MSPINIT_CB_ID :
 511:Drivers/STM32F4xx_HAL_Driver/Src/stm32f4xx_hal_adc.c ****         hadc->MspInitCallback = pCallback;
 512:Drivers/STM32F4xx_HAL_Driver/Src/stm32f4xx_hal_adc.c ****         break;
 513:Drivers/STM32F4xx_HAL_Driver/Src/stm32f4xx_hal_adc.c **** 
 514:Drivers/STM32F4xx_HAL_Driver/Src/stm32f4xx_hal_adc.c ****       case HAL_ADC_MSPDEINIT_CB_ID :
 515:Drivers/STM32F4xx_HAL_Driver/Src/stm32f4xx_hal_adc.c ****         hadc->MspDeInitCallback = pCallback;
 516:Drivers/STM32F4xx_HAL_Driver/Src/stm32f4xx_hal_adc.c ****         break;
 517:Drivers/STM32F4xx_HAL_Driver/Src/stm32f4xx_hal_adc.c **** 
 518:Drivers/STM32F4xx_HAL_Driver/Src/stm32f4xx_hal_adc.c ****       default :
 519:Drivers/STM32F4xx_HAL_Driver/Src/stm32f4xx_hal_adc.c ****         /* Update the error code */
 520:Drivers/STM32F4xx_HAL_Driver/Src/stm32f4xx_hal_adc.c ****         hadc->ErrorCode |= HAL_ADC_ERROR_INVALID_CALLBACK;
 521:Drivers/STM32F4xx_HAL_Driver/Src/stm32f4xx_hal_adc.c **** 
 522:Drivers/STM32F4xx_HAL_Driver/Src/stm32f4xx_hal_adc.c ****         /* Return error status */
 523:Drivers/STM32F4xx_HAL_Driver/Src/stm32f4xx_hal_adc.c ****         status = HAL_ERROR;
 524:Drivers/STM32F4xx_HAL_Driver/Src/stm32f4xx_hal_adc.c ****         break;
 525:Drivers/STM32F4xx_HAL_Driver/Src/stm32f4xx_hal_adc.c ****     }
 526:Drivers/STM32F4xx_HAL_Driver/Src/stm32f4xx_hal_adc.c ****   }
 527:Drivers/STM32F4xx_HAL_Driver/Src/stm32f4xx_hal_adc.c ****   else if (HAL_ADC_STATE_RESET == hadc->State)
 528:Drivers/STM32F4xx_HAL_Driver/Src/stm32f4xx_hal_adc.c ****   {
 529:Drivers/STM32F4xx_HAL_Driver/Src/stm32f4xx_hal_adc.c ****     switch (CallbackID)
ARM GAS  C:\Users\Halil\AppData\Local\Temp\cc7e4Lrl.s 			page 14


 530:Drivers/STM32F4xx_HAL_Driver/Src/stm32f4xx_hal_adc.c ****     {
 531:Drivers/STM32F4xx_HAL_Driver/Src/stm32f4xx_hal_adc.c ****       case HAL_ADC_MSPINIT_CB_ID :
 532:Drivers/STM32F4xx_HAL_Driver/Src/stm32f4xx_hal_adc.c ****         hadc->MspInitCallback = pCallback;
 533:Drivers/STM32F4xx_HAL_Driver/Src/stm32f4xx_hal_adc.c ****         break;
 534:Drivers/STM32F4xx_HAL_Driver/Src/stm32f4xx_hal_adc.c **** 
 535:Drivers/STM32F4xx_HAL_Driver/Src/stm32f4xx_hal_adc.c ****       case HAL_ADC_MSPDEINIT_CB_ID :
 536:Drivers/STM32F4xx_HAL_Driver/Src/stm32f4xx_hal_adc.c ****         hadc->MspDeInitCallback = pCallback;
 537:Drivers/STM32F4xx_HAL_Driver/Src/stm32f4xx_hal_adc.c ****         break;
 538:Drivers/STM32F4xx_HAL_Driver/Src/stm32f4xx_hal_adc.c **** 
 539:Drivers/STM32F4xx_HAL_Driver/Src/stm32f4xx_hal_adc.c ****       default :
 540:Drivers/STM32F4xx_HAL_Driver/Src/stm32f4xx_hal_adc.c ****         /* Update the error code */
 541:Drivers/STM32F4xx_HAL_Driver/Src/stm32f4xx_hal_adc.c ****         hadc->ErrorCode |= HAL_ADC_ERROR_INVALID_CALLBACK;
 542:Drivers/STM32F4xx_HAL_Driver/Src/stm32f4xx_hal_adc.c **** 
 543:Drivers/STM32F4xx_HAL_Driver/Src/stm32f4xx_hal_adc.c ****         /* Return error status */
 544:Drivers/STM32F4xx_HAL_Driver/Src/stm32f4xx_hal_adc.c ****         status = HAL_ERROR;
 545:Drivers/STM32F4xx_HAL_Driver/Src/stm32f4xx_hal_adc.c ****         break;
 546:Drivers/STM32F4xx_HAL_Driver/Src/stm32f4xx_hal_adc.c ****     }
 547:Drivers/STM32F4xx_HAL_Driver/Src/stm32f4xx_hal_adc.c ****   }
 548:Drivers/STM32F4xx_HAL_Driver/Src/stm32f4xx_hal_adc.c ****   else
 549:Drivers/STM32F4xx_HAL_Driver/Src/stm32f4xx_hal_adc.c ****   {
 550:Drivers/STM32F4xx_HAL_Driver/Src/stm32f4xx_hal_adc.c ****     /* Update the error code */
 551:Drivers/STM32F4xx_HAL_Driver/Src/stm32f4xx_hal_adc.c ****     hadc->ErrorCode |= HAL_ADC_ERROR_INVALID_CALLBACK;
 552:Drivers/STM32F4xx_HAL_Driver/Src/stm32f4xx_hal_adc.c **** 
 553:Drivers/STM32F4xx_HAL_Driver/Src/stm32f4xx_hal_adc.c ****     /* Return error status */
 554:Drivers/STM32F4xx_HAL_Driver/Src/stm32f4xx_hal_adc.c ****     status =  HAL_ERROR;
 555:Drivers/STM32F4xx_HAL_Driver/Src/stm32f4xx_hal_adc.c ****   }
 556:Drivers/STM32F4xx_HAL_Driver/Src/stm32f4xx_hal_adc.c **** 
 557:Drivers/STM32F4xx_HAL_Driver/Src/stm32f4xx_hal_adc.c ****   return status;
 558:Drivers/STM32F4xx_HAL_Driver/Src/stm32f4xx_hal_adc.c **** }
 559:Drivers/STM32F4xx_HAL_Driver/Src/stm32f4xx_hal_adc.c **** 
 560:Drivers/STM32F4xx_HAL_Driver/Src/stm32f4xx_hal_adc.c **** /**
 561:Drivers/STM32F4xx_HAL_Driver/Src/stm32f4xx_hal_adc.c ****   * @brief  Unregister a ADC Callback
 562:Drivers/STM32F4xx_HAL_Driver/Src/stm32f4xx_hal_adc.c ****   *         ADC callback is redirected to the weak predefined callback
 563:Drivers/STM32F4xx_HAL_Driver/Src/stm32f4xx_hal_adc.c ****   * @param  hadc Pointer to a ADC_HandleTypeDef structure that contains
 564:Drivers/STM32F4xx_HAL_Driver/Src/stm32f4xx_hal_adc.c ****   *                the configuration information for the specified ADC.
 565:Drivers/STM32F4xx_HAL_Driver/Src/stm32f4xx_hal_adc.c ****   * @param  CallbackID ID of the callback to be unregistered
 566:Drivers/STM32F4xx_HAL_Driver/Src/stm32f4xx_hal_adc.c ****   *         This parameter can be one of the following values:
 567:Drivers/STM32F4xx_HAL_Driver/Src/stm32f4xx_hal_adc.c ****   *          @arg @ref HAL_ADC_CONVERSION_COMPLETE_CB_ID      ADC conversion complete callback ID
 568:Drivers/STM32F4xx_HAL_Driver/Src/stm32f4xx_hal_adc.c ****   *          @arg @ref HAL_ADC_CONVERSION_HALF_CB_ID          ADC conversion DMA half-transfer call
 569:Drivers/STM32F4xx_HAL_Driver/Src/stm32f4xx_hal_adc.c ****   *          @arg @ref HAL_ADC_LEVEL_OUT_OF_WINDOW_1_CB_ID    ADC analog watchdog 1 callback ID
 570:Drivers/STM32F4xx_HAL_Driver/Src/stm32f4xx_hal_adc.c ****   *          @arg @ref HAL_ADC_ERROR_CB_ID                    ADC error callback ID
 571:Drivers/STM32F4xx_HAL_Driver/Src/stm32f4xx_hal_adc.c ****   *          @arg @ref HAL_ADC_INJ_CONVERSION_COMPLETE_CB_ID  ADC group injected conversion complet
 572:Drivers/STM32F4xx_HAL_Driver/Src/stm32f4xx_hal_adc.c ****   *          @arg @ref HAL_ADC_MSPINIT_CB_ID                  ADC Msp Init callback ID
 573:Drivers/STM32F4xx_HAL_Driver/Src/stm32f4xx_hal_adc.c ****   *          @arg @ref HAL_ADC_MSPDEINIT_CB_ID                ADC Msp DeInit callback ID
 574:Drivers/STM32F4xx_HAL_Driver/Src/stm32f4xx_hal_adc.c ****   * @retval HAL status
 575:Drivers/STM32F4xx_HAL_Driver/Src/stm32f4xx_hal_adc.c ****   */
 576:Drivers/STM32F4xx_HAL_Driver/Src/stm32f4xx_hal_adc.c **** HAL_StatusTypeDef HAL_ADC_UnRegisterCallback(ADC_HandleTypeDef *hadc, HAL_ADC_CallbackIDTypeDef Cal
 577:Drivers/STM32F4xx_HAL_Driver/Src/stm32f4xx_hal_adc.c **** {
 578:Drivers/STM32F4xx_HAL_Driver/Src/stm32f4xx_hal_adc.c ****   HAL_StatusTypeDef status = HAL_OK;
 579:Drivers/STM32F4xx_HAL_Driver/Src/stm32f4xx_hal_adc.c **** 
 580:Drivers/STM32F4xx_HAL_Driver/Src/stm32f4xx_hal_adc.c ****   if ((hadc->State & HAL_ADC_STATE_READY) != 0UL)
 581:Drivers/STM32F4xx_HAL_Driver/Src/stm32f4xx_hal_adc.c ****   {
 582:Drivers/STM32F4xx_HAL_Driver/Src/stm32f4xx_hal_adc.c ****     switch (CallbackID)
 583:Drivers/STM32F4xx_HAL_Driver/Src/stm32f4xx_hal_adc.c ****     {
 584:Drivers/STM32F4xx_HAL_Driver/Src/stm32f4xx_hal_adc.c ****       case HAL_ADC_CONVERSION_COMPLETE_CB_ID :
 585:Drivers/STM32F4xx_HAL_Driver/Src/stm32f4xx_hal_adc.c ****         hadc->ConvCpltCallback = HAL_ADC_ConvCpltCallback;
 586:Drivers/STM32F4xx_HAL_Driver/Src/stm32f4xx_hal_adc.c ****         break;
ARM GAS  C:\Users\Halil\AppData\Local\Temp\cc7e4Lrl.s 			page 15


 587:Drivers/STM32F4xx_HAL_Driver/Src/stm32f4xx_hal_adc.c **** 
 588:Drivers/STM32F4xx_HAL_Driver/Src/stm32f4xx_hal_adc.c ****       case HAL_ADC_CONVERSION_HALF_CB_ID :
 589:Drivers/STM32F4xx_HAL_Driver/Src/stm32f4xx_hal_adc.c ****         hadc->ConvHalfCpltCallback = HAL_ADC_ConvHalfCpltCallback;
 590:Drivers/STM32F4xx_HAL_Driver/Src/stm32f4xx_hal_adc.c ****         break;
 591:Drivers/STM32F4xx_HAL_Driver/Src/stm32f4xx_hal_adc.c **** 
 592:Drivers/STM32F4xx_HAL_Driver/Src/stm32f4xx_hal_adc.c ****       case HAL_ADC_LEVEL_OUT_OF_WINDOW_1_CB_ID :
 593:Drivers/STM32F4xx_HAL_Driver/Src/stm32f4xx_hal_adc.c ****         hadc->LevelOutOfWindowCallback = HAL_ADC_LevelOutOfWindowCallback;
 594:Drivers/STM32F4xx_HAL_Driver/Src/stm32f4xx_hal_adc.c ****         break;
 595:Drivers/STM32F4xx_HAL_Driver/Src/stm32f4xx_hal_adc.c **** 
 596:Drivers/STM32F4xx_HAL_Driver/Src/stm32f4xx_hal_adc.c ****       case HAL_ADC_ERROR_CB_ID :
 597:Drivers/STM32F4xx_HAL_Driver/Src/stm32f4xx_hal_adc.c ****         hadc->ErrorCallback = HAL_ADC_ErrorCallback;
 598:Drivers/STM32F4xx_HAL_Driver/Src/stm32f4xx_hal_adc.c ****         break;
 599:Drivers/STM32F4xx_HAL_Driver/Src/stm32f4xx_hal_adc.c **** 
 600:Drivers/STM32F4xx_HAL_Driver/Src/stm32f4xx_hal_adc.c ****       case HAL_ADC_INJ_CONVERSION_COMPLETE_CB_ID :
 601:Drivers/STM32F4xx_HAL_Driver/Src/stm32f4xx_hal_adc.c ****         hadc->InjectedConvCpltCallback = HAL_ADCEx_InjectedConvCpltCallback;
 602:Drivers/STM32F4xx_HAL_Driver/Src/stm32f4xx_hal_adc.c ****         break;
 603:Drivers/STM32F4xx_HAL_Driver/Src/stm32f4xx_hal_adc.c **** 
 604:Drivers/STM32F4xx_HAL_Driver/Src/stm32f4xx_hal_adc.c ****       case HAL_ADC_MSPINIT_CB_ID :
 605:Drivers/STM32F4xx_HAL_Driver/Src/stm32f4xx_hal_adc.c ****         hadc->MspInitCallback = HAL_ADC_MspInit; /* Legacy weak MspInit              */
 606:Drivers/STM32F4xx_HAL_Driver/Src/stm32f4xx_hal_adc.c ****         break;
 607:Drivers/STM32F4xx_HAL_Driver/Src/stm32f4xx_hal_adc.c **** 
 608:Drivers/STM32F4xx_HAL_Driver/Src/stm32f4xx_hal_adc.c ****       case HAL_ADC_MSPDEINIT_CB_ID :
 609:Drivers/STM32F4xx_HAL_Driver/Src/stm32f4xx_hal_adc.c ****         hadc->MspDeInitCallback = HAL_ADC_MspDeInit; /* Legacy weak MspDeInit            */
 610:Drivers/STM32F4xx_HAL_Driver/Src/stm32f4xx_hal_adc.c ****         break;
 611:Drivers/STM32F4xx_HAL_Driver/Src/stm32f4xx_hal_adc.c **** 
 612:Drivers/STM32F4xx_HAL_Driver/Src/stm32f4xx_hal_adc.c ****       default :
 613:Drivers/STM32F4xx_HAL_Driver/Src/stm32f4xx_hal_adc.c ****         /* Update the error code */
 614:Drivers/STM32F4xx_HAL_Driver/Src/stm32f4xx_hal_adc.c ****         hadc->ErrorCode |= HAL_ADC_ERROR_INVALID_CALLBACK;
 615:Drivers/STM32F4xx_HAL_Driver/Src/stm32f4xx_hal_adc.c **** 
 616:Drivers/STM32F4xx_HAL_Driver/Src/stm32f4xx_hal_adc.c ****         /* Return error status */
 617:Drivers/STM32F4xx_HAL_Driver/Src/stm32f4xx_hal_adc.c ****         status =  HAL_ERROR;
 618:Drivers/STM32F4xx_HAL_Driver/Src/stm32f4xx_hal_adc.c ****         break;
 619:Drivers/STM32F4xx_HAL_Driver/Src/stm32f4xx_hal_adc.c ****     }
 620:Drivers/STM32F4xx_HAL_Driver/Src/stm32f4xx_hal_adc.c ****   }
 621:Drivers/STM32F4xx_HAL_Driver/Src/stm32f4xx_hal_adc.c ****   else if (HAL_ADC_STATE_RESET == hadc->State)
 622:Drivers/STM32F4xx_HAL_Driver/Src/stm32f4xx_hal_adc.c ****   {
 623:Drivers/STM32F4xx_HAL_Driver/Src/stm32f4xx_hal_adc.c ****     switch (CallbackID)
 624:Drivers/STM32F4xx_HAL_Driver/Src/stm32f4xx_hal_adc.c ****     {
 625:Drivers/STM32F4xx_HAL_Driver/Src/stm32f4xx_hal_adc.c ****       case HAL_ADC_MSPINIT_CB_ID :
 626:Drivers/STM32F4xx_HAL_Driver/Src/stm32f4xx_hal_adc.c ****         hadc->MspInitCallback = HAL_ADC_MspInit;                   /* Legacy weak MspInit          
 627:Drivers/STM32F4xx_HAL_Driver/Src/stm32f4xx_hal_adc.c ****         break;
 628:Drivers/STM32F4xx_HAL_Driver/Src/stm32f4xx_hal_adc.c **** 
 629:Drivers/STM32F4xx_HAL_Driver/Src/stm32f4xx_hal_adc.c ****       case HAL_ADC_MSPDEINIT_CB_ID :
 630:Drivers/STM32F4xx_HAL_Driver/Src/stm32f4xx_hal_adc.c ****         hadc->MspDeInitCallback = HAL_ADC_MspDeInit;               /* Legacy weak MspDeInit        
 631:Drivers/STM32F4xx_HAL_Driver/Src/stm32f4xx_hal_adc.c ****         break;
 632:Drivers/STM32F4xx_HAL_Driver/Src/stm32f4xx_hal_adc.c **** 
 633:Drivers/STM32F4xx_HAL_Driver/Src/stm32f4xx_hal_adc.c ****       default :
 634:Drivers/STM32F4xx_HAL_Driver/Src/stm32f4xx_hal_adc.c ****         /* Update the error code */
 635:Drivers/STM32F4xx_HAL_Driver/Src/stm32f4xx_hal_adc.c ****         hadc->ErrorCode |= HAL_ADC_ERROR_INVALID_CALLBACK;
 636:Drivers/STM32F4xx_HAL_Driver/Src/stm32f4xx_hal_adc.c **** 
 637:Drivers/STM32F4xx_HAL_Driver/Src/stm32f4xx_hal_adc.c ****         /* Return error status */
 638:Drivers/STM32F4xx_HAL_Driver/Src/stm32f4xx_hal_adc.c ****         status =  HAL_ERROR;
 639:Drivers/STM32F4xx_HAL_Driver/Src/stm32f4xx_hal_adc.c ****         break;
 640:Drivers/STM32F4xx_HAL_Driver/Src/stm32f4xx_hal_adc.c ****     }
 641:Drivers/STM32F4xx_HAL_Driver/Src/stm32f4xx_hal_adc.c ****   }
 642:Drivers/STM32F4xx_HAL_Driver/Src/stm32f4xx_hal_adc.c ****   else
 643:Drivers/STM32F4xx_HAL_Driver/Src/stm32f4xx_hal_adc.c ****   {
ARM GAS  C:\Users\Halil\AppData\Local\Temp\cc7e4Lrl.s 			page 16


 644:Drivers/STM32F4xx_HAL_Driver/Src/stm32f4xx_hal_adc.c ****     /* Update the error code */
 645:Drivers/STM32F4xx_HAL_Driver/Src/stm32f4xx_hal_adc.c ****     hadc->ErrorCode |= HAL_ADC_ERROR_INVALID_CALLBACK;
 646:Drivers/STM32F4xx_HAL_Driver/Src/stm32f4xx_hal_adc.c **** 
 647:Drivers/STM32F4xx_HAL_Driver/Src/stm32f4xx_hal_adc.c ****     /* Return error status */
 648:Drivers/STM32F4xx_HAL_Driver/Src/stm32f4xx_hal_adc.c ****     status =  HAL_ERROR;
 649:Drivers/STM32F4xx_HAL_Driver/Src/stm32f4xx_hal_adc.c ****   }
 650:Drivers/STM32F4xx_HAL_Driver/Src/stm32f4xx_hal_adc.c **** 
 651:Drivers/STM32F4xx_HAL_Driver/Src/stm32f4xx_hal_adc.c ****   return status;
 652:Drivers/STM32F4xx_HAL_Driver/Src/stm32f4xx_hal_adc.c **** }
 653:Drivers/STM32F4xx_HAL_Driver/Src/stm32f4xx_hal_adc.c **** 
 654:Drivers/STM32F4xx_HAL_Driver/Src/stm32f4xx_hal_adc.c **** #endif /* USE_HAL_ADC_REGISTER_CALLBACKS */
 655:Drivers/STM32F4xx_HAL_Driver/Src/stm32f4xx_hal_adc.c **** 
 656:Drivers/STM32F4xx_HAL_Driver/Src/stm32f4xx_hal_adc.c **** /**
 657:Drivers/STM32F4xx_HAL_Driver/Src/stm32f4xx_hal_adc.c ****   * @brief  Initializes the ADC MSP.
 658:Drivers/STM32F4xx_HAL_Driver/Src/stm32f4xx_hal_adc.c ****   * @param  hadc pointer to a ADC_HandleTypeDef structure that contains
 659:Drivers/STM32F4xx_HAL_Driver/Src/stm32f4xx_hal_adc.c ****   *         the configuration information for the specified ADC.
 660:Drivers/STM32F4xx_HAL_Driver/Src/stm32f4xx_hal_adc.c ****   * @retval None
 661:Drivers/STM32F4xx_HAL_Driver/Src/stm32f4xx_hal_adc.c ****   */
 662:Drivers/STM32F4xx_HAL_Driver/Src/stm32f4xx_hal_adc.c **** __weak void HAL_ADC_MspInit(ADC_HandleTypeDef *hadc)
 663:Drivers/STM32F4xx_HAL_Driver/Src/stm32f4xx_hal_adc.c **** {
 218              		.loc 1 663 1
 219              		.cfi_startproc
 220              		@ args = 0, pretend = 0, frame = 8
 221              		@ frame_needed = 1, uses_anonymous_args = 0
 222              		@ link register save eliminated.
 223 0000 80B4     		push	{r7}
 224              		.cfi_def_cfa_offset 4
 225              		.cfi_offset 7, -4
 226 0002 83B0     		sub	sp, sp, #12
 227              		.cfi_def_cfa_offset 16
 228 0004 00AF     		add	r7, sp, #0
 229              		.cfi_def_cfa_register 7
 230 0006 7860     		str	r0, [r7, #4]
 664:Drivers/STM32F4xx_HAL_Driver/Src/stm32f4xx_hal_adc.c ****   /* Prevent unused argument(s) compilation warning */
 665:Drivers/STM32F4xx_HAL_Driver/Src/stm32f4xx_hal_adc.c ****   UNUSED(hadc);
 666:Drivers/STM32F4xx_HAL_Driver/Src/stm32f4xx_hal_adc.c ****   /* NOTE : This function Should not be modified, when the callback is needed,
 667:Drivers/STM32F4xx_HAL_Driver/Src/stm32f4xx_hal_adc.c ****             the HAL_ADC_MspInit could be implemented in the user file
 668:Drivers/STM32F4xx_HAL_Driver/Src/stm32f4xx_hal_adc.c ****    */
 669:Drivers/STM32F4xx_HAL_Driver/Src/stm32f4xx_hal_adc.c **** }
 231              		.loc 1 669 1
 232 0008 00BF     		nop
 233 000a 0C37     		adds	r7, r7, #12
 234              		.cfi_def_cfa_offset 4
 235 000c BD46     		mov	sp, r7
 236              		.cfi_def_cfa_register 13
 237              		@ sp needed
 238 000e 5DF8047B 		ldr	r7, [sp], #4
 239              		.cfi_restore 7
 240              		.cfi_def_cfa_offset 0
 241 0012 7047     		bx	lr
 242              		.cfi_endproc
 243              	.LFE241:
 245              		.section	.text.HAL_ADC_MspDeInit,"ax",%progbits
 246              		.align	1
 247              		.weak	HAL_ADC_MspDeInit
 248              		.syntax unified
 249              		.thumb
ARM GAS  C:\Users\Halil\AppData\Local\Temp\cc7e4Lrl.s 			page 17


 250              		.thumb_func
 252              	HAL_ADC_MspDeInit:
 253              	.LFB242:
 670:Drivers/STM32F4xx_HAL_Driver/Src/stm32f4xx_hal_adc.c **** 
 671:Drivers/STM32F4xx_HAL_Driver/Src/stm32f4xx_hal_adc.c **** /**
 672:Drivers/STM32F4xx_HAL_Driver/Src/stm32f4xx_hal_adc.c ****   * @brief  DeInitializes the ADC MSP.
 673:Drivers/STM32F4xx_HAL_Driver/Src/stm32f4xx_hal_adc.c ****   * @param  hadc pointer to a ADC_HandleTypeDef structure that contains
 674:Drivers/STM32F4xx_HAL_Driver/Src/stm32f4xx_hal_adc.c ****   *         the configuration information for the specified ADC.
 675:Drivers/STM32F4xx_HAL_Driver/Src/stm32f4xx_hal_adc.c ****   * @retval None
 676:Drivers/STM32F4xx_HAL_Driver/Src/stm32f4xx_hal_adc.c ****   */
 677:Drivers/STM32F4xx_HAL_Driver/Src/stm32f4xx_hal_adc.c **** __weak void HAL_ADC_MspDeInit(ADC_HandleTypeDef *hadc)
 678:Drivers/STM32F4xx_HAL_Driver/Src/stm32f4xx_hal_adc.c **** {
 254              		.loc 1 678 1
 255              		.cfi_startproc
 256              		@ args = 0, pretend = 0, frame = 8
 257              		@ frame_needed = 1, uses_anonymous_args = 0
 258              		@ link register save eliminated.
 259 0000 80B4     		push	{r7}
 260              		.cfi_def_cfa_offset 4
 261              		.cfi_offset 7, -4
 262 0002 83B0     		sub	sp, sp, #12
 263              		.cfi_def_cfa_offset 16
 264 0004 00AF     		add	r7, sp, #0
 265              		.cfi_def_cfa_register 7
 266 0006 7860     		str	r0, [r7, #4]
 679:Drivers/STM32F4xx_HAL_Driver/Src/stm32f4xx_hal_adc.c ****   /* Prevent unused argument(s) compilation warning */
 680:Drivers/STM32F4xx_HAL_Driver/Src/stm32f4xx_hal_adc.c ****   UNUSED(hadc);
 681:Drivers/STM32F4xx_HAL_Driver/Src/stm32f4xx_hal_adc.c ****   /* NOTE : This function Should not be modified, when the callback is needed,
 682:Drivers/STM32F4xx_HAL_Driver/Src/stm32f4xx_hal_adc.c ****             the HAL_ADC_MspDeInit could be implemented in the user file
 683:Drivers/STM32F4xx_HAL_Driver/Src/stm32f4xx_hal_adc.c ****    */
 684:Drivers/STM32F4xx_HAL_Driver/Src/stm32f4xx_hal_adc.c **** }
 267              		.loc 1 684 1
 268 0008 00BF     		nop
 269 000a 0C37     		adds	r7, r7, #12
 270              		.cfi_def_cfa_offset 4
 271 000c BD46     		mov	sp, r7
 272              		.cfi_def_cfa_register 13
 273              		@ sp needed
 274 000e 5DF8047B 		ldr	r7, [sp], #4
 275              		.cfi_restore 7
 276              		.cfi_def_cfa_offset 0
 277 0012 7047     		bx	lr
 278              		.cfi_endproc
 279              	.LFE242:
 281              		.section	.text.HAL_ADC_Start,"ax",%progbits
 282              		.align	1
 283              		.global	HAL_ADC_Start
 284              		.syntax unified
 285              		.thumb
 286              		.thumb_func
 288              	HAL_ADC_Start:
 289              	.LFB243:
 685:Drivers/STM32F4xx_HAL_Driver/Src/stm32f4xx_hal_adc.c **** 
 686:Drivers/STM32F4xx_HAL_Driver/Src/stm32f4xx_hal_adc.c **** /**
 687:Drivers/STM32F4xx_HAL_Driver/Src/stm32f4xx_hal_adc.c ****   * @}
 688:Drivers/STM32F4xx_HAL_Driver/Src/stm32f4xx_hal_adc.c ****   */
 689:Drivers/STM32F4xx_HAL_Driver/Src/stm32f4xx_hal_adc.c **** 
ARM GAS  C:\Users\Halil\AppData\Local\Temp\cc7e4Lrl.s 			page 18


 690:Drivers/STM32F4xx_HAL_Driver/Src/stm32f4xx_hal_adc.c **** /** @defgroup ADC_Exported_Functions_Group2 IO operation functions
 691:Drivers/STM32F4xx_HAL_Driver/Src/stm32f4xx_hal_adc.c ****  *  @brief    IO operation functions
 692:Drivers/STM32F4xx_HAL_Driver/Src/stm32f4xx_hal_adc.c ****  *
 693:Drivers/STM32F4xx_HAL_Driver/Src/stm32f4xx_hal_adc.c **** @verbatim
 694:Drivers/STM32F4xx_HAL_Driver/Src/stm32f4xx_hal_adc.c ****  ===============================================================================
 695:Drivers/STM32F4xx_HAL_Driver/Src/stm32f4xx_hal_adc.c ****              ##### IO operation functions #####
 696:Drivers/STM32F4xx_HAL_Driver/Src/stm32f4xx_hal_adc.c ****  ===============================================================================
 697:Drivers/STM32F4xx_HAL_Driver/Src/stm32f4xx_hal_adc.c ****     [..]  This section provides functions allowing to:
 698:Drivers/STM32F4xx_HAL_Driver/Src/stm32f4xx_hal_adc.c ****       (+) Start conversion of regular channel.
 699:Drivers/STM32F4xx_HAL_Driver/Src/stm32f4xx_hal_adc.c ****       (+) Stop conversion of regular channel.
 700:Drivers/STM32F4xx_HAL_Driver/Src/stm32f4xx_hal_adc.c ****       (+) Start conversion of regular channel and enable interrupt.
 701:Drivers/STM32F4xx_HAL_Driver/Src/stm32f4xx_hal_adc.c ****       (+) Stop conversion of regular channel and disable interrupt.
 702:Drivers/STM32F4xx_HAL_Driver/Src/stm32f4xx_hal_adc.c ****       (+) Start conversion of regular channel and enable DMA transfer.
 703:Drivers/STM32F4xx_HAL_Driver/Src/stm32f4xx_hal_adc.c ****       (+) Stop conversion of regular channel and disable DMA transfer.
 704:Drivers/STM32F4xx_HAL_Driver/Src/stm32f4xx_hal_adc.c ****       (+) Handle ADC interrupt request.
 705:Drivers/STM32F4xx_HAL_Driver/Src/stm32f4xx_hal_adc.c **** 
 706:Drivers/STM32F4xx_HAL_Driver/Src/stm32f4xx_hal_adc.c **** @endverbatim
 707:Drivers/STM32F4xx_HAL_Driver/Src/stm32f4xx_hal_adc.c ****   * @{
 708:Drivers/STM32F4xx_HAL_Driver/Src/stm32f4xx_hal_adc.c ****   */
 709:Drivers/STM32F4xx_HAL_Driver/Src/stm32f4xx_hal_adc.c **** 
 710:Drivers/STM32F4xx_HAL_Driver/Src/stm32f4xx_hal_adc.c **** /**
 711:Drivers/STM32F4xx_HAL_Driver/Src/stm32f4xx_hal_adc.c ****   * @brief  Enables ADC and starts conversion of the regular channels.
 712:Drivers/STM32F4xx_HAL_Driver/Src/stm32f4xx_hal_adc.c ****   * @param  hadc pointer to a ADC_HandleTypeDef structure that contains
 713:Drivers/STM32F4xx_HAL_Driver/Src/stm32f4xx_hal_adc.c ****   *         the configuration information for the specified ADC.
 714:Drivers/STM32F4xx_HAL_Driver/Src/stm32f4xx_hal_adc.c ****   * @retval HAL status
 715:Drivers/STM32F4xx_HAL_Driver/Src/stm32f4xx_hal_adc.c ****   */
 716:Drivers/STM32F4xx_HAL_Driver/Src/stm32f4xx_hal_adc.c **** HAL_StatusTypeDef HAL_ADC_Start(ADC_HandleTypeDef *hadc)
 717:Drivers/STM32F4xx_HAL_Driver/Src/stm32f4xx_hal_adc.c **** {
 290              		.loc 1 717 1
 291              		.cfi_startproc
 292              		@ args = 0, pretend = 0, frame = 16
 293              		@ frame_needed = 1, uses_anonymous_args = 0
 294              		@ link register save eliminated.
 295 0000 80B4     		push	{r7}
 296              		.cfi_def_cfa_offset 4
 297              		.cfi_offset 7, -4
 298 0002 85B0     		sub	sp, sp, #20
 299              		.cfi_def_cfa_offset 24
 300 0004 00AF     		add	r7, sp, #0
 301              		.cfi_def_cfa_register 7
 302 0006 7860     		str	r0, [r7, #4]
 718:Drivers/STM32F4xx_HAL_Driver/Src/stm32f4xx_hal_adc.c ****   __IO uint32_t counter = 0U;
 303              		.loc 1 718 17
 304 0008 0023     		movs	r3, #0
 305 000a BB60     		str	r3, [r7, #8]
 719:Drivers/STM32F4xx_HAL_Driver/Src/stm32f4xx_hal_adc.c ****   ADC_Common_TypeDef *tmpADC_Common;
 720:Drivers/STM32F4xx_HAL_Driver/Src/stm32f4xx_hal_adc.c **** 
 721:Drivers/STM32F4xx_HAL_Driver/Src/stm32f4xx_hal_adc.c ****   /* Check the parameters */
 722:Drivers/STM32F4xx_HAL_Driver/Src/stm32f4xx_hal_adc.c ****   assert_param(IS_FUNCTIONAL_STATE(hadc->Init.ContinuousConvMode));
 723:Drivers/STM32F4xx_HAL_Driver/Src/stm32f4xx_hal_adc.c ****   assert_param(IS_ADC_EXT_TRIG_EDGE(hadc->Init.ExternalTrigConvEdge));
 724:Drivers/STM32F4xx_HAL_Driver/Src/stm32f4xx_hal_adc.c **** 
 725:Drivers/STM32F4xx_HAL_Driver/Src/stm32f4xx_hal_adc.c ****   /* Process locked */
 726:Drivers/STM32F4xx_HAL_Driver/Src/stm32f4xx_hal_adc.c ****   __HAL_LOCK(hadc);
 306              		.loc 1 726 3
 307 000c 7B68     		ldr	r3, [r7, #4]
 308 000e 93F83C30 		ldrb	r3, [r3, #60]	@ zero_extendqisi2
 309 0012 012B     		cmp	r3, #1
ARM GAS  C:\Users\Halil\AppData\Local\Temp\cc7e4Lrl.s 			page 19


 310 0014 01D1     		bne	.L14
 311              		.loc 1 726 3 is_stmt 0 discriminator 1
 312 0016 0223     		movs	r3, #2
 313 0018 B2E0     		b	.L15
 314              	.L14:
 315              		.loc 1 726 3 discriminator 2
 316 001a 7B68     		ldr	r3, [r7, #4]
 317 001c 0122     		movs	r2, #1
 318 001e 83F83C20 		strb	r2, [r3, #60]
 727:Drivers/STM32F4xx_HAL_Driver/Src/stm32f4xx_hal_adc.c **** 
 728:Drivers/STM32F4xx_HAL_Driver/Src/stm32f4xx_hal_adc.c ****   /* Enable the ADC peripheral */
 729:Drivers/STM32F4xx_HAL_Driver/Src/stm32f4xx_hal_adc.c ****   /* Check if ADC peripheral is disabled in order to enable it and wait during
 730:Drivers/STM32F4xx_HAL_Driver/Src/stm32f4xx_hal_adc.c ****   Tstab time the ADC's stabilization */
 731:Drivers/STM32F4xx_HAL_Driver/Src/stm32f4xx_hal_adc.c ****   if ((hadc->Instance->CR2 & ADC_CR2_ADON) != ADC_CR2_ADON)
 319              		.loc 1 731 12 is_stmt 1 discriminator 2
 320 0022 7B68     		ldr	r3, [r7, #4]
 321 0024 1B68     		ldr	r3, [r3]
 322              		.loc 1 731 22 discriminator 2
 323 0026 9B68     		ldr	r3, [r3, #8]
 324              		.loc 1 731 28 discriminator 2
 325 0028 03F00103 		and	r3, r3, #1
 326              		.loc 1 731 6 discriminator 2
 327 002c 012B     		cmp	r3, #1
 328 002e 18D0     		beq	.L16
 732:Drivers/STM32F4xx_HAL_Driver/Src/stm32f4xx_hal_adc.c ****   {
 733:Drivers/STM32F4xx_HAL_Driver/Src/stm32f4xx_hal_adc.c ****     /* Enable the Peripheral */
 734:Drivers/STM32F4xx_HAL_Driver/Src/stm32f4xx_hal_adc.c ****     __HAL_ADC_ENABLE(hadc);
 329              		.loc 1 734 5
 330 0030 7B68     		ldr	r3, [r7, #4]
 331 0032 1B68     		ldr	r3, [r3]
 332 0034 9A68     		ldr	r2, [r3, #8]
 333 0036 7B68     		ldr	r3, [r7, #4]
 334 0038 1B68     		ldr	r3, [r3]
 335 003a 42F00102 		orr	r2, r2, #1
 336 003e 9A60     		str	r2, [r3, #8]
 735:Drivers/STM32F4xx_HAL_Driver/Src/stm32f4xx_hal_adc.c **** 
 736:Drivers/STM32F4xx_HAL_Driver/Src/stm32f4xx_hal_adc.c ****     /* Delay for ADC stabilization time */
 737:Drivers/STM32F4xx_HAL_Driver/Src/stm32f4xx_hal_adc.c ****     /* Compute number of CPU cycles to wait for */
 738:Drivers/STM32F4xx_HAL_Driver/Src/stm32f4xx_hal_adc.c ****     counter = (ADC_STAB_DELAY_US * (SystemCoreClock / 1000000U));
 337              		.loc 1 738 53
 338 0040 524B     		ldr	r3, .L27
 339 0042 1B68     		ldr	r3, [r3]
 340 0044 524A     		ldr	r2, .L27+4
 341 0046 A2FB0323 		umull	r2, r3, r2, r3
 342 004a 9A0C     		lsrs	r2, r3, #18
 343              		.loc 1 738 34
 344 004c 1346     		mov	r3, r2
 345 004e 5B00     		lsls	r3, r3, #1
 346 0050 1344     		add	r3, r3, r2
 347              		.loc 1 738 13
 348 0052 BB60     		str	r3, [r7, #8]
 739:Drivers/STM32F4xx_HAL_Driver/Src/stm32f4xx_hal_adc.c ****     while (counter != 0U)
 349              		.loc 1 739 11
 350 0054 02E0     		b	.L17
 351              	.L18:
 740:Drivers/STM32F4xx_HAL_Driver/Src/stm32f4xx_hal_adc.c ****     {
 741:Drivers/STM32F4xx_HAL_Driver/Src/stm32f4xx_hal_adc.c ****       counter--;
ARM GAS  C:\Users\Halil\AppData\Local\Temp\cc7e4Lrl.s 			page 20


 352              		.loc 1 741 14
 353 0056 BB68     		ldr	r3, [r7, #8]
 354 0058 013B     		subs	r3, r3, #1
 355 005a BB60     		str	r3, [r7, #8]
 356              	.L17:
 739:Drivers/STM32F4xx_HAL_Driver/Src/stm32f4xx_hal_adc.c ****     while (counter != 0U)
 357              		.loc 1 739 20
 358 005c BB68     		ldr	r3, [r7, #8]
 359 005e 002B     		cmp	r3, #0
 360 0060 F9D1     		bne	.L18
 361              	.L16:
 742:Drivers/STM32F4xx_HAL_Driver/Src/stm32f4xx_hal_adc.c ****     }
 743:Drivers/STM32F4xx_HAL_Driver/Src/stm32f4xx_hal_adc.c ****   }
 744:Drivers/STM32F4xx_HAL_Driver/Src/stm32f4xx_hal_adc.c **** 
 745:Drivers/STM32F4xx_HAL_Driver/Src/stm32f4xx_hal_adc.c ****   /* Start conversion if ADC is effectively enabled */
 746:Drivers/STM32F4xx_HAL_Driver/Src/stm32f4xx_hal_adc.c ****   if (HAL_IS_BIT_SET(hadc->Instance->CR2, ADC_CR2_ADON))
 362              		.loc 1 746 7
 363 0062 7B68     		ldr	r3, [r7, #4]
 364 0064 1B68     		ldr	r3, [r3]
 365 0066 9B68     		ldr	r3, [r3, #8]
 366 0068 03F00103 		and	r3, r3, #1
 367              		.loc 1 746 6
 368 006c 012B     		cmp	r3, #1
 369 006e 7AD1     		bne	.L19
 747:Drivers/STM32F4xx_HAL_Driver/Src/stm32f4xx_hal_adc.c ****   {
 748:Drivers/STM32F4xx_HAL_Driver/Src/stm32f4xx_hal_adc.c ****     /* Set ADC state                                                          */
 749:Drivers/STM32F4xx_HAL_Driver/Src/stm32f4xx_hal_adc.c ****     /* - Clear state bitfield related to regular group conversion results     */
 750:Drivers/STM32F4xx_HAL_Driver/Src/stm32f4xx_hal_adc.c ****     /* - Set state bitfield related to regular group operation                */
 751:Drivers/STM32F4xx_HAL_Driver/Src/stm32f4xx_hal_adc.c ****     ADC_STATE_CLR_SET(hadc->State,
 370              		.loc 1 751 5
 371 0070 7B68     		ldr	r3, [r7, #4]
 372 0072 1B6C     		ldr	r3, [r3, #64]
 373 0074 23F4E063 		bic	r3, r3, #1792
 374 0078 23F00103 		bic	r3, r3, #1
 375 007c 43F48072 		orr	r2, r3, #256
 376 0080 7B68     		ldr	r3, [r7, #4]
 377 0082 1A64     		str	r2, [r3, #64]
 752:Drivers/STM32F4xx_HAL_Driver/Src/stm32f4xx_hal_adc.c ****                       HAL_ADC_STATE_READY | HAL_ADC_STATE_REG_EOC | HAL_ADC_STATE_REG_OVR,
 753:Drivers/STM32F4xx_HAL_Driver/Src/stm32f4xx_hal_adc.c ****                       HAL_ADC_STATE_REG_BUSY);
 754:Drivers/STM32F4xx_HAL_Driver/Src/stm32f4xx_hal_adc.c **** 
 755:Drivers/STM32F4xx_HAL_Driver/Src/stm32f4xx_hal_adc.c ****     /* If conversions on group regular are also triggering group injected,    */
 756:Drivers/STM32F4xx_HAL_Driver/Src/stm32f4xx_hal_adc.c ****     /* update ADC state.                                                      */
 757:Drivers/STM32F4xx_HAL_Driver/Src/stm32f4xx_hal_adc.c ****     if (READ_BIT(hadc->Instance->CR1, ADC_CR1_JAUTO) != RESET)
 378              		.loc 1 757 9
 379 0084 7B68     		ldr	r3, [r7, #4]
 380 0086 1B68     		ldr	r3, [r3]
 381 0088 5B68     		ldr	r3, [r3, #4]
 382 008a 03F48063 		and	r3, r3, #1024
 383              		.loc 1 757 8
 384 008e 002B     		cmp	r3, #0
 385 0090 07D0     		beq	.L20
 758:Drivers/STM32F4xx_HAL_Driver/Src/stm32f4xx_hal_adc.c ****     {
 759:Drivers/STM32F4xx_HAL_Driver/Src/stm32f4xx_hal_adc.c ****       ADC_STATE_CLR_SET(hadc->State, HAL_ADC_STATE_INJ_EOC, HAL_ADC_STATE_INJ_BUSY);
 386              		.loc 1 759 7
 387 0092 7B68     		ldr	r3, [r7, #4]
 388 0094 1B6C     		ldr	r3, [r3, #64]
 389 0096 23F44053 		bic	r3, r3, #12288
ARM GAS  C:\Users\Halil\AppData\Local\Temp\cc7e4Lrl.s 			page 21


 390 009a 43F48052 		orr	r2, r3, #4096
 391 009e 7B68     		ldr	r3, [r7, #4]
 392 00a0 1A64     		str	r2, [r3, #64]
 393              	.L20:
 760:Drivers/STM32F4xx_HAL_Driver/Src/stm32f4xx_hal_adc.c ****     }
 761:Drivers/STM32F4xx_HAL_Driver/Src/stm32f4xx_hal_adc.c **** 
 762:Drivers/STM32F4xx_HAL_Driver/Src/stm32f4xx_hal_adc.c ****     /* State machine update: Check if an injected conversion is ongoing */
 763:Drivers/STM32F4xx_HAL_Driver/Src/stm32f4xx_hal_adc.c ****     if (HAL_IS_BIT_SET(hadc->State, HAL_ADC_STATE_INJ_BUSY))
 394              		.loc 1 763 9
 395 00a2 7B68     		ldr	r3, [r7, #4]
 396 00a4 1B6C     		ldr	r3, [r3, #64]
 397 00a6 03F48053 		and	r3, r3, #4096
 398              		.loc 1 763 8
 399 00aa B3F5805F 		cmp	r3, #4096
 400 00ae 06D1     		bne	.L21
 764:Drivers/STM32F4xx_HAL_Driver/Src/stm32f4xx_hal_adc.c ****     {
 765:Drivers/STM32F4xx_HAL_Driver/Src/stm32f4xx_hal_adc.c ****       /* Reset ADC error code fields related to conversions on group regular */
 766:Drivers/STM32F4xx_HAL_Driver/Src/stm32f4xx_hal_adc.c ****       CLEAR_BIT(hadc->ErrorCode, (HAL_ADC_ERROR_OVR | HAL_ADC_ERROR_DMA));
 401              		.loc 1 766 7
 402 00b0 7B68     		ldr	r3, [r7, #4]
 403 00b2 5B6C     		ldr	r3, [r3, #68]
 404 00b4 23F00602 		bic	r2, r3, #6
 405 00b8 7B68     		ldr	r3, [r7, #4]
 406 00ba 5A64     		str	r2, [r3, #68]
 407 00bc 02E0     		b	.L22
 408              	.L21:
 767:Drivers/STM32F4xx_HAL_Driver/Src/stm32f4xx_hal_adc.c ****     }
 768:Drivers/STM32F4xx_HAL_Driver/Src/stm32f4xx_hal_adc.c ****     else
 769:Drivers/STM32F4xx_HAL_Driver/Src/stm32f4xx_hal_adc.c ****     {
 770:Drivers/STM32F4xx_HAL_Driver/Src/stm32f4xx_hal_adc.c ****       /* Reset ADC all error code fields */
 771:Drivers/STM32F4xx_HAL_Driver/Src/stm32f4xx_hal_adc.c ****       ADC_CLEAR_ERRORCODE(hadc);
 409              		.loc 1 771 7
 410 00be 7B68     		ldr	r3, [r7, #4]
 411 00c0 0022     		movs	r2, #0
 412 00c2 5A64     		str	r2, [r3, #68]
 413              	.L22:
 772:Drivers/STM32F4xx_HAL_Driver/Src/stm32f4xx_hal_adc.c ****     }
 773:Drivers/STM32F4xx_HAL_Driver/Src/stm32f4xx_hal_adc.c **** 
 774:Drivers/STM32F4xx_HAL_Driver/Src/stm32f4xx_hal_adc.c ****     /* Process unlocked */
 775:Drivers/STM32F4xx_HAL_Driver/Src/stm32f4xx_hal_adc.c ****     /* Unlock before starting ADC conversions: in case of potential           */
 776:Drivers/STM32F4xx_HAL_Driver/Src/stm32f4xx_hal_adc.c ****     /* interruption, to let the process to ADC IRQ Handler.                   */
 777:Drivers/STM32F4xx_HAL_Driver/Src/stm32f4xx_hal_adc.c ****     __HAL_UNLOCK(hadc);
 414              		.loc 1 777 5
 415 00c4 7B68     		ldr	r3, [r7, #4]
 416 00c6 0022     		movs	r2, #0
 417 00c8 83F83C20 		strb	r2, [r3, #60]
 778:Drivers/STM32F4xx_HAL_Driver/Src/stm32f4xx_hal_adc.c **** 
 779:Drivers/STM32F4xx_HAL_Driver/Src/stm32f4xx_hal_adc.c ****     /* Pointer to the common control register to which is belonging hadc    */
 780:Drivers/STM32F4xx_HAL_Driver/Src/stm32f4xx_hal_adc.c ****     /* (Depending on STM32F4 product, there may be up to 3 ADCs and 1 common */
 781:Drivers/STM32F4xx_HAL_Driver/Src/stm32f4xx_hal_adc.c ****     /* control register)                                                    */
 782:Drivers/STM32F4xx_HAL_Driver/Src/stm32f4xx_hal_adc.c ****     tmpADC_Common = ADC_COMMON_REGISTER(hadc);
 418              		.loc 1 782 19
 419 00cc 314B     		ldr	r3, .L27+8
 420 00ce FB60     		str	r3, [r7, #12]
 783:Drivers/STM32F4xx_HAL_Driver/Src/stm32f4xx_hal_adc.c **** 
 784:Drivers/STM32F4xx_HAL_Driver/Src/stm32f4xx_hal_adc.c ****     /* Clear regular group conversion flag and overrun flag */
 785:Drivers/STM32F4xx_HAL_Driver/Src/stm32f4xx_hal_adc.c ****     /* (To ensure of no unknown state from potential previous ADC operations) */
ARM GAS  C:\Users\Halil\AppData\Local\Temp\cc7e4Lrl.s 			page 22


 786:Drivers/STM32F4xx_HAL_Driver/Src/stm32f4xx_hal_adc.c ****     __HAL_ADC_CLEAR_FLAG(hadc, ADC_FLAG_EOC | ADC_FLAG_OVR);
 421              		.loc 1 786 5
 422 00d0 7B68     		ldr	r3, [r7, #4]
 423 00d2 1B68     		ldr	r3, [r3]
 424 00d4 6FF02202 		mvn	r2, #34
 425 00d8 1A60     		str	r2, [r3]
 787:Drivers/STM32F4xx_HAL_Driver/Src/stm32f4xx_hal_adc.c **** 
 788:Drivers/STM32F4xx_HAL_Driver/Src/stm32f4xx_hal_adc.c ****     /* Check if Multimode enabled */
 789:Drivers/STM32F4xx_HAL_Driver/Src/stm32f4xx_hal_adc.c ****     if (HAL_IS_BIT_CLR(tmpADC_Common->CCR, ADC_CCR_MULTI))
 426              		.loc 1 789 9
 427 00da FB68     		ldr	r3, [r7, #12]
 428 00dc 5B68     		ldr	r3, [r3, #4]
 429 00de 03F01F03 		and	r3, r3, #31
 430              		.loc 1 789 8
 431 00e2 002B     		cmp	r3, #0
 432 00e4 2AD1     		bne	.L23
 790:Drivers/STM32F4xx_HAL_Driver/Src/stm32f4xx_hal_adc.c ****     {
 791:Drivers/STM32F4xx_HAL_Driver/Src/stm32f4xx_hal_adc.c **** #if defined(ADC2) && defined(ADC3)
 792:Drivers/STM32F4xx_HAL_Driver/Src/stm32f4xx_hal_adc.c ****       if ((hadc->Instance == ADC1) || ((hadc->Instance == ADC2) && ((ADC->CCR & ADC_CCR_MULTI_Msk) 
 433              		.loc 1 792 16
 434 00e6 7B68     		ldr	r3, [r7, #4]
 435 00e8 1B68     		ldr	r3, [r3]
 436              		.loc 1 792 10
 437 00ea 2B4A     		ldr	r2, .L27+12
 438 00ec 9342     		cmp	r3, r2
 439 00ee 15D0     		beq	.L24
 440              		.loc 1 792 45 discriminator 1
 441 00f0 7B68     		ldr	r3, [r7, #4]
 442 00f2 1B68     		ldr	r3, [r3]
 443              		.loc 1 792 36 discriminator 1
 444 00f4 294A     		ldr	r2, .L27+16
 445 00f6 9342     		cmp	r3, r2
 446 00f8 05D1     		bne	.L25
 447              		.loc 1 792 73 discriminator 2
 448 00fa 264B     		ldr	r3, .L27+8
 449 00fc 5B68     		ldr	r3, [r3, #4]
 450              		.loc 1 792 79 discriminator 2
 451 00fe 03F01F03 		and	r3, r3, #31
 452              		.loc 1 792 65 discriminator 2
 453 0102 002B     		cmp	r3, #0
 454 0104 0AD0     		beq	.L24
 455              	.L25:
 793:Drivers/STM32F4xx_HAL_Driver/Src/stm32f4xx_hal_adc.c ****           || ((hadc->Instance == ADC3) && ((ADC->CCR & ADC_CCR_MULTI_Msk) < ADC_CCR_MULTI_4)))
 456              		.loc 1 793 20
 457 0106 7B68     		ldr	r3, [r7, #4]
 458 0108 1B68     		ldr	r3, [r3]
 459              		.loc 1 793 11
 460 010a 254A     		ldr	r2, .L27+20
 461 010c 9342     		cmp	r3, r2
 462 010e 36D1     		bne	.L26
 463              		.loc 1 793 48 discriminator 1
 464 0110 204B     		ldr	r3, .L27+8
 465 0112 5B68     		ldr	r3, [r3, #4]
 466              		.loc 1 793 75 discriminator 1
 467 0114 03F01003 		and	r3, r3, #16
 468              		.loc 1 793 40 discriminator 1
 469 0118 002B     		cmp	r3, #0
ARM GAS  C:\Users\Halil\AppData\Local\Temp\cc7e4Lrl.s 			page 23


 470 011a 30D1     		bne	.L26
 471              	.L24:
 794:Drivers/STM32F4xx_HAL_Driver/Src/stm32f4xx_hal_adc.c ****       {
 795:Drivers/STM32F4xx_HAL_Driver/Src/stm32f4xx_hal_adc.c **** #endif /* ADC2 || ADC3 */
 796:Drivers/STM32F4xx_HAL_Driver/Src/stm32f4xx_hal_adc.c ****         /* if no external trigger present enable software conversion of regular channels */
 797:Drivers/STM32F4xx_HAL_Driver/Src/stm32f4xx_hal_adc.c ****         if ((hadc->Instance->CR2 & ADC_CR2_EXTEN) == RESET)
 472              		.loc 1 797 18
 473 011c 7B68     		ldr	r3, [r7, #4]
 474 011e 1B68     		ldr	r3, [r3]
 475              		.loc 1 797 28
 476 0120 9B68     		ldr	r3, [r3, #8]
 477              		.loc 1 797 34
 478 0122 03F04053 		and	r3, r3, #805306368
 479              		.loc 1 797 12
 480 0126 002B     		cmp	r3, #0
 481 0128 29D1     		bne	.L26
 798:Drivers/STM32F4xx_HAL_Driver/Src/stm32f4xx_hal_adc.c ****         {
 799:Drivers/STM32F4xx_HAL_Driver/Src/stm32f4xx_hal_adc.c ****           /* Enable the selected ADC software conversion for regular group */
 800:Drivers/STM32F4xx_HAL_Driver/Src/stm32f4xx_hal_adc.c ****           hadc->Instance->CR2 |= (uint32_t)ADC_CR2_SWSTART;
 482              		.loc 1 800 15
 483 012a 7B68     		ldr	r3, [r7, #4]
 484 012c 1B68     		ldr	r3, [r3]
 485              		.loc 1 800 25
 486 012e 9A68     		ldr	r2, [r3, #8]
 487              		.loc 1 800 15
 488 0130 7B68     		ldr	r3, [r7, #4]
 489 0132 1B68     		ldr	r3, [r3]
 490              		.loc 1 800 31
 491 0134 42F08042 		orr	r2, r2, #1073741824
 492 0138 9A60     		str	r2, [r3, #8]
 493 013a 20E0     		b	.L26
 494              	.L23:
 801:Drivers/STM32F4xx_HAL_Driver/Src/stm32f4xx_hal_adc.c ****         }
 802:Drivers/STM32F4xx_HAL_Driver/Src/stm32f4xx_hal_adc.c **** #if defined(ADC2) && defined(ADC3)
 803:Drivers/STM32F4xx_HAL_Driver/Src/stm32f4xx_hal_adc.c ****       }
 804:Drivers/STM32F4xx_HAL_Driver/Src/stm32f4xx_hal_adc.c **** #endif /* ADC2 || ADC3 */
 805:Drivers/STM32F4xx_HAL_Driver/Src/stm32f4xx_hal_adc.c ****     }
 806:Drivers/STM32F4xx_HAL_Driver/Src/stm32f4xx_hal_adc.c ****     else
 807:Drivers/STM32F4xx_HAL_Driver/Src/stm32f4xx_hal_adc.c ****     {
 808:Drivers/STM32F4xx_HAL_Driver/Src/stm32f4xx_hal_adc.c ****       /* if instance of handle correspond to ADC1 and  no external trigger present enable software 
 809:Drivers/STM32F4xx_HAL_Driver/Src/stm32f4xx_hal_adc.c ****       if ((hadc->Instance == ADC1) && ((hadc->Instance->CR2 & ADC_CR2_EXTEN) == RESET))
 495              		.loc 1 809 16
 496 013c 7B68     		ldr	r3, [r7, #4]
 497 013e 1B68     		ldr	r3, [r3]
 498              		.loc 1 809 10
 499 0140 154A     		ldr	r2, .L27+12
 500 0142 9342     		cmp	r3, r2
 501 0144 1BD1     		bne	.L26
 502              		.loc 1 809 45 discriminator 1
 503 0146 7B68     		ldr	r3, [r7, #4]
 504 0148 1B68     		ldr	r3, [r3]
 505              		.loc 1 809 55 discriminator 1
 506 014a 9B68     		ldr	r3, [r3, #8]
 507              		.loc 1 809 61 discriminator 1
 508 014c 03F04053 		and	r3, r3, #805306368
 509              		.loc 1 809 36 discriminator 1
 510 0150 002B     		cmp	r3, #0
ARM GAS  C:\Users\Halil\AppData\Local\Temp\cc7e4Lrl.s 			page 24


 511 0152 14D1     		bne	.L26
 810:Drivers/STM32F4xx_HAL_Driver/Src/stm32f4xx_hal_adc.c ****       {
 811:Drivers/STM32F4xx_HAL_Driver/Src/stm32f4xx_hal_adc.c ****         /* Enable the selected ADC software conversion for regular group */
 812:Drivers/STM32F4xx_HAL_Driver/Src/stm32f4xx_hal_adc.c ****         hadc->Instance->CR2 |= (uint32_t)ADC_CR2_SWSTART;
 512              		.loc 1 812 13
 513 0154 7B68     		ldr	r3, [r7, #4]
 514 0156 1B68     		ldr	r3, [r3]
 515              		.loc 1 812 23
 516 0158 9A68     		ldr	r2, [r3, #8]
 517              		.loc 1 812 13
 518 015a 7B68     		ldr	r3, [r7, #4]
 519 015c 1B68     		ldr	r3, [r3]
 520              		.loc 1 812 29
 521 015e 42F08042 		orr	r2, r2, #1073741824
 522 0162 9A60     		str	r2, [r3, #8]
 523 0164 0BE0     		b	.L26
 524              	.L19:
 813:Drivers/STM32F4xx_HAL_Driver/Src/stm32f4xx_hal_adc.c ****       }
 814:Drivers/STM32F4xx_HAL_Driver/Src/stm32f4xx_hal_adc.c ****     }
 815:Drivers/STM32F4xx_HAL_Driver/Src/stm32f4xx_hal_adc.c ****   }
 816:Drivers/STM32F4xx_HAL_Driver/Src/stm32f4xx_hal_adc.c ****   else
 817:Drivers/STM32F4xx_HAL_Driver/Src/stm32f4xx_hal_adc.c ****   {
 818:Drivers/STM32F4xx_HAL_Driver/Src/stm32f4xx_hal_adc.c ****     /* Update ADC state machine to error */
 819:Drivers/STM32F4xx_HAL_Driver/Src/stm32f4xx_hal_adc.c ****     SET_BIT(hadc->State, HAL_ADC_STATE_ERROR_INTERNAL);
 525              		.loc 1 819 5
 526 0166 7B68     		ldr	r3, [r7, #4]
 527 0168 1B6C     		ldr	r3, [r3, #64]
 528 016a 43F01002 		orr	r2, r3, #16
 529 016e 7B68     		ldr	r3, [r7, #4]
 530 0170 1A64     		str	r2, [r3, #64]
 820:Drivers/STM32F4xx_HAL_Driver/Src/stm32f4xx_hal_adc.c **** 
 821:Drivers/STM32F4xx_HAL_Driver/Src/stm32f4xx_hal_adc.c ****     /* Set ADC error code to ADC IP internal error */
 822:Drivers/STM32F4xx_HAL_Driver/Src/stm32f4xx_hal_adc.c ****     SET_BIT(hadc->ErrorCode, HAL_ADC_ERROR_INTERNAL);
 531              		.loc 1 822 5
 532 0172 7B68     		ldr	r3, [r7, #4]
 533 0174 5B6C     		ldr	r3, [r3, #68]
 534 0176 43F00102 		orr	r2, r3, #1
 535 017a 7B68     		ldr	r3, [r7, #4]
 536 017c 5A64     		str	r2, [r3, #68]
 537              	.L26:
 823:Drivers/STM32F4xx_HAL_Driver/Src/stm32f4xx_hal_adc.c ****   }
 824:Drivers/STM32F4xx_HAL_Driver/Src/stm32f4xx_hal_adc.c **** 
 825:Drivers/STM32F4xx_HAL_Driver/Src/stm32f4xx_hal_adc.c ****   /* Return function status */
 826:Drivers/STM32F4xx_HAL_Driver/Src/stm32f4xx_hal_adc.c ****   return HAL_OK;
 538              		.loc 1 826 10
 539 017e 0023     		movs	r3, #0
 540              	.L15:
 827:Drivers/STM32F4xx_HAL_Driver/Src/stm32f4xx_hal_adc.c **** }
 541              		.loc 1 827 1
 542 0180 1846     		mov	r0, r3
 543 0182 1437     		adds	r7, r7, #20
 544              		.cfi_def_cfa_offset 4
 545 0184 BD46     		mov	sp, r7
 546              		.cfi_def_cfa_register 13
 547              		@ sp needed
 548 0186 5DF8047B 		ldr	r7, [sp], #4
 549              		.cfi_restore 7
ARM GAS  C:\Users\Halil\AppData\Local\Temp\cc7e4Lrl.s 			page 25


 550              		.cfi_def_cfa_offset 0
 551 018a 7047     		bx	lr
 552              	.L28:
 553              		.align	2
 554              	.L27:
 555 018c 00000000 		.word	SystemCoreClock
 556 0190 83DE1B43 		.word	1125899907
 557 0194 00230140 		.word	1073816320
 558 0198 00200140 		.word	1073815552
 559 019c 00210140 		.word	1073815808
 560 01a0 00220140 		.word	1073816064
 561              		.cfi_endproc
 562              	.LFE243:
 564              		.section	.text.HAL_ADC_Stop,"ax",%progbits
 565              		.align	1
 566              		.global	HAL_ADC_Stop
 567              		.syntax unified
 568              		.thumb
 569              		.thumb_func
 571              	HAL_ADC_Stop:
 572              	.LFB244:
 828:Drivers/STM32F4xx_HAL_Driver/Src/stm32f4xx_hal_adc.c **** 
 829:Drivers/STM32F4xx_HAL_Driver/Src/stm32f4xx_hal_adc.c **** /**
 830:Drivers/STM32F4xx_HAL_Driver/Src/stm32f4xx_hal_adc.c ****   * @brief  Disables ADC and stop conversion of regular channels.
 831:Drivers/STM32F4xx_HAL_Driver/Src/stm32f4xx_hal_adc.c ****   *
 832:Drivers/STM32F4xx_HAL_Driver/Src/stm32f4xx_hal_adc.c ****   * @note   Caution: This function will stop also injected channels.
 833:Drivers/STM32F4xx_HAL_Driver/Src/stm32f4xx_hal_adc.c ****   *
 834:Drivers/STM32F4xx_HAL_Driver/Src/stm32f4xx_hal_adc.c ****   * @param  hadc pointer to a ADC_HandleTypeDef structure that contains
 835:Drivers/STM32F4xx_HAL_Driver/Src/stm32f4xx_hal_adc.c ****   *         the configuration information for the specified ADC.
 836:Drivers/STM32F4xx_HAL_Driver/Src/stm32f4xx_hal_adc.c ****   *
 837:Drivers/STM32F4xx_HAL_Driver/Src/stm32f4xx_hal_adc.c ****   * @retval HAL status.
 838:Drivers/STM32F4xx_HAL_Driver/Src/stm32f4xx_hal_adc.c ****   */
 839:Drivers/STM32F4xx_HAL_Driver/Src/stm32f4xx_hal_adc.c **** HAL_StatusTypeDef HAL_ADC_Stop(ADC_HandleTypeDef *hadc)
 840:Drivers/STM32F4xx_HAL_Driver/Src/stm32f4xx_hal_adc.c **** {
 573              		.loc 1 840 1
 574              		.cfi_startproc
 575              		@ args = 0, pretend = 0, frame = 8
 576              		@ frame_needed = 1, uses_anonymous_args = 0
 577              		@ link register save eliminated.
 578 0000 80B4     		push	{r7}
 579              		.cfi_def_cfa_offset 4
 580              		.cfi_offset 7, -4
 581 0002 83B0     		sub	sp, sp, #12
 582              		.cfi_def_cfa_offset 16
 583 0004 00AF     		add	r7, sp, #0
 584              		.cfi_def_cfa_register 7
 585 0006 7860     		str	r0, [r7, #4]
 841:Drivers/STM32F4xx_HAL_Driver/Src/stm32f4xx_hal_adc.c ****   /* Check the parameters */
 842:Drivers/STM32F4xx_HAL_Driver/Src/stm32f4xx_hal_adc.c ****   assert_param(IS_ADC_ALL_INSTANCE(hadc->Instance));
 843:Drivers/STM32F4xx_HAL_Driver/Src/stm32f4xx_hal_adc.c **** 
 844:Drivers/STM32F4xx_HAL_Driver/Src/stm32f4xx_hal_adc.c ****   /* Process locked */
 845:Drivers/STM32F4xx_HAL_Driver/Src/stm32f4xx_hal_adc.c ****   __HAL_LOCK(hadc);
 586              		.loc 1 845 3
 587 0008 7B68     		ldr	r3, [r7, #4]
 588 000a 93F83C30 		ldrb	r3, [r3, #60]	@ zero_extendqisi2
 589 000e 012B     		cmp	r3, #1
 590 0010 01D1     		bne	.L30
ARM GAS  C:\Users\Halil\AppData\Local\Temp\cc7e4Lrl.s 			page 26


 591              		.loc 1 845 3 is_stmt 0 discriminator 1
 592 0012 0223     		movs	r3, #2
 593 0014 21E0     		b	.L31
 594              	.L30:
 595              		.loc 1 845 3 discriminator 2
 596 0016 7B68     		ldr	r3, [r7, #4]
 597 0018 0122     		movs	r2, #1
 598 001a 83F83C20 		strb	r2, [r3, #60]
 846:Drivers/STM32F4xx_HAL_Driver/Src/stm32f4xx_hal_adc.c **** 
 847:Drivers/STM32F4xx_HAL_Driver/Src/stm32f4xx_hal_adc.c ****   /* Stop potential conversion on going, on regular and injected groups */
 848:Drivers/STM32F4xx_HAL_Driver/Src/stm32f4xx_hal_adc.c ****   /* Disable ADC peripheral */
 849:Drivers/STM32F4xx_HAL_Driver/Src/stm32f4xx_hal_adc.c ****   __HAL_ADC_DISABLE(hadc);
 599              		.loc 1 849 3 is_stmt 1 discriminator 2
 600 001e 7B68     		ldr	r3, [r7, #4]
 601 0020 1B68     		ldr	r3, [r3]
 602 0022 9A68     		ldr	r2, [r3, #8]
 603 0024 7B68     		ldr	r3, [r7, #4]
 604 0026 1B68     		ldr	r3, [r3]
 605 0028 22F00102 		bic	r2, r2, #1
 606 002c 9A60     		str	r2, [r3, #8]
 850:Drivers/STM32F4xx_HAL_Driver/Src/stm32f4xx_hal_adc.c **** 
 851:Drivers/STM32F4xx_HAL_Driver/Src/stm32f4xx_hal_adc.c ****   /* Check if ADC is effectively disabled */
 852:Drivers/STM32F4xx_HAL_Driver/Src/stm32f4xx_hal_adc.c ****   if (HAL_IS_BIT_CLR(hadc->Instance->CR2, ADC_CR2_ADON))
 607              		.loc 1 852 7 discriminator 2
 608 002e 7B68     		ldr	r3, [r7, #4]
 609 0030 1B68     		ldr	r3, [r3]
 610 0032 9B68     		ldr	r3, [r3, #8]
 611 0034 03F00103 		and	r3, r3, #1
 612              		.loc 1 852 6 discriminator 2
 613 0038 002B     		cmp	r3, #0
 614 003a 09D1     		bne	.L32
 853:Drivers/STM32F4xx_HAL_Driver/Src/stm32f4xx_hal_adc.c ****   {
 854:Drivers/STM32F4xx_HAL_Driver/Src/stm32f4xx_hal_adc.c ****     /* Set ADC state */
 855:Drivers/STM32F4xx_HAL_Driver/Src/stm32f4xx_hal_adc.c ****     ADC_STATE_CLR_SET(hadc->State,
 615              		.loc 1 855 5
 616 003c 7B68     		ldr	r3, [r7, #4]
 617 003e 1B6C     		ldr	r3, [r3, #64]
 618 0040 23F48853 		bic	r3, r3, #4352
 619 0044 23F00103 		bic	r3, r3, #1
 620 0048 43F00102 		orr	r2, r3, #1
 621 004c 7B68     		ldr	r3, [r7, #4]
 622 004e 1A64     		str	r2, [r3, #64]
 623              	.L32:
 856:Drivers/STM32F4xx_HAL_Driver/Src/stm32f4xx_hal_adc.c ****                       HAL_ADC_STATE_REG_BUSY | HAL_ADC_STATE_INJ_BUSY,
 857:Drivers/STM32F4xx_HAL_Driver/Src/stm32f4xx_hal_adc.c ****                       HAL_ADC_STATE_READY);
 858:Drivers/STM32F4xx_HAL_Driver/Src/stm32f4xx_hal_adc.c ****   }
 859:Drivers/STM32F4xx_HAL_Driver/Src/stm32f4xx_hal_adc.c **** 
 860:Drivers/STM32F4xx_HAL_Driver/Src/stm32f4xx_hal_adc.c ****   /* Process unlocked */
 861:Drivers/STM32F4xx_HAL_Driver/Src/stm32f4xx_hal_adc.c ****   __HAL_UNLOCK(hadc);
 624              		.loc 1 861 3
 625 0050 7B68     		ldr	r3, [r7, #4]
 626 0052 0022     		movs	r2, #0
 627 0054 83F83C20 		strb	r2, [r3, #60]
 862:Drivers/STM32F4xx_HAL_Driver/Src/stm32f4xx_hal_adc.c **** 
 863:Drivers/STM32F4xx_HAL_Driver/Src/stm32f4xx_hal_adc.c ****   /* Return function status */
 864:Drivers/STM32F4xx_HAL_Driver/Src/stm32f4xx_hal_adc.c ****   return HAL_OK;
 628              		.loc 1 864 10
ARM GAS  C:\Users\Halil\AppData\Local\Temp\cc7e4Lrl.s 			page 27


 629 0058 0023     		movs	r3, #0
 630              	.L31:
 865:Drivers/STM32F4xx_HAL_Driver/Src/stm32f4xx_hal_adc.c **** }
 631              		.loc 1 865 1
 632 005a 1846     		mov	r0, r3
 633 005c 0C37     		adds	r7, r7, #12
 634              		.cfi_def_cfa_offset 4
 635 005e BD46     		mov	sp, r7
 636              		.cfi_def_cfa_register 13
 637              		@ sp needed
 638 0060 5DF8047B 		ldr	r7, [sp], #4
 639              		.cfi_restore 7
 640              		.cfi_def_cfa_offset 0
 641 0064 7047     		bx	lr
 642              		.cfi_endproc
 643              	.LFE244:
 645              		.section	.text.HAL_ADC_PollForConversion,"ax",%progbits
 646              		.align	1
 647              		.global	HAL_ADC_PollForConversion
 648              		.syntax unified
 649              		.thumb
 650              		.thumb_func
 652              	HAL_ADC_PollForConversion:
 653              	.LFB245:
 866:Drivers/STM32F4xx_HAL_Driver/Src/stm32f4xx_hal_adc.c **** 
 867:Drivers/STM32F4xx_HAL_Driver/Src/stm32f4xx_hal_adc.c **** /**
 868:Drivers/STM32F4xx_HAL_Driver/Src/stm32f4xx_hal_adc.c ****   * @brief  Poll for regular conversion complete
 869:Drivers/STM32F4xx_HAL_Driver/Src/stm32f4xx_hal_adc.c ****   * @note   ADC conversion flags EOS (end of sequence) and EOC (end of
 870:Drivers/STM32F4xx_HAL_Driver/Src/stm32f4xx_hal_adc.c ****   *         conversion) are cleared by this function.
 871:Drivers/STM32F4xx_HAL_Driver/Src/stm32f4xx_hal_adc.c ****   * @note   This function cannot be used in a particular setup: ADC configured
 872:Drivers/STM32F4xx_HAL_Driver/Src/stm32f4xx_hal_adc.c ****   *         in DMA mode and polling for end of each conversion (ADC init
 873:Drivers/STM32F4xx_HAL_Driver/Src/stm32f4xx_hal_adc.c ****   *         parameter "EOCSelection" set to ADC_EOC_SINGLE_CONV).
 874:Drivers/STM32F4xx_HAL_Driver/Src/stm32f4xx_hal_adc.c ****   *         In this case, DMA resets the flag EOC and polling cannot be
 875:Drivers/STM32F4xx_HAL_Driver/Src/stm32f4xx_hal_adc.c ****   *         performed on each conversion. Nevertheless, polling can still
 876:Drivers/STM32F4xx_HAL_Driver/Src/stm32f4xx_hal_adc.c ****   *         be performed on the complete sequence.
 877:Drivers/STM32F4xx_HAL_Driver/Src/stm32f4xx_hal_adc.c ****   * @param  hadc pointer to a ADC_HandleTypeDef structure that contains
 878:Drivers/STM32F4xx_HAL_Driver/Src/stm32f4xx_hal_adc.c ****   *         the configuration information for the specified ADC.
 879:Drivers/STM32F4xx_HAL_Driver/Src/stm32f4xx_hal_adc.c ****   * @param  Timeout Timeout value in millisecond.
 880:Drivers/STM32F4xx_HAL_Driver/Src/stm32f4xx_hal_adc.c ****   * @retval HAL status
 881:Drivers/STM32F4xx_HAL_Driver/Src/stm32f4xx_hal_adc.c ****   */
 882:Drivers/STM32F4xx_HAL_Driver/Src/stm32f4xx_hal_adc.c **** HAL_StatusTypeDef HAL_ADC_PollForConversion(ADC_HandleTypeDef *hadc, uint32_t Timeout)
 883:Drivers/STM32F4xx_HAL_Driver/Src/stm32f4xx_hal_adc.c **** {
 654              		.loc 1 883 1
 655              		.cfi_startproc
 656              		@ args = 0, pretend = 0, frame = 16
 657              		@ frame_needed = 1, uses_anonymous_args = 0
 658 0000 80B5     		push	{r7, lr}
 659              		.cfi_def_cfa_offset 8
 660              		.cfi_offset 7, -8
 661              		.cfi_offset 14, -4
 662 0002 84B0     		sub	sp, sp, #16
 663              		.cfi_def_cfa_offset 24
 664 0004 00AF     		add	r7, sp, #0
 665              		.cfi_def_cfa_register 7
 666 0006 7860     		str	r0, [r7, #4]
 667 0008 3960     		str	r1, [r7]
 884:Drivers/STM32F4xx_HAL_Driver/Src/stm32f4xx_hal_adc.c ****   uint32_t tickstart = 0U;
ARM GAS  C:\Users\Halil\AppData\Local\Temp\cc7e4Lrl.s 			page 28


 668              		.loc 1 884 12
 669 000a 0023     		movs	r3, #0
 670 000c FB60     		str	r3, [r7, #12]
 885:Drivers/STM32F4xx_HAL_Driver/Src/stm32f4xx_hal_adc.c **** 
 886:Drivers/STM32F4xx_HAL_Driver/Src/stm32f4xx_hal_adc.c ****   /* Verification that ADC configuration is compliant with polling for      */
 887:Drivers/STM32F4xx_HAL_Driver/Src/stm32f4xx_hal_adc.c ****   /* each conversion:                                                       */
 888:Drivers/STM32F4xx_HAL_Driver/Src/stm32f4xx_hal_adc.c ****   /* Particular case is ADC configured in DMA mode and ADC sequencer with   */
 889:Drivers/STM32F4xx_HAL_Driver/Src/stm32f4xx_hal_adc.c ****   /* several ranks and polling for end of each conversion.                  */
 890:Drivers/STM32F4xx_HAL_Driver/Src/stm32f4xx_hal_adc.c ****   /* For code simplicity sake, this particular case is generalized to       */
 891:Drivers/STM32F4xx_HAL_Driver/Src/stm32f4xx_hal_adc.c ****   /* ADC configured in DMA mode and polling for end of each conversion.     */
 892:Drivers/STM32F4xx_HAL_Driver/Src/stm32f4xx_hal_adc.c ****   if (HAL_IS_BIT_SET(hadc->Instance->CR2, ADC_CR2_EOCS) &&
 671              		.loc 1 892 7
 672 000e 7B68     		ldr	r3, [r7, #4]
 673 0010 1B68     		ldr	r3, [r3]
 674 0012 9B68     		ldr	r3, [r3, #8]
 675 0014 03F48063 		and	r3, r3, #1024
 676              		.loc 1 892 6
 677 0018 B3F5806F 		cmp	r3, #1024
 678 001c 13D1     		bne	.L34
 893:Drivers/STM32F4xx_HAL_Driver/Src/stm32f4xx_hal_adc.c ****       HAL_IS_BIT_SET(hadc->Instance->CR2, ADC_CR2_DMA))
 679              		.loc 1 893 7 discriminator 1
 680 001e 7B68     		ldr	r3, [r7, #4]
 681 0020 1B68     		ldr	r3, [r3]
 682 0022 9B68     		ldr	r3, [r3, #8]
 683 0024 03F48073 		and	r3, r3, #256
 892:Drivers/STM32F4xx_HAL_Driver/Src/stm32f4xx_hal_adc.c ****       HAL_IS_BIT_SET(hadc->Instance->CR2, ADC_CR2_DMA))
 684              		.loc 1 892 57 discriminator 1
 685 0028 B3F5807F 		cmp	r3, #256
 686 002c 0BD1     		bne	.L34
 894:Drivers/STM32F4xx_HAL_Driver/Src/stm32f4xx_hal_adc.c ****   {
 895:Drivers/STM32F4xx_HAL_Driver/Src/stm32f4xx_hal_adc.c ****     /* Update ADC state machine to error */
 896:Drivers/STM32F4xx_HAL_Driver/Src/stm32f4xx_hal_adc.c ****     SET_BIT(hadc->State, HAL_ADC_STATE_ERROR_CONFIG);
 687              		.loc 1 896 5
 688 002e 7B68     		ldr	r3, [r7, #4]
 689 0030 1B6C     		ldr	r3, [r3, #64]
 690 0032 43F02002 		orr	r2, r3, #32
 691 0036 7B68     		ldr	r3, [r7, #4]
 692 0038 1A64     		str	r2, [r3, #64]
 897:Drivers/STM32F4xx_HAL_Driver/Src/stm32f4xx_hal_adc.c **** 
 898:Drivers/STM32F4xx_HAL_Driver/Src/stm32f4xx_hal_adc.c ****     /* Process unlocked */
 899:Drivers/STM32F4xx_HAL_Driver/Src/stm32f4xx_hal_adc.c ****     __HAL_UNLOCK(hadc);
 693              		.loc 1 899 5
 694 003a 7B68     		ldr	r3, [r7, #4]
 695 003c 0022     		movs	r2, #0
 696 003e 83F83C20 		strb	r2, [r3, #60]
 900:Drivers/STM32F4xx_HAL_Driver/Src/stm32f4xx_hal_adc.c **** 
 901:Drivers/STM32F4xx_HAL_Driver/Src/stm32f4xx_hal_adc.c ****     return HAL_ERROR;
 697              		.loc 1 901 12
 698 0042 0123     		movs	r3, #1
 699 0044 63E0     		b	.L35
 700              	.L34:
 902:Drivers/STM32F4xx_HAL_Driver/Src/stm32f4xx_hal_adc.c ****   }
 903:Drivers/STM32F4xx_HAL_Driver/Src/stm32f4xx_hal_adc.c **** 
 904:Drivers/STM32F4xx_HAL_Driver/Src/stm32f4xx_hal_adc.c ****   /* Get tick */
 905:Drivers/STM32F4xx_HAL_Driver/Src/stm32f4xx_hal_adc.c ****   tickstart = HAL_GetTick();
 701              		.loc 1 905 15
 702 0046 FFF7FEFF 		bl	HAL_GetTick
ARM GAS  C:\Users\Halil\AppData\Local\Temp\cc7e4Lrl.s 			page 29


 703 004a F860     		str	r0, [r7, #12]
 906:Drivers/STM32F4xx_HAL_Driver/Src/stm32f4xx_hal_adc.c **** 
 907:Drivers/STM32F4xx_HAL_Driver/Src/stm32f4xx_hal_adc.c ****   /* Check End of conversion flag */
 908:Drivers/STM32F4xx_HAL_Driver/Src/stm32f4xx_hal_adc.c ****   while (!(__HAL_ADC_GET_FLAG(hadc, ADC_FLAG_EOC)))
 704              		.loc 1 908 9
 705 004c 21E0     		b	.L37
 706              	.L40:
 909:Drivers/STM32F4xx_HAL_Driver/Src/stm32f4xx_hal_adc.c ****   {
 910:Drivers/STM32F4xx_HAL_Driver/Src/stm32f4xx_hal_adc.c ****     /* Check if timeout is disabled (set to infinite wait) */
 911:Drivers/STM32F4xx_HAL_Driver/Src/stm32f4xx_hal_adc.c ****     if (Timeout != HAL_MAX_DELAY)
 707              		.loc 1 911 8
 708 004e 3B68     		ldr	r3, [r7]
 709 0050 B3F1FF3F 		cmp	r3, #-1
 710 0054 1DD0     		beq	.L37
 912:Drivers/STM32F4xx_HAL_Driver/Src/stm32f4xx_hal_adc.c ****     {
 913:Drivers/STM32F4xx_HAL_Driver/Src/stm32f4xx_hal_adc.c ****       if ((Timeout == 0U) || ((HAL_GetTick() - tickstart) > Timeout))
 711              		.loc 1 913 10
 712 0056 3B68     		ldr	r3, [r7]
 713 0058 002B     		cmp	r3, #0
 714 005a 07D0     		beq	.L38
 715              		.loc 1 913 32 discriminator 1
 716 005c FFF7FEFF 		bl	HAL_GetTick
 717 0060 0246     		mov	r2, r0
 718              		.loc 1 913 46 discriminator 1
 719 0062 FB68     		ldr	r3, [r7, #12]
 720 0064 D31A     		subs	r3, r2, r3
 721              		.loc 1 913 27 discriminator 1
 722 0066 3A68     		ldr	r2, [r7]
 723 0068 9A42     		cmp	r2, r3
 724 006a 12D2     		bcs	.L37
 725              	.L38:
 914:Drivers/STM32F4xx_HAL_Driver/Src/stm32f4xx_hal_adc.c ****       {
 915:Drivers/STM32F4xx_HAL_Driver/Src/stm32f4xx_hal_adc.c ****         /* New check to avoid false timeout detection in case of preemption */
 916:Drivers/STM32F4xx_HAL_Driver/Src/stm32f4xx_hal_adc.c ****         if (!(__HAL_ADC_GET_FLAG(hadc, ADC_FLAG_EOC)))
 726              		.loc 1 916 15
 727 006c 7B68     		ldr	r3, [r7, #4]
 728 006e 1B68     		ldr	r3, [r3]
 729 0070 1B68     		ldr	r3, [r3]
 730 0072 03F00203 		and	r3, r3, #2
 731              		.loc 1 916 12
 732 0076 022B     		cmp	r3, #2
 733 0078 0BD0     		beq	.L37
 917:Drivers/STM32F4xx_HAL_Driver/Src/stm32f4xx_hal_adc.c ****         {
 918:Drivers/STM32F4xx_HAL_Driver/Src/stm32f4xx_hal_adc.c ****           /* Update ADC state machine to timeout */
 919:Drivers/STM32F4xx_HAL_Driver/Src/stm32f4xx_hal_adc.c ****           SET_BIT(hadc->State, HAL_ADC_STATE_TIMEOUT);
 734              		.loc 1 919 11
 735 007a 7B68     		ldr	r3, [r7, #4]
 736 007c 1B6C     		ldr	r3, [r3, #64]
 737 007e 43F00402 		orr	r2, r3, #4
 738 0082 7B68     		ldr	r3, [r7, #4]
 739 0084 1A64     		str	r2, [r3, #64]
 920:Drivers/STM32F4xx_HAL_Driver/Src/stm32f4xx_hal_adc.c **** 
 921:Drivers/STM32F4xx_HAL_Driver/Src/stm32f4xx_hal_adc.c ****           /* Process unlocked */
 922:Drivers/STM32F4xx_HAL_Driver/Src/stm32f4xx_hal_adc.c ****           __HAL_UNLOCK(hadc);
 740              		.loc 1 922 11
 741 0086 7B68     		ldr	r3, [r7, #4]
 742 0088 0022     		movs	r2, #0
ARM GAS  C:\Users\Halil\AppData\Local\Temp\cc7e4Lrl.s 			page 30


 743 008a 83F83C20 		strb	r2, [r3, #60]
 923:Drivers/STM32F4xx_HAL_Driver/Src/stm32f4xx_hal_adc.c **** 
 924:Drivers/STM32F4xx_HAL_Driver/Src/stm32f4xx_hal_adc.c ****           return HAL_TIMEOUT;
 744              		.loc 1 924 18
 745 008e 0323     		movs	r3, #3
 746 0090 3DE0     		b	.L35
 747              	.L37:
 908:Drivers/STM32F4xx_HAL_Driver/Src/stm32f4xx_hal_adc.c ****   {
 748              		.loc 1 908 12
 749 0092 7B68     		ldr	r3, [r7, #4]
 750 0094 1B68     		ldr	r3, [r3]
 751 0096 1B68     		ldr	r3, [r3]
 752 0098 03F00203 		and	r3, r3, #2
 908:Drivers/STM32F4xx_HAL_Driver/Src/stm32f4xx_hal_adc.c ****   {
 753              		.loc 1 908 10
 754 009c 022B     		cmp	r3, #2
 755 009e D6D1     		bne	.L40
 925:Drivers/STM32F4xx_HAL_Driver/Src/stm32f4xx_hal_adc.c ****         }
 926:Drivers/STM32F4xx_HAL_Driver/Src/stm32f4xx_hal_adc.c ****       }
 927:Drivers/STM32F4xx_HAL_Driver/Src/stm32f4xx_hal_adc.c ****     }
 928:Drivers/STM32F4xx_HAL_Driver/Src/stm32f4xx_hal_adc.c ****   }
 929:Drivers/STM32F4xx_HAL_Driver/Src/stm32f4xx_hal_adc.c **** 
 930:Drivers/STM32F4xx_HAL_Driver/Src/stm32f4xx_hal_adc.c ****   /* Clear regular group conversion flag */
 931:Drivers/STM32F4xx_HAL_Driver/Src/stm32f4xx_hal_adc.c ****   __HAL_ADC_CLEAR_FLAG(hadc, ADC_FLAG_STRT | ADC_FLAG_EOC);
 756              		.loc 1 931 3
 757 00a0 7B68     		ldr	r3, [r7, #4]
 758 00a2 1B68     		ldr	r3, [r3]
 759 00a4 6FF01202 		mvn	r2, #18
 760 00a8 1A60     		str	r2, [r3]
 932:Drivers/STM32F4xx_HAL_Driver/Src/stm32f4xx_hal_adc.c **** 
 933:Drivers/STM32F4xx_HAL_Driver/Src/stm32f4xx_hal_adc.c ****   /* Update ADC state machine */
 934:Drivers/STM32F4xx_HAL_Driver/Src/stm32f4xx_hal_adc.c ****   SET_BIT(hadc->State, HAL_ADC_STATE_REG_EOC);
 761              		.loc 1 934 3
 762 00aa 7B68     		ldr	r3, [r7, #4]
 763 00ac 1B6C     		ldr	r3, [r3, #64]
 764 00ae 43F40072 		orr	r2, r3, #512
 765 00b2 7B68     		ldr	r3, [r7, #4]
 766 00b4 1A64     		str	r2, [r3, #64]
 935:Drivers/STM32F4xx_HAL_Driver/Src/stm32f4xx_hal_adc.c **** 
 936:Drivers/STM32F4xx_HAL_Driver/Src/stm32f4xx_hal_adc.c ****   /* Determine whether any further conversion upcoming on group regular       */
 937:Drivers/STM32F4xx_HAL_Driver/Src/stm32f4xx_hal_adc.c ****   /* by external trigger, continuous mode or scan sequence on going.          */
 938:Drivers/STM32F4xx_HAL_Driver/Src/stm32f4xx_hal_adc.c ****   /* Note: On STM32F4, there is no independent flag of end of sequence.       */
 939:Drivers/STM32F4xx_HAL_Driver/Src/stm32f4xx_hal_adc.c ****   /*       The test of scan sequence on going is done either with scan        */
 940:Drivers/STM32F4xx_HAL_Driver/Src/stm32f4xx_hal_adc.c ****   /*       sequence disabled or with end of conversion flag set to            */
 941:Drivers/STM32F4xx_HAL_Driver/Src/stm32f4xx_hal_adc.c ****   /*       of end of sequence.                                                */
 942:Drivers/STM32F4xx_HAL_Driver/Src/stm32f4xx_hal_adc.c ****   if (ADC_IS_SOFTWARE_START_REGULAR(hadc)                   &&
 767              		.loc 1 942 7
 768 00b6 7B68     		ldr	r3, [r7, #4]
 769 00b8 1B68     		ldr	r3, [r3]
 770 00ba 9B68     		ldr	r3, [r3, #8]
 771 00bc 03F04053 		and	r3, r3, #805306368
 772              		.loc 1 942 6
 773 00c0 002B     		cmp	r3, #0
 774 00c2 23D1     		bne	.L41
 943:Drivers/STM32F4xx_HAL_Driver/Src/stm32f4xx_hal_adc.c ****       (hadc->Init.ContinuousConvMode == DISABLE)            &&
 775              		.loc 1 943 18 discriminator 1
 776 00c4 7B68     		ldr	r3, [r7, #4]
ARM GAS  C:\Users\Halil\AppData\Local\Temp\cc7e4Lrl.s 			page 31


 777 00c6 1B7E     		ldrb	r3, [r3, #24]	@ zero_extendqisi2
 942:Drivers/STM32F4xx_HAL_Driver/Src/stm32f4xx_hal_adc.c ****       (hadc->Init.ContinuousConvMode == DISABLE)            &&
 778              		.loc 1 942 61 discriminator 1
 779 00c8 002B     		cmp	r3, #0
 780 00ca 1FD1     		bne	.L41
 944:Drivers/STM32F4xx_HAL_Driver/Src/stm32f4xx_hal_adc.c ****       (HAL_IS_BIT_CLR(hadc->Instance->SQR1, ADC_SQR1_L) ||
 781              		.loc 1 944 8
 782 00cc 7B68     		ldr	r3, [r7, #4]
 783 00ce 1B68     		ldr	r3, [r3]
 784 00d0 DB6A     		ldr	r3, [r3, #44]
 785 00d2 03F47003 		and	r3, r3, #15728640
 943:Drivers/STM32F4xx_HAL_Driver/Src/stm32f4xx_hal_adc.c ****       (hadc->Init.ContinuousConvMode == DISABLE)            &&
 786              		.loc 1 943 61
 787 00d6 002B     		cmp	r3, #0
 788 00d8 06D0     		beq	.L42
 945:Drivers/STM32F4xx_HAL_Driver/Src/stm32f4xx_hal_adc.c ****        HAL_IS_BIT_CLR(hadc->Instance->CR2, ADC_CR2_EOCS)))
 789              		.loc 1 945 8
 790 00da 7B68     		ldr	r3, [r7, #4]
 791 00dc 1B68     		ldr	r3, [r3]
 792 00de 9B68     		ldr	r3, [r3, #8]
 793 00e0 03F48063 		and	r3, r3, #1024
 944:Drivers/STM32F4xx_HAL_Driver/Src/stm32f4xx_hal_adc.c ****       (HAL_IS_BIT_CLR(hadc->Instance->SQR1, ADC_SQR1_L) ||
 794              		.loc 1 944 57
 795 00e4 002B     		cmp	r3, #0
 796 00e6 11D1     		bne	.L41
 797              	.L42:
 946:Drivers/STM32F4xx_HAL_Driver/Src/stm32f4xx_hal_adc.c ****   {
 947:Drivers/STM32F4xx_HAL_Driver/Src/stm32f4xx_hal_adc.c ****     /* Set ADC state */
 948:Drivers/STM32F4xx_HAL_Driver/Src/stm32f4xx_hal_adc.c ****     CLEAR_BIT(hadc->State, HAL_ADC_STATE_REG_BUSY);
 798              		.loc 1 948 5
 799 00e8 7B68     		ldr	r3, [r7, #4]
 800 00ea 1B6C     		ldr	r3, [r3, #64]
 801 00ec 23F48072 		bic	r2, r3, #256
 802 00f0 7B68     		ldr	r3, [r7, #4]
 803 00f2 1A64     		str	r2, [r3, #64]
 949:Drivers/STM32F4xx_HAL_Driver/Src/stm32f4xx_hal_adc.c **** 
 950:Drivers/STM32F4xx_HAL_Driver/Src/stm32f4xx_hal_adc.c ****     if (HAL_IS_BIT_CLR(hadc->State, HAL_ADC_STATE_INJ_BUSY))
 804              		.loc 1 950 9
 805 00f4 7B68     		ldr	r3, [r7, #4]
 806 00f6 1B6C     		ldr	r3, [r3, #64]
 807 00f8 03F48053 		and	r3, r3, #4096
 808              		.loc 1 950 8
 809 00fc 002B     		cmp	r3, #0
 810 00fe 05D1     		bne	.L41
 951:Drivers/STM32F4xx_HAL_Driver/Src/stm32f4xx_hal_adc.c ****     {
 952:Drivers/STM32F4xx_HAL_Driver/Src/stm32f4xx_hal_adc.c ****       SET_BIT(hadc->State, HAL_ADC_STATE_READY);
 811              		.loc 1 952 7
 812 0100 7B68     		ldr	r3, [r7, #4]
 813 0102 1B6C     		ldr	r3, [r3, #64]
 814 0104 43F00102 		orr	r2, r3, #1
 815 0108 7B68     		ldr	r3, [r7, #4]
 816 010a 1A64     		str	r2, [r3, #64]
 817              	.L41:
 953:Drivers/STM32F4xx_HAL_Driver/Src/stm32f4xx_hal_adc.c ****     }
 954:Drivers/STM32F4xx_HAL_Driver/Src/stm32f4xx_hal_adc.c ****   }
 955:Drivers/STM32F4xx_HAL_Driver/Src/stm32f4xx_hal_adc.c **** 
 956:Drivers/STM32F4xx_HAL_Driver/Src/stm32f4xx_hal_adc.c ****   /* Return ADC state */
ARM GAS  C:\Users\Halil\AppData\Local\Temp\cc7e4Lrl.s 			page 32


 957:Drivers/STM32F4xx_HAL_Driver/Src/stm32f4xx_hal_adc.c ****   return HAL_OK;
 818              		.loc 1 957 10
 819 010c 0023     		movs	r3, #0
 820              	.L35:
 958:Drivers/STM32F4xx_HAL_Driver/Src/stm32f4xx_hal_adc.c **** }
 821              		.loc 1 958 1
 822 010e 1846     		mov	r0, r3
 823 0110 1037     		adds	r7, r7, #16
 824              		.cfi_def_cfa_offset 8
 825 0112 BD46     		mov	sp, r7
 826              		.cfi_def_cfa_register 13
 827              		@ sp needed
 828 0114 80BD     		pop	{r7, pc}
 829              		.cfi_endproc
 830              	.LFE245:
 832              		.section	.text.HAL_ADC_PollForEvent,"ax",%progbits
 833              		.align	1
 834              		.global	HAL_ADC_PollForEvent
 835              		.syntax unified
 836              		.thumb
 837              		.thumb_func
 839              	HAL_ADC_PollForEvent:
 840              	.LFB246:
 959:Drivers/STM32F4xx_HAL_Driver/Src/stm32f4xx_hal_adc.c **** 
 960:Drivers/STM32F4xx_HAL_Driver/Src/stm32f4xx_hal_adc.c **** /**
 961:Drivers/STM32F4xx_HAL_Driver/Src/stm32f4xx_hal_adc.c ****   * @brief  Poll for conversion event
 962:Drivers/STM32F4xx_HAL_Driver/Src/stm32f4xx_hal_adc.c ****   * @param  hadc pointer to a ADC_HandleTypeDef structure that contains
 963:Drivers/STM32F4xx_HAL_Driver/Src/stm32f4xx_hal_adc.c ****   *         the configuration information for the specified ADC.
 964:Drivers/STM32F4xx_HAL_Driver/Src/stm32f4xx_hal_adc.c ****   * @param  EventType the ADC event type.
 965:Drivers/STM32F4xx_HAL_Driver/Src/stm32f4xx_hal_adc.c ****   *          This parameter can be one of the following values:
 966:Drivers/STM32F4xx_HAL_Driver/Src/stm32f4xx_hal_adc.c ****   *            @arg ADC_AWD_EVENT: ADC Analog watch Dog event.
 967:Drivers/STM32F4xx_HAL_Driver/Src/stm32f4xx_hal_adc.c ****   *            @arg ADC_OVR_EVENT: ADC Overrun event.
 968:Drivers/STM32F4xx_HAL_Driver/Src/stm32f4xx_hal_adc.c ****   * @param  Timeout Timeout value in millisecond.
 969:Drivers/STM32F4xx_HAL_Driver/Src/stm32f4xx_hal_adc.c ****   * @retval HAL status
 970:Drivers/STM32F4xx_HAL_Driver/Src/stm32f4xx_hal_adc.c ****   */
 971:Drivers/STM32F4xx_HAL_Driver/Src/stm32f4xx_hal_adc.c **** HAL_StatusTypeDef HAL_ADC_PollForEvent(ADC_HandleTypeDef *hadc, uint32_t EventType, uint32_t Timeou
 972:Drivers/STM32F4xx_HAL_Driver/Src/stm32f4xx_hal_adc.c **** {
 841              		.loc 1 972 1
 842              		.cfi_startproc
 843              		@ args = 0, pretend = 0, frame = 24
 844              		@ frame_needed = 1, uses_anonymous_args = 0
 845 0000 80B5     		push	{r7, lr}
 846              		.cfi_def_cfa_offset 8
 847              		.cfi_offset 7, -8
 848              		.cfi_offset 14, -4
 849 0002 86B0     		sub	sp, sp, #24
 850              		.cfi_def_cfa_offset 32
 851 0004 00AF     		add	r7, sp, #0
 852              		.cfi_def_cfa_register 7
 853 0006 F860     		str	r0, [r7, #12]
 854 0008 B960     		str	r1, [r7, #8]
 855 000a 7A60     		str	r2, [r7, #4]
 973:Drivers/STM32F4xx_HAL_Driver/Src/stm32f4xx_hal_adc.c ****   uint32_t tickstart = 0U;
 856              		.loc 1 973 12
 857 000c 0023     		movs	r3, #0
 858 000e 7B61     		str	r3, [r7, #20]
 974:Drivers/STM32F4xx_HAL_Driver/Src/stm32f4xx_hal_adc.c **** 
ARM GAS  C:\Users\Halil\AppData\Local\Temp\cc7e4Lrl.s 			page 33


 975:Drivers/STM32F4xx_HAL_Driver/Src/stm32f4xx_hal_adc.c ****   /* Check the parameters */
 976:Drivers/STM32F4xx_HAL_Driver/Src/stm32f4xx_hal_adc.c ****   assert_param(IS_ADC_ALL_INSTANCE(hadc->Instance));
 977:Drivers/STM32F4xx_HAL_Driver/Src/stm32f4xx_hal_adc.c ****   assert_param(IS_ADC_EVENT_TYPE(EventType));
 978:Drivers/STM32F4xx_HAL_Driver/Src/stm32f4xx_hal_adc.c **** 
 979:Drivers/STM32F4xx_HAL_Driver/Src/stm32f4xx_hal_adc.c ****   /* Get tick */
 980:Drivers/STM32F4xx_HAL_Driver/Src/stm32f4xx_hal_adc.c ****   tickstart = HAL_GetTick();
 859              		.loc 1 980 15
 860 0010 FFF7FEFF 		bl	HAL_GetTick
 861 0014 7861     		str	r0, [r7, #20]
 981:Drivers/STM32F4xx_HAL_Driver/Src/stm32f4xx_hal_adc.c **** 
 982:Drivers/STM32F4xx_HAL_Driver/Src/stm32f4xx_hal_adc.c ****   /* Check selected event flag */
 983:Drivers/STM32F4xx_HAL_Driver/Src/stm32f4xx_hal_adc.c ****   while (!(__HAL_ADC_GET_FLAG(hadc, EventType)))
 862              		.loc 1 983 9
 863 0016 22E0     		b	.L45
 864              	.L49:
 984:Drivers/STM32F4xx_HAL_Driver/Src/stm32f4xx_hal_adc.c ****   {
 985:Drivers/STM32F4xx_HAL_Driver/Src/stm32f4xx_hal_adc.c ****     /* Check for the Timeout */
 986:Drivers/STM32F4xx_HAL_Driver/Src/stm32f4xx_hal_adc.c ****     if (Timeout != HAL_MAX_DELAY)
 865              		.loc 1 986 8
 866 0018 7B68     		ldr	r3, [r7, #4]
 867 001a B3F1FF3F 		cmp	r3, #-1
 868 001e 1ED0     		beq	.L45
 987:Drivers/STM32F4xx_HAL_Driver/Src/stm32f4xx_hal_adc.c ****     {
 988:Drivers/STM32F4xx_HAL_Driver/Src/stm32f4xx_hal_adc.c ****       if ((Timeout == 0U) || ((HAL_GetTick() - tickstart) > Timeout))
 869              		.loc 1 988 10
 870 0020 7B68     		ldr	r3, [r7, #4]
 871 0022 002B     		cmp	r3, #0
 872 0024 07D0     		beq	.L46
 873              		.loc 1 988 32 discriminator 1
 874 0026 FFF7FEFF 		bl	HAL_GetTick
 875 002a 0246     		mov	r2, r0
 876              		.loc 1 988 46 discriminator 1
 877 002c 7B69     		ldr	r3, [r7, #20]
 878 002e D31A     		subs	r3, r2, r3
 879              		.loc 1 988 27 discriminator 1
 880 0030 7A68     		ldr	r2, [r7, #4]
 881 0032 9A42     		cmp	r2, r3
 882 0034 13D2     		bcs	.L45
 883              	.L46:
 989:Drivers/STM32F4xx_HAL_Driver/Src/stm32f4xx_hal_adc.c ****       {
 990:Drivers/STM32F4xx_HAL_Driver/Src/stm32f4xx_hal_adc.c ****         /* New check to avoid false timeout detection in case of preemption */
 991:Drivers/STM32F4xx_HAL_Driver/Src/stm32f4xx_hal_adc.c ****         if (!(__HAL_ADC_GET_FLAG(hadc, EventType)))
 884              		.loc 1 991 15
 885 0036 FB68     		ldr	r3, [r7, #12]
 886 0038 1B68     		ldr	r3, [r3]
 887 003a 1A68     		ldr	r2, [r3]
 888 003c BB68     		ldr	r3, [r7, #8]
 889 003e 1340     		ands	r3, r3, r2
 890              		.loc 1 991 12
 891 0040 BA68     		ldr	r2, [r7, #8]
 892 0042 9A42     		cmp	r2, r3
 893 0044 0BD0     		beq	.L45
 992:Drivers/STM32F4xx_HAL_Driver/Src/stm32f4xx_hal_adc.c ****         {
 993:Drivers/STM32F4xx_HAL_Driver/Src/stm32f4xx_hal_adc.c ****           /* Update ADC state machine to timeout */
 994:Drivers/STM32F4xx_HAL_Driver/Src/stm32f4xx_hal_adc.c ****           SET_BIT(hadc->State, HAL_ADC_STATE_TIMEOUT);
 894              		.loc 1 994 11
 895 0046 FB68     		ldr	r3, [r7, #12]
ARM GAS  C:\Users\Halil\AppData\Local\Temp\cc7e4Lrl.s 			page 34


 896 0048 1B6C     		ldr	r3, [r3, #64]
 897 004a 43F00402 		orr	r2, r3, #4
 898 004e FB68     		ldr	r3, [r7, #12]
 899 0050 1A64     		str	r2, [r3, #64]
 995:Drivers/STM32F4xx_HAL_Driver/Src/stm32f4xx_hal_adc.c **** 
 996:Drivers/STM32F4xx_HAL_Driver/Src/stm32f4xx_hal_adc.c ****           /* Process unlocked */
 997:Drivers/STM32F4xx_HAL_Driver/Src/stm32f4xx_hal_adc.c ****           __HAL_UNLOCK(hadc);
 900              		.loc 1 997 11
 901 0052 FB68     		ldr	r3, [r7, #12]
 902 0054 0022     		movs	r2, #0
 903 0056 83F83C20 		strb	r2, [r3, #60]
 998:Drivers/STM32F4xx_HAL_Driver/Src/stm32f4xx_hal_adc.c **** 
 999:Drivers/STM32F4xx_HAL_Driver/Src/stm32f4xx_hal_adc.c ****           return HAL_TIMEOUT;
 904              		.loc 1 999 18
 905 005a 0323     		movs	r3, #3
 906 005c 28E0     		b	.L48
 907              	.L45:
 983:Drivers/STM32F4xx_HAL_Driver/Src/stm32f4xx_hal_adc.c ****   {
 908              		.loc 1 983 12
 909 005e FB68     		ldr	r3, [r7, #12]
 910 0060 1B68     		ldr	r3, [r3]
 911 0062 1A68     		ldr	r2, [r3]
 912 0064 BB68     		ldr	r3, [r7, #8]
 913 0066 1340     		ands	r3, r3, r2
 983:Drivers/STM32F4xx_HAL_Driver/Src/stm32f4xx_hal_adc.c ****   {
 914              		.loc 1 983 10
 915 0068 BA68     		ldr	r2, [r7, #8]
 916 006a 9A42     		cmp	r2, r3
 917 006c D4D1     		bne	.L49
1000:Drivers/STM32F4xx_HAL_Driver/Src/stm32f4xx_hal_adc.c ****         }
1001:Drivers/STM32F4xx_HAL_Driver/Src/stm32f4xx_hal_adc.c ****       }
1002:Drivers/STM32F4xx_HAL_Driver/Src/stm32f4xx_hal_adc.c ****     }
1003:Drivers/STM32F4xx_HAL_Driver/Src/stm32f4xx_hal_adc.c ****   }
1004:Drivers/STM32F4xx_HAL_Driver/Src/stm32f4xx_hal_adc.c **** 
1005:Drivers/STM32F4xx_HAL_Driver/Src/stm32f4xx_hal_adc.c ****   /* Analog watchdog (level out of window) event */
1006:Drivers/STM32F4xx_HAL_Driver/Src/stm32f4xx_hal_adc.c ****   if (EventType == ADC_AWD_EVENT)
 918              		.loc 1 1006 6
 919 006e BB68     		ldr	r3, [r7, #8]
 920 0070 012B     		cmp	r3, #1
 921 0072 0BD1     		bne	.L50
1007:Drivers/STM32F4xx_HAL_Driver/Src/stm32f4xx_hal_adc.c ****   {
1008:Drivers/STM32F4xx_HAL_Driver/Src/stm32f4xx_hal_adc.c ****     /* Set ADC state */
1009:Drivers/STM32F4xx_HAL_Driver/Src/stm32f4xx_hal_adc.c ****     SET_BIT(hadc->State, HAL_ADC_STATE_AWD1);
 922              		.loc 1 1009 5
 923 0074 FB68     		ldr	r3, [r7, #12]
 924 0076 1B6C     		ldr	r3, [r3, #64]
 925 0078 43F48032 		orr	r2, r3, #65536
 926 007c FB68     		ldr	r3, [r7, #12]
 927 007e 1A64     		str	r2, [r3, #64]
1010:Drivers/STM32F4xx_HAL_Driver/Src/stm32f4xx_hal_adc.c **** 
1011:Drivers/STM32F4xx_HAL_Driver/Src/stm32f4xx_hal_adc.c ****     /* Clear ADC analog watchdog flag */
1012:Drivers/STM32F4xx_HAL_Driver/Src/stm32f4xx_hal_adc.c ****     __HAL_ADC_CLEAR_FLAG(hadc, ADC_FLAG_AWD);
 928              		.loc 1 1012 5
 929 0080 FB68     		ldr	r3, [r7, #12]
 930 0082 1B68     		ldr	r3, [r3]
 931 0084 6FF00102 		mvn	r2, #1
 932 0088 1A60     		str	r2, [r3]
ARM GAS  C:\Users\Halil\AppData\Local\Temp\cc7e4Lrl.s 			page 35


 933 008a 10E0     		b	.L51
 934              	.L50:
1013:Drivers/STM32F4xx_HAL_Driver/Src/stm32f4xx_hal_adc.c ****   }
1014:Drivers/STM32F4xx_HAL_Driver/Src/stm32f4xx_hal_adc.c ****   /* Overrun event */
1015:Drivers/STM32F4xx_HAL_Driver/Src/stm32f4xx_hal_adc.c ****   else
1016:Drivers/STM32F4xx_HAL_Driver/Src/stm32f4xx_hal_adc.c ****   {
1017:Drivers/STM32F4xx_HAL_Driver/Src/stm32f4xx_hal_adc.c ****     /* Set ADC state */
1018:Drivers/STM32F4xx_HAL_Driver/Src/stm32f4xx_hal_adc.c ****     SET_BIT(hadc->State, HAL_ADC_STATE_REG_OVR);
 935              		.loc 1 1018 5
 936 008c FB68     		ldr	r3, [r7, #12]
 937 008e 1B6C     		ldr	r3, [r3, #64]
 938 0090 43F48062 		orr	r2, r3, #1024
 939 0094 FB68     		ldr	r3, [r7, #12]
 940 0096 1A64     		str	r2, [r3, #64]
1019:Drivers/STM32F4xx_HAL_Driver/Src/stm32f4xx_hal_adc.c ****     /* Set ADC error code to overrun */
1020:Drivers/STM32F4xx_HAL_Driver/Src/stm32f4xx_hal_adc.c ****     SET_BIT(hadc->ErrorCode, HAL_ADC_ERROR_OVR);
 941              		.loc 1 1020 5
 942 0098 FB68     		ldr	r3, [r7, #12]
 943 009a 5B6C     		ldr	r3, [r3, #68]
 944 009c 43F00202 		orr	r2, r3, #2
 945 00a0 FB68     		ldr	r3, [r7, #12]
 946 00a2 5A64     		str	r2, [r3, #68]
1021:Drivers/STM32F4xx_HAL_Driver/Src/stm32f4xx_hal_adc.c **** 
1022:Drivers/STM32F4xx_HAL_Driver/Src/stm32f4xx_hal_adc.c ****     /* Clear ADC overrun flag */
1023:Drivers/STM32F4xx_HAL_Driver/Src/stm32f4xx_hal_adc.c ****     __HAL_ADC_CLEAR_FLAG(hadc, ADC_FLAG_OVR);
 947              		.loc 1 1023 5
 948 00a4 FB68     		ldr	r3, [r7, #12]
 949 00a6 1B68     		ldr	r3, [r3]
 950 00a8 6FF02002 		mvn	r2, #32
 951 00ac 1A60     		str	r2, [r3]
 952              	.L51:
1024:Drivers/STM32F4xx_HAL_Driver/Src/stm32f4xx_hal_adc.c ****   }
1025:Drivers/STM32F4xx_HAL_Driver/Src/stm32f4xx_hal_adc.c **** 
1026:Drivers/STM32F4xx_HAL_Driver/Src/stm32f4xx_hal_adc.c ****   /* Return ADC state */
1027:Drivers/STM32F4xx_HAL_Driver/Src/stm32f4xx_hal_adc.c ****   return HAL_OK;
 953              		.loc 1 1027 10
 954 00ae 0023     		movs	r3, #0
 955              	.L48:
1028:Drivers/STM32F4xx_HAL_Driver/Src/stm32f4xx_hal_adc.c **** }
 956              		.loc 1 1028 1
 957 00b0 1846     		mov	r0, r3
 958 00b2 1837     		adds	r7, r7, #24
 959              		.cfi_def_cfa_offset 8
 960 00b4 BD46     		mov	sp, r7
 961              		.cfi_def_cfa_register 13
 962              		@ sp needed
 963 00b6 80BD     		pop	{r7, pc}
 964              		.cfi_endproc
 965              	.LFE246:
 967              		.section	.text.HAL_ADC_Start_IT,"ax",%progbits
 968              		.align	1
 969              		.global	HAL_ADC_Start_IT
 970              		.syntax unified
 971              		.thumb
 972              		.thumb_func
 974              	HAL_ADC_Start_IT:
 975              	.LFB247:
ARM GAS  C:\Users\Halil\AppData\Local\Temp\cc7e4Lrl.s 			page 36


1029:Drivers/STM32F4xx_HAL_Driver/Src/stm32f4xx_hal_adc.c **** 
1030:Drivers/STM32F4xx_HAL_Driver/Src/stm32f4xx_hal_adc.c **** 
1031:Drivers/STM32F4xx_HAL_Driver/Src/stm32f4xx_hal_adc.c **** /**
1032:Drivers/STM32F4xx_HAL_Driver/Src/stm32f4xx_hal_adc.c ****   * @brief  Enables the interrupt and starts ADC conversion of regular channels.
1033:Drivers/STM32F4xx_HAL_Driver/Src/stm32f4xx_hal_adc.c ****   * @param  hadc pointer to a ADC_HandleTypeDef structure that contains
1034:Drivers/STM32F4xx_HAL_Driver/Src/stm32f4xx_hal_adc.c ****   *         the configuration information for the specified ADC.
1035:Drivers/STM32F4xx_HAL_Driver/Src/stm32f4xx_hal_adc.c ****   * @retval HAL status.
1036:Drivers/STM32F4xx_HAL_Driver/Src/stm32f4xx_hal_adc.c ****   */
1037:Drivers/STM32F4xx_HAL_Driver/Src/stm32f4xx_hal_adc.c **** HAL_StatusTypeDef HAL_ADC_Start_IT(ADC_HandleTypeDef *hadc)
1038:Drivers/STM32F4xx_HAL_Driver/Src/stm32f4xx_hal_adc.c **** {
 976              		.loc 1 1038 1
 977              		.cfi_startproc
 978              		@ args = 0, pretend = 0, frame = 16
 979              		@ frame_needed = 1, uses_anonymous_args = 0
 980              		@ link register save eliminated.
 981 0000 80B4     		push	{r7}
 982              		.cfi_def_cfa_offset 4
 983              		.cfi_offset 7, -4
 984 0002 85B0     		sub	sp, sp, #20
 985              		.cfi_def_cfa_offset 24
 986 0004 00AF     		add	r7, sp, #0
 987              		.cfi_def_cfa_register 7
 988 0006 7860     		str	r0, [r7, #4]
1039:Drivers/STM32F4xx_HAL_Driver/Src/stm32f4xx_hal_adc.c ****   __IO uint32_t counter = 0U;
 989              		.loc 1 1039 17
 990 0008 0023     		movs	r3, #0
 991 000a BB60     		str	r3, [r7, #8]
1040:Drivers/STM32F4xx_HAL_Driver/Src/stm32f4xx_hal_adc.c ****   ADC_Common_TypeDef *tmpADC_Common;
1041:Drivers/STM32F4xx_HAL_Driver/Src/stm32f4xx_hal_adc.c **** 
1042:Drivers/STM32F4xx_HAL_Driver/Src/stm32f4xx_hal_adc.c ****   /* Check the parameters */
1043:Drivers/STM32F4xx_HAL_Driver/Src/stm32f4xx_hal_adc.c ****   assert_param(IS_FUNCTIONAL_STATE(hadc->Init.ContinuousConvMode));
1044:Drivers/STM32F4xx_HAL_Driver/Src/stm32f4xx_hal_adc.c ****   assert_param(IS_ADC_EXT_TRIG_EDGE(hadc->Init.ExternalTrigConvEdge));
1045:Drivers/STM32F4xx_HAL_Driver/Src/stm32f4xx_hal_adc.c **** 
1046:Drivers/STM32F4xx_HAL_Driver/Src/stm32f4xx_hal_adc.c ****   /* Process locked */
1047:Drivers/STM32F4xx_HAL_Driver/Src/stm32f4xx_hal_adc.c ****   __HAL_LOCK(hadc);
 992              		.loc 1 1047 3
 993 000c 7B68     		ldr	r3, [r7, #4]
 994 000e 93F83C30 		ldrb	r3, [r3, #60]	@ zero_extendqisi2
 995 0012 012B     		cmp	r3, #1
 996 0014 01D1     		bne	.L53
 997              		.loc 1 1047 3 is_stmt 0 discriminator 1
 998 0016 0223     		movs	r3, #2
 999 0018 BDE0     		b	.L54
 1000              	.L53:
 1001              		.loc 1 1047 3 discriminator 2
 1002 001a 7B68     		ldr	r3, [r7, #4]
 1003 001c 0122     		movs	r2, #1
 1004 001e 83F83C20 		strb	r2, [r3, #60]
1048:Drivers/STM32F4xx_HAL_Driver/Src/stm32f4xx_hal_adc.c **** 
1049:Drivers/STM32F4xx_HAL_Driver/Src/stm32f4xx_hal_adc.c ****   /* Enable the ADC peripheral */
1050:Drivers/STM32F4xx_HAL_Driver/Src/stm32f4xx_hal_adc.c ****   /* Check if ADC peripheral is disabled in order to enable it and wait during
1051:Drivers/STM32F4xx_HAL_Driver/Src/stm32f4xx_hal_adc.c ****   Tstab time the ADC's stabilization */
1052:Drivers/STM32F4xx_HAL_Driver/Src/stm32f4xx_hal_adc.c ****   if ((hadc->Instance->CR2 & ADC_CR2_ADON) != ADC_CR2_ADON)
 1005              		.loc 1 1052 12 is_stmt 1 discriminator 2
 1006 0022 7B68     		ldr	r3, [r7, #4]
 1007 0024 1B68     		ldr	r3, [r3]
 1008              		.loc 1 1052 22 discriminator 2
ARM GAS  C:\Users\Halil\AppData\Local\Temp\cc7e4Lrl.s 			page 37


 1009 0026 9B68     		ldr	r3, [r3, #8]
 1010              		.loc 1 1052 28 discriminator 2
 1011 0028 03F00103 		and	r3, r3, #1
 1012              		.loc 1 1052 6 discriminator 2
 1013 002c 012B     		cmp	r3, #1
 1014 002e 18D0     		beq	.L55
1053:Drivers/STM32F4xx_HAL_Driver/Src/stm32f4xx_hal_adc.c ****   {
1054:Drivers/STM32F4xx_HAL_Driver/Src/stm32f4xx_hal_adc.c ****     /* Enable the Peripheral */
1055:Drivers/STM32F4xx_HAL_Driver/Src/stm32f4xx_hal_adc.c ****     __HAL_ADC_ENABLE(hadc);
 1015              		.loc 1 1055 5
 1016 0030 7B68     		ldr	r3, [r7, #4]
 1017 0032 1B68     		ldr	r3, [r3]
 1018 0034 9A68     		ldr	r2, [r3, #8]
 1019 0036 7B68     		ldr	r3, [r7, #4]
 1020 0038 1B68     		ldr	r3, [r3]
 1021 003a 42F00102 		orr	r2, r2, #1
 1022 003e 9A60     		str	r2, [r3, #8]
1056:Drivers/STM32F4xx_HAL_Driver/Src/stm32f4xx_hal_adc.c **** 
1057:Drivers/STM32F4xx_HAL_Driver/Src/stm32f4xx_hal_adc.c ****     /* Delay for ADC stabilization time */
1058:Drivers/STM32F4xx_HAL_Driver/Src/stm32f4xx_hal_adc.c ****     /* Compute number of CPU cycles to wait for */
1059:Drivers/STM32F4xx_HAL_Driver/Src/stm32f4xx_hal_adc.c ****     counter = (ADC_STAB_DELAY_US * (SystemCoreClock / 1000000U));
 1023              		.loc 1 1059 53
 1024 0040 584B     		ldr	r3, .L66
 1025 0042 1B68     		ldr	r3, [r3]
 1026 0044 584A     		ldr	r2, .L66+4
 1027 0046 A2FB0323 		umull	r2, r3, r2, r3
 1028 004a 9A0C     		lsrs	r2, r3, #18
 1029              		.loc 1 1059 34
 1030 004c 1346     		mov	r3, r2
 1031 004e 5B00     		lsls	r3, r3, #1
 1032 0050 1344     		add	r3, r3, r2
 1033              		.loc 1 1059 13
 1034 0052 BB60     		str	r3, [r7, #8]
1060:Drivers/STM32F4xx_HAL_Driver/Src/stm32f4xx_hal_adc.c ****     while (counter != 0U)
 1035              		.loc 1 1060 11
 1036 0054 02E0     		b	.L56
 1037              	.L57:
1061:Drivers/STM32F4xx_HAL_Driver/Src/stm32f4xx_hal_adc.c ****     {
1062:Drivers/STM32F4xx_HAL_Driver/Src/stm32f4xx_hal_adc.c ****       counter--;
 1038              		.loc 1 1062 14
 1039 0056 BB68     		ldr	r3, [r7, #8]
 1040 0058 013B     		subs	r3, r3, #1
 1041 005a BB60     		str	r3, [r7, #8]
 1042              	.L56:
1060:Drivers/STM32F4xx_HAL_Driver/Src/stm32f4xx_hal_adc.c ****     while (counter != 0U)
 1043              		.loc 1 1060 20
 1044 005c BB68     		ldr	r3, [r7, #8]
 1045 005e 002B     		cmp	r3, #0
 1046 0060 F9D1     		bne	.L57
 1047              	.L55:
1063:Drivers/STM32F4xx_HAL_Driver/Src/stm32f4xx_hal_adc.c ****     }
1064:Drivers/STM32F4xx_HAL_Driver/Src/stm32f4xx_hal_adc.c ****   }
1065:Drivers/STM32F4xx_HAL_Driver/Src/stm32f4xx_hal_adc.c **** 
1066:Drivers/STM32F4xx_HAL_Driver/Src/stm32f4xx_hal_adc.c ****   /* Start conversion if ADC is effectively enabled */
1067:Drivers/STM32F4xx_HAL_Driver/Src/stm32f4xx_hal_adc.c ****   if (HAL_IS_BIT_SET(hadc->Instance->CR2, ADC_CR2_ADON))
 1048              		.loc 1 1067 7
 1049 0062 7B68     		ldr	r3, [r7, #4]
ARM GAS  C:\Users\Halil\AppData\Local\Temp\cc7e4Lrl.s 			page 38


 1050 0064 1B68     		ldr	r3, [r3]
 1051 0066 9B68     		ldr	r3, [r3, #8]
 1052 0068 03F00103 		and	r3, r3, #1
 1053              		.loc 1 1067 6
 1054 006c 012B     		cmp	r3, #1
 1055 006e 40F08580 		bne	.L58
1068:Drivers/STM32F4xx_HAL_Driver/Src/stm32f4xx_hal_adc.c ****   {
1069:Drivers/STM32F4xx_HAL_Driver/Src/stm32f4xx_hal_adc.c ****     /* Set ADC state                                                          */
1070:Drivers/STM32F4xx_HAL_Driver/Src/stm32f4xx_hal_adc.c ****     /* - Clear state bitfield related to regular group conversion results     */
1071:Drivers/STM32F4xx_HAL_Driver/Src/stm32f4xx_hal_adc.c ****     /* - Set state bitfield related to regular group operation                */
1072:Drivers/STM32F4xx_HAL_Driver/Src/stm32f4xx_hal_adc.c ****     ADC_STATE_CLR_SET(hadc->State,
 1056              		.loc 1 1072 5
 1057 0072 7B68     		ldr	r3, [r7, #4]
 1058 0074 1B6C     		ldr	r3, [r3, #64]
 1059 0076 23F4E063 		bic	r3, r3, #1792
 1060 007a 23F00103 		bic	r3, r3, #1
 1061 007e 43F48072 		orr	r2, r3, #256
 1062 0082 7B68     		ldr	r3, [r7, #4]
 1063 0084 1A64     		str	r2, [r3, #64]
1073:Drivers/STM32F4xx_HAL_Driver/Src/stm32f4xx_hal_adc.c ****                       HAL_ADC_STATE_READY | HAL_ADC_STATE_REG_EOC | HAL_ADC_STATE_REG_OVR,
1074:Drivers/STM32F4xx_HAL_Driver/Src/stm32f4xx_hal_adc.c ****                       HAL_ADC_STATE_REG_BUSY);
1075:Drivers/STM32F4xx_HAL_Driver/Src/stm32f4xx_hal_adc.c **** 
1076:Drivers/STM32F4xx_HAL_Driver/Src/stm32f4xx_hal_adc.c ****     /* If conversions on group regular are also triggering group injected,    */
1077:Drivers/STM32F4xx_HAL_Driver/Src/stm32f4xx_hal_adc.c ****     /* update ADC state.                                                      */
1078:Drivers/STM32F4xx_HAL_Driver/Src/stm32f4xx_hal_adc.c ****     if (READ_BIT(hadc->Instance->CR1, ADC_CR1_JAUTO) != RESET)
 1064              		.loc 1 1078 9
 1065 0086 7B68     		ldr	r3, [r7, #4]
 1066 0088 1B68     		ldr	r3, [r3]
 1067 008a 5B68     		ldr	r3, [r3, #4]
 1068 008c 03F48063 		and	r3, r3, #1024
 1069              		.loc 1 1078 8
 1070 0090 002B     		cmp	r3, #0
 1071 0092 07D0     		beq	.L59
1079:Drivers/STM32F4xx_HAL_Driver/Src/stm32f4xx_hal_adc.c ****     {
1080:Drivers/STM32F4xx_HAL_Driver/Src/stm32f4xx_hal_adc.c ****       ADC_STATE_CLR_SET(hadc->State, HAL_ADC_STATE_INJ_EOC, HAL_ADC_STATE_INJ_BUSY);
 1072              		.loc 1 1080 7
 1073 0094 7B68     		ldr	r3, [r7, #4]
 1074 0096 1B6C     		ldr	r3, [r3, #64]
 1075 0098 23F44053 		bic	r3, r3, #12288
 1076 009c 43F48052 		orr	r2, r3, #4096
 1077 00a0 7B68     		ldr	r3, [r7, #4]
 1078 00a2 1A64     		str	r2, [r3, #64]
 1079              	.L59:
1081:Drivers/STM32F4xx_HAL_Driver/Src/stm32f4xx_hal_adc.c ****     }
1082:Drivers/STM32F4xx_HAL_Driver/Src/stm32f4xx_hal_adc.c **** 
1083:Drivers/STM32F4xx_HAL_Driver/Src/stm32f4xx_hal_adc.c ****     /* State machine update: Check if an injected conversion is ongoing */
1084:Drivers/STM32F4xx_HAL_Driver/Src/stm32f4xx_hal_adc.c ****     if (HAL_IS_BIT_SET(hadc->State, HAL_ADC_STATE_INJ_BUSY))
 1080              		.loc 1 1084 9
 1081 00a4 7B68     		ldr	r3, [r7, #4]
 1082 00a6 1B6C     		ldr	r3, [r3, #64]
 1083 00a8 03F48053 		and	r3, r3, #4096
 1084              		.loc 1 1084 8
 1085 00ac B3F5805F 		cmp	r3, #4096
 1086 00b0 06D1     		bne	.L60
1085:Drivers/STM32F4xx_HAL_Driver/Src/stm32f4xx_hal_adc.c ****     {
1086:Drivers/STM32F4xx_HAL_Driver/Src/stm32f4xx_hal_adc.c ****       /* Reset ADC error code fields related to conversions on group regular */
1087:Drivers/STM32F4xx_HAL_Driver/Src/stm32f4xx_hal_adc.c ****       CLEAR_BIT(hadc->ErrorCode, (HAL_ADC_ERROR_OVR | HAL_ADC_ERROR_DMA));
ARM GAS  C:\Users\Halil\AppData\Local\Temp\cc7e4Lrl.s 			page 39


 1087              		.loc 1 1087 7
 1088 00b2 7B68     		ldr	r3, [r7, #4]
 1089 00b4 5B6C     		ldr	r3, [r3, #68]
 1090 00b6 23F00602 		bic	r2, r3, #6
 1091 00ba 7B68     		ldr	r3, [r7, #4]
 1092 00bc 5A64     		str	r2, [r3, #68]
 1093 00be 02E0     		b	.L61
 1094              	.L60:
1088:Drivers/STM32F4xx_HAL_Driver/Src/stm32f4xx_hal_adc.c ****     }
1089:Drivers/STM32F4xx_HAL_Driver/Src/stm32f4xx_hal_adc.c ****     else
1090:Drivers/STM32F4xx_HAL_Driver/Src/stm32f4xx_hal_adc.c ****     {
1091:Drivers/STM32F4xx_HAL_Driver/Src/stm32f4xx_hal_adc.c ****       /* Reset ADC all error code fields */
1092:Drivers/STM32F4xx_HAL_Driver/Src/stm32f4xx_hal_adc.c ****       ADC_CLEAR_ERRORCODE(hadc);
 1095              		.loc 1 1092 7
 1096 00c0 7B68     		ldr	r3, [r7, #4]
 1097 00c2 0022     		movs	r2, #0
 1098 00c4 5A64     		str	r2, [r3, #68]
 1099              	.L61:
1093:Drivers/STM32F4xx_HAL_Driver/Src/stm32f4xx_hal_adc.c ****     }
1094:Drivers/STM32F4xx_HAL_Driver/Src/stm32f4xx_hal_adc.c **** 
1095:Drivers/STM32F4xx_HAL_Driver/Src/stm32f4xx_hal_adc.c ****     /* Process unlocked */
1096:Drivers/STM32F4xx_HAL_Driver/Src/stm32f4xx_hal_adc.c ****     /* Unlock before starting ADC conversions: in case of potential           */
1097:Drivers/STM32F4xx_HAL_Driver/Src/stm32f4xx_hal_adc.c ****     /* interruption, to let the process to ADC IRQ Handler.                   */
1098:Drivers/STM32F4xx_HAL_Driver/Src/stm32f4xx_hal_adc.c ****     __HAL_UNLOCK(hadc);
 1100              		.loc 1 1098 5
 1101 00c6 7B68     		ldr	r3, [r7, #4]
 1102 00c8 0022     		movs	r2, #0
 1103 00ca 83F83C20 		strb	r2, [r3, #60]
1099:Drivers/STM32F4xx_HAL_Driver/Src/stm32f4xx_hal_adc.c **** 
1100:Drivers/STM32F4xx_HAL_Driver/Src/stm32f4xx_hal_adc.c ****     /* Pointer to the common control register to which is belonging hadc    */
1101:Drivers/STM32F4xx_HAL_Driver/Src/stm32f4xx_hal_adc.c ****     /* (Depending on STM32F4 product, there may be up to 3 ADCs and 1 common */
1102:Drivers/STM32F4xx_HAL_Driver/Src/stm32f4xx_hal_adc.c ****     /* control register)                                                    */
1103:Drivers/STM32F4xx_HAL_Driver/Src/stm32f4xx_hal_adc.c ****     tmpADC_Common = ADC_COMMON_REGISTER(hadc);
 1104              		.loc 1 1103 19
 1105 00ce 374B     		ldr	r3, .L66+8
 1106 00d0 FB60     		str	r3, [r7, #12]
1104:Drivers/STM32F4xx_HAL_Driver/Src/stm32f4xx_hal_adc.c **** 
1105:Drivers/STM32F4xx_HAL_Driver/Src/stm32f4xx_hal_adc.c ****     /* Clear regular group conversion flag and overrun flag */
1106:Drivers/STM32F4xx_HAL_Driver/Src/stm32f4xx_hal_adc.c ****     /* (To ensure of no unknown state from potential previous ADC operations) */
1107:Drivers/STM32F4xx_HAL_Driver/Src/stm32f4xx_hal_adc.c ****     __HAL_ADC_CLEAR_FLAG(hadc, ADC_FLAG_EOC | ADC_FLAG_OVR);
 1107              		.loc 1 1107 5
 1108 00d2 7B68     		ldr	r3, [r7, #4]
 1109 00d4 1B68     		ldr	r3, [r3]
 1110 00d6 6FF02202 		mvn	r2, #34
 1111 00da 1A60     		str	r2, [r3]
1108:Drivers/STM32F4xx_HAL_Driver/Src/stm32f4xx_hal_adc.c **** 
1109:Drivers/STM32F4xx_HAL_Driver/Src/stm32f4xx_hal_adc.c ****     /* Enable end of conversion interrupt for regular group */
1110:Drivers/STM32F4xx_HAL_Driver/Src/stm32f4xx_hal_adc.c ****     __HAL_ADC_ENABLE_IT(hadc, (ADC_IT_EOC | ADC_IT_OVR));
 1112              		.loc 1 1110 5
 1113 00dc 7B68     		ldr	r3, [r7, #4]
 1114 00de 1B68     		ldr	r3, [r3]
 1115 00e0 5B68     		ldr	r3, [r3, #4]
 1116 00e2 7A68     		ldr	r2, [r7, #4]
 1117 00e4 1268     		ldr	r2, [r2]
 1118 00e6 43F08063 		orr	r3, r3, #67108864
 1119 00ea 43F02003 		orr	r3, r3, #32
 1120 00ee 5360     		str	r3, [r2, #4]
ARM GAS  C:\Users\Halil\AppData\Local\Temp\cc7e4Lrl.s 			page 40


1111:Drivers/STM32F4xx_HAL_Driver/Src/stm32f4xx_hal_adc.c **** 
1112:Drivers/STM32F4xx_HAL_Driver/Src/stm32f4xx_hal_adc.c ****     /* Check if Multimode enabled */
1113:Drivers/STM32F4xx_HAL_Driver/Src/stm32f4xx_hal_adc.c ****     if (HAL_IS_BIT_CLR(tmpADC_Common->CCR, ADC_CCR_MULTI))
 1121              		.loc 1 1113 9
 1122 00f0 FB68     		ldr	r3, [r7, #12]
 1123 00f2 5B68     		ldr	r3, [r3, #4]
 1124 00f4 03F01F03 		and	r3, r3, #31
 1125              		.loc 1 1113 8
 1126 00f8 002B     		cmp	r3, #0
 1127 00fa 2AD1     		bne	.L62
1114:Drivers/STM32F4xx_HAL_Driver/Src/stm32f4xx_hal_adc.c ****     {
1115:Drivers/STM32F4xx_HAL_Driver/Src/stm32f4xx_hal_adc.c **** #if defined(ADC2) && defined(ADC3)
1116:Drivers/STM32F4xx_HAL_Driver/Src/stm32f4xx_hal_adc.c ****       if ((hadc->Instance == ADC1) || ((hadc->Instance == ADC2) && ((ADC->CCR & ADC_CCR_MULTI_Msk) 
 1128              		.loc 1 1116 16
 1129 00fc 7B68     		ldr	r3, [r7, #4]
 1130 00fe 1B68     		ldr	r3, [r3]
 1131              		.loc 1 1116 10
 1132 0100 2B4A     		ldr	r2, .L66+12
 1133 0102 9342     		cmp	r3, r2
 1134 0104 15D0     		beq	.L63
 1135              		.loc 1 1116 45 discriminator 1
 1136 0106 7B68     		ldr	r3, [r7, #4]
 1137 0108 1B68     		ldr	r3, [r3]
 1138              		.loc 1 1116 36 discriminator 1
 1139 010a 2A4A     		ldr	r2, .L66+16
 1140 010c 9342     		cmp	r3, r2
 1141 010e 05D1     		bne	.L64
 1142              		.loc 1 1116 73 discriminator 2
 1143 0110 264B     		ldr	r3, .L66+8
 1144 0112 5B68     		ldr	r3, [r3, #4]
 1145              		.loc 1 1116 79 discriminator 2
 1146 0114 03F01F03 		and	r3, r3, #31
 1147              		.loc 1 1116 65 discriminator 2
 1148 0118 002B     		cmp	r3, #0
 1149 011a 0AD0     		beq	.L63
 1150              	.L64:
1117:Drivers/STM32F4xx_HAL_Driver/Src/stm32f4xx_hal_adc.c ****           || ((hadc->Instance == ADC3) && ((ADC->CCR & ADC_CCR_MULTI_Msk) < ADC_CCR_MULTI_4)))
 1151              		.loc 1 1117 20
 1152 011c 7B68     		ldr	r3, [r7, #4]
 1153 011e 1B68     		ldr	r3, [r3]
 1154              		.loc 1 1117 11
 1155 0120 254A     		ldr	r2, .L66+20
 1156 0122 9342     		cmp	r3, r2
 1157 0124 36D1     		bne	.L65
 1158              		.loc 1 1117 48 discriminator 1
 1159 0126 214B     		ldr	r3, .L66+8
 1160 0128 5B68     		ldr	r3, [r3, #4]
 1161              		.loc 1 1117 75 discriminator 1
 1162 012a 03F01003 		and	r3, r3, #16
 1163              		.loc 1 1117 40 discriminator 1
 1164 012e 002B     		cmp	r3, #0
 1165 0130 30D1     		bne	.L65
 1166              	.L63:
1118:Drivers/STM32F4xx_HAL_Driver/Src/stm32f4xx_hal_adc.c ****       {
1119:Drivers/STM32F4xx_HAL_Driver/Src/stm32f4xx_hal_adc.c **** #endif /* ADC2 || ADC3 */
1120:Drivers/STM32F4xx_HAL_Driver/Src/stm32f4xx_hal_adc.c ****         /* if no external trigger present enable software conversion of regular channels */
1121:Drivers/STM32F4xx_HAL_Driver/Src/stm32f4xx_hal_adc.c ****         if ((hadc->Instance->CR2 & ADC_CR2_EXTEN) == RESET)
ARM GAS  C:\Users\Halil\AppData\Local\Temp\cc7e4Lrl.s 			page 41


 1167              		.loc 1 1121 18
 1168 0132 7B68     		ldr	r3, [r7, #4]
 1169 0134 1B68     		ldr	r3, [r3]
 1170              		.loc 1 1121 28
 1171 0136 9B68     		ldr	r3, [r3, #8]
 1172              		.loc 1 1121 34
 1173 0138 03F04053 		and	r3, r3, #805306368
 1174              		.loc 1 1121 12
 1175 013c 002B     		cmp	r3, #0
 1176 013e 29D1     		bne	.L65
1122:Drivers/STM32F4xx_HAL_Driver/Src/stm32f4xx_hal_adc.c ****         {
1123:Drivers/STM32F4xx_HAL_Driver/Src/stm32f4xx_hal_adc.c ****           /* Enable the selected ADC software conversion for regular group */
1124:Drivers/STM32F4xx_HAL_Driver/Src/stm32f4xx_hal_adc.c ****           hadc->Instance->CR2 |= (uint32_t)ADC_CR2_SWSTART;
 1177              		.loc 1 1124 15
 1178 0140 7B68     		ldr	r3, [r7, #4]
 1179 0142 1B68     		ldr	r3, [r3]
 1180              		.loc 1 1124 25
 1181 0144 9A68     		ldr	r2, [r3, #8]
 1182              		.loc 1 1124 15
 1183 0146 7B68     		ldr	r3, [r7, #4]
 1184 0148 1B68     		ldr	r3, [r3]
 1185              		.loc 1 1124 31
 1186 014a 42F08042 		orr	r2, r2, #1073741824
 1187 014e 9A60     		str	r2, [r3, #8]
 1188 0150 20E0     		b	.L65
 1189              	.L62:
1125:Drivers/STM32F4xx_HAL_Driver/Src/stm32f4xx_hal_adc.c ****         }
1126:Drivers/STM32F4xx_HAL_Driver/Src/stm32f4xx_hal_adc.c **** #if defined(ADC2) && defined(ADC3)
1127:Drivers/STM32F4xx_HAL_Driver/Src/stm32f4xx_hal_adc.c ****       }
1128:Drivers/STM32F4xx_HAL_Driver/Src/stm32f4xx_hal_adc.c **** #endif /* ADC2 || ADC3 */
1129:Drivers/STM32F4xx_HAL_Driver/Src/stm32f4xx_hal_adc.c ****     }
1130:Drivers/STM32F4xx_HAL_Driver/Src/stm32f4xx_hal_adc.c ****     else
1131:Drivers/STM32F4xx_HAL_Driver/Src/stm32f4xx_hal_adc.c ****     {
1132:Drivers/STM32F4xx_HAL_Driver/Src/stm32f4xx_hal_adc.c ****       /* if instance of handle correspond to ADC1 and  no external trigger present enable software 
1133:Drivers/STM32F4xx_HAL_Driver/Src/stm32f4xx_hal_adc.c ****       if ((hadc->Instance == ADC1) && ((hadc->Instance->CR2 & ADC_CR2_EXTEN) == RESET))
 1190              		.loc 1 1133 16
 1191 0152 7B68     		ldr	r3, [r7, #4]
 1192 0154 1B68     		ldr	r3, [r3]
 1193              		.loc 1 1133 10
 1194 0156 164A     		ldr	r2, .L66+12
 1195 0158 9342     		cmp	r3, r2
 1196 015a 1BD1     		bne	.L65
 1197              		.loc 1 1133 45 discriminator 1
 1198 015c 7B68     		ldr	r3, [r7, #4]
 1199 015e 1B68     		ldr	r3, [r3]
 1200              		.loc 1 1133 55 discriminator 1
 1201 0160 9B68     		ldr	r3, [r3, #8]
 1202              		.loc 1 1133 61 discriminator 1
 1203 0162 03F04053 		and	r3, r3, #805306368
 1204              		.loc 1 1133 36 discriminator 1
 1205 0166 002B     		cmp	r3, #0
 1206 0168 14D1     		bne	.L65
1134:Drivers/STM32F4xx_HAL_Driver/Src/stm32f4xx_hal_adc.c ****       {
1135:Drivers/STM32F4xx_HAL_Driver/Src/stm32f4xx_hal_adc.c ****         /* Enable the selected ADC software conversion for regular group */
1136:Drivers/STM32F4xx_HAL_Driver/Src/stm32f4xx_hal_adc.c ****         hadc->Instance->CR2 |= (uint32_t)ADC_CR2_SWSTART;
 1207              		.loc 1 1136 13
 1208 016a 7B68     		ldr	r3, [r7, #4]
ARM GAS  C:\Users\Halil\AppData\Local\Temp\cc7e4Lrl.s 			page 42


 1209 016c 1B68     		ldr	r3, [r3]
 1210              		.loc 1 1136 23
 1211 016e 9A68     		ldr	r2, [r3, #8]
 1212              		.loc 1 1136 13
 1213 0170 7B68     		ldr	r3, [r7, #4]
 1214 0172 1B68     		ldr	r3, [r3]
 1215              		.loc 1 1136 29
 1216 0174 42F08042 		orr	r2, r2, #1073741824
 1217 0178 9A60     		str	r2, [r3, #8]
 1218 017a 0BE0     		b	.L65
 1219              	.L58:
1137:Drivers/STM32F4xx_HAL_Driver/Src/stm32f4xx_hal_adc.c ****       }
1138:Drivers/STM32F4xx_HAL_Driver/Src/stm32f4xx_hal_adc.c ****     }
1139:Drivers/STM32F4xx_HAL_Driver/Src/stm32f4xx_hal_adc.c ****   }
1140:Drivers/STM32F4xx_HAL_Driver/Src/stm32f4xx_hal_adc.c ****   else
1141:Drivers/STM32F4xx_HAL_Driver/Src/stm32f4xx_hal_adc.c ****   {
1142:Drivers/STM32F4xx_HAL_Driver/Src/stm32f4xx_hal_adc.c ****     /* Update ADC state machine to error */
1143:Drivers/STM32F4xx_HAL_Driver/Src/stm32f4xx_hal_adc.c ****     SET_BIT(hadc->State, HAL_ADC_STATE_ERROR_INTERNAL);
 1220              		.loc 1 1143 5
 1221 017c 7B68     		ldr	r3, [r7, #4]
 1222 017e 1B6C     		ldr	r3, [r3, #64]
 1223 0180 43F01002 		orr	r2, r3, #16
 1224 0184 7B68     		ldr	r3, [r7, #4]
 1225 0186 1A64     		str	r2, [r3, #64]
1144:Drivers/STM32F4xx_HAL_Driver/Src/stm32f4xx_hal_adc.c **** 
1145:Drivers/STM32F4xx_HAL_Driver/Src/stm32f4xx_hal_adc.c ****     /* Set ADC error code to ADC IP internal error */
1146:Drivers/STM32F4xx_HAL_Driver/Src/stm32f4xx_hal_adc.c ****     SET_BIT(hadc->ErrorCode, HAL_ADC_ERROR_INTERNAL);
 1226              		.loc 1 1146 5
 1227 0188 7B68     		ldr	r3, [r7, #4]
 1228 018a 5B6C     		ldr	r3, [r3, #68]
 1229 018c 43F00102 		orr	r2, r3, #1
 1230 0190 7B68     		ldr	r3, [r7, #4]
 1231 0192 5A64     		str	r2, [r3, #68]
 1232              	.L65:
1147:Drivers/STM32F4xx_HAL_Driver/Src/stm32f4xx_hal_adc.c ****   }
1148:Drivers/STM32F4xx_HAL_Driver/Src/stm32f4xx_hal_adc.c **** 
1149:Drivers/STM32F4xx_HAL_Driver/Src/stm32f4xx_hal_adc.c ****   /* Return function status */
1150:Drivers/STM32F4xx_HAL_Driver/Src/stm32f4xx_hal_adc.c ****   return HAL_OK;
 1233              		.loc 1 1150 10
 1234 0194 0023     		movs	r3, #0
 1235              	.L54:
1151:Drivers/STM32F4xx_HAL_Driver/Src/stm32f4xx_hal_adc.c **** }
 1236              		.loc 1 1151 1
 1237 0196 1846     		mov	r0, r3
 1238 0198 1437     		adds	r7, r7, #20
 1239              		.cfi_def_cfa_offset 4
 1240 019a BD46     		mov	sp, r7
 1241              		.cfi_def_cfa_register 13
 1242              		@ sp needed
 1243 019c 5DF8047B 		ldr	r7, [sp], #4
 1244              		.cfi_restore 7
 1245              		.cfi_def_cfa_offset 0
 1246 01a0 7047     		bx	lr
 1247              	.L67:
 1248 01a2 00BF     		.align	2
 1249              	.L66:
 1250 01a4 00000000 		.word	SystemCoreClock
ARM GAS  C:\Users\Halil\AppData\Local\Temp\cc7e4Lrl.s 			page 43


 1251 01a8 83DE1B43 		.word	1125899907
 1252 01ac 00230140 		.word	1073816320
 1253 01b0 00200140 		.word	1073815552
 1254 01b4 00210140 		.word	1073815808
 1255 01b8 00220140 		.word	1073816064
 1256              		.cfi_endproc
 1257              	.LFE247:
 1259              		.section	.text.HAL_ADC_Stop_IT,"ax",%progbits
 1260              		.align	1
 1261              		.global	HAL_ADC_Stop_IT
 1262              		.syntax unified
 1263              		.thumb
 1264              		.thumb_func
 1266              	HAL_ADC_Stop_IT:
 1267              	.LFB248:
1152:Drivers/STM32F4xx_HAL_Driver/Src/stm32f4xx_hal_adc.c **** 
1153:Drivers/STM32F4xx_HAL_Driver/Src/stm32f4xx_hal_adc.c **** /**
1154:Drivers/STM32F4xx_HAL_Driver/Src/stm32f4xx_hal_adc.c ****   * @brief  Disables the interrupt and stop ADC conversion of regular channels.
1155:Drivers/STM32F4xx_HAL_Driver/Src/stm32f4xx_hal_adc.c ****   *
1156:Drivers/STM32F4xx_HAL_Driver/Src/stm32f4xx_hal_adc.c ****   * @note   Caution: This function will stop also injected channels.
1157:Drivers/STM32F4xx_HAL_Driver/Src/stm32f4xx_hal_adc.c ****   *
1158:Drivers/STM32F4xx_HAL_Driver/Src/stm32f4xx_hal_adc.c ****   * @param  hadc pointer to a ADC_HandleTypeDef structure that contains
1159:Drivers/STM32F4xx_HAL_Driver/Src/stm32f4xx_hal_adc.c ****   *         the configuration information for the specified ADC.
1160:Drivers/STM32F4xx_HAL_Driver/Src/stm32f4xx_hal_adc.c ****   * @retval HAL status.
1161:Drivers/STM32F4xx_HAL_Driver/Src/stm32f4xx_hal_adc.c ****   */
1162:Drivers/STM32F4xx_HAL_Driver/Src/stm32f4xx_hal_adc.c **** HAL_StatusTypeDef HAL_ADC_Stop_IT(ADC_HandleTypeDef *hadc)
1163:Drivers/STM32F4xx_HAL_Driver/Src/stm32f4xx_hal_adc.c **** {
 1268              		.loc 1 1163 1
 1269              		.cfi_startproc
 1270              		@ args = 0, pretend = 0, frame = 8
 1271              		@ frame_needed = 1, uses_anonymous_args = 0
 1272              		@ link register save eliminated.
 1273 0000 80B4     		push	{r7}
 1274              		.cfi_def_cfa_offset 4
 1275              		.cfi_offset 7, -4
 1276 0002 83B0     		sub	sp, sp, #12
 1277              		.cfi_def_cfa_offset 16
 1278 0004 00AF     		add	r7, sp, #0
 1279              		.cfi_def_cfa_register 7
 1280 0006 7860     		str	r0, [r7, #4]
1164:Drivers/STM32F4xx_HAL_Driver/Src/stm32f4xx_hal_adc.c ****   /* Check the parameters */
1165:Drivers/STM32F4xx_HAL_Driver/Src/stm32f4xx_hal_adc.c ****   assert_param(IS_ADC_ALL_INSTANCE(hadc->Instance));
1166:Drivers/STM32F4xx_HAL_Driver/Src/stm32f4xx_hal_adc.c **** 
1167:Drivers/STM32F4xx_HAL_Driver/Src/stm32f4xx_hal_adc.c ****   /* Process locked */
1168:Drivers/STM32F4xx_HAL_Driver/Src/stm32f4xx_hal_adc.c ****   __HAL_LOCK(hadc);
 1281              		.loc 1 1168 3
 1282 0008 7B68     		ldr	r3, [r7, #4]
 1283 000a 93F83C30 		ldrb	r3, [r3, #60]	@ zero_extendqisi2
 1284 000e 012B     		cmp	r3, #1
 1285 0010 01D1     		bne	.L69
 1286              		.loc 1 1168 3 is_stmt 0 discriminator 1
 1287 0012 0223     		movs	r3, #2
 1288 0014 2BE0     		b	.L70
 1289              	.L69:
 1290              		.loc 1 1168 3 discriminator 2
 1291 0016 7B68     		ldr	r3, [r7, #4]
 1292 0018 0122     		movs	r2, #1
ARM GAS  C:\Users\Halil\AppData\Local\Temp\cc7e4Lrl.s 			page 44


 1293 001a 83F83C20 		strb	r2, [r3, #60]
1169:Drivers/STM32F4xx_HAL_Driver/Src/stm32f4xx_hal_adc.c **** 
1170:Drivers/STM32F4xx_HAL_Driver/Src/stm32f4xx_hal_adc.c ****   /* Stop potential conversion on going, on regular and injected groups */
1171:Drivers/STM32F4xx_HAL_Driver/Src/stm32f4xx_hal_adc.c ****   /* Disable ADC peripheral */
1172:Drivers/STM32F4xx_HAL_Driver/Src/stm32f4xx_hal_adc.c ****   __HAL_ADC_DISABLE(hadc);
 1294              		.loc 1 1172 3 is_stmt 1 discriminator 2
 1295 001e 7B68     		ldr	r3, [r7, #4]
 1296 0020 1B68     		ldr	r3, [r3]
 1297 0022 9A68     		ldr	r2, [r3, #8]
 1298 0024 7B68     		ldr	r3, [r7, #4]
 1299 0026 1B68     		ldr	r3, [r3]
 1300 0028 22F00102 		bic	r2, r2, #1
 1301 002c 9A60     		str	r2, [r3, #8]
1173:Drivers/STM32F4xx_HAL_Driver/Src/stm32f4xx_hal_adc.c **** 
1174:Drivers/STM32F4xx_HAL_Driver/Src/stm32f4xx_hal_adc.c ****   /* Check if ADC is effectively disabled */
1175:Drivers/STM32F4xx_HAL_Driver/Src/stm32f4xx_hal_adc.c ****   if (HAL_IS_BIT_CLR(hadc->Instance->CR2, ADC_CR2_ADON))
 1302              		.loc 1 1175 7 discriminator 2
 1303 002e 7B68     		ldr	r3, [r7, #4]
 1304 0030 1B68     		ldr	r3, [r3]
 1305 0032 9B68     		ldr	r3, [r3, #8]
 1306 0034 03F00103 		and	r3, r3, #1
 1307              		.loc 1 1175 6 discriminator 2
 1308 0038 002B     		cmp	r3, #0
 1309 003a 13D1     		bne	.L71
1176:Drivers/STM32F4xx_HAL_Driver/Src/stm32f4xx_hal_adc.c ****   {
1177:Drivers/STM32F4xx_HAL_Driver/Src/stm32f4xx_hal_adc.c ****     /* Disable ADC end of conversion interrupt for regular group */
1178:Drivers/STM32F4xx_HAL_Driver/Src/stm32f4xx_hal_adc.c ****     __HAL_ADC_DISABLE_IT(hadc, (ADC_IT_EOC | ADC_IT_OVR));
 1310              		.loc 1 1178 5
 1311 003c 7B68     		ldr	r3, [r7, #4]
 1312 003e 1B68     		ldr	r3, [r3]
 1313 0040 5B68     		ldr	r3, [r3, #4]
 1314 0042 7A68     		ldr	r2, [r7, #4]
 1315 0044 1268     		ldr	r2, [r2]
 1316 0046 23F08063 		bic	r3, r3, #67108864
 1317 004a 23F02003 		bic	r3, r3, #32
 1318 004e 5360     		str	r3, [r2, #4]
1179:Drivers/STM32F4xx_HAL_Driver/Src/stm32f4xx_hal_adc.c **** 
1180:Drivers/STM32F4xx_HAL_Driver/Src/stm32f4xx_hal_adc.c ****     /* Set ADC state */
1181:Drivers/STM32F4xx_HAL_Driver/Src/stm32f4xx_hal_adc.c ****     ADC_STATE_CLR_SET(hadc->State,
 1319              		.loc 1 1181 5
 1320 0050 7B68     		ldr	r3, [r7, #4]
 1321 0052 1B6C     		ldr	r3, [r3, #64]
 1322 0054 23F48853 		bic	r3, r3, #4352
 1323 0058 23F00103 		bic	r3, r3, #1
 1324 005c 43F00102 		orr	r2, r3, #1
 1325 0060 7B68     		ldr	r3, [r7, #4]
 1326 0062 1A64     		str	r2, [r3, #64]
 1327              	.L71:
1182:Drivers/STM32F4xx_HAL_Driver/Src/stm32f4xx_hal_adc.c ****                       HAL_ADC_STATE_REG_BUSY | HAL_ADC_STATE_INJ_BUSY,
1183:Drivers/STM32F4xx_HAL_Driver/Src/stm32f4xx_hal_adc.c ****                       HAL_ADC_STATE_READY);
1184:Drivers/STM32F4xx_HAL_Driver/Src/stm32f4xx_hal_adc.c ****   }
1185:Drivers/STM32F4xx_HAL_Driver/Src/stm32f4xx_hal_adc.c **** 
1186:Drivers/STM32F4xx_HAL_Driver/Src/stm32f4xx_hal_adc.c ****   /* Process unlocked */
1187:Drivers/STM32F4xx_HAL_Driver/Src/stm32f4xx_hal_adc.c ****   __HAL_UNLOCK(hadc);
 1328              		.loc 1 1187 3
 1329 0064 7B68     		ldr	r3, [r7, #4]
 1330 0066 0022     		movs	r2, #0
ARM GAS  C:\Users\Halil\AppData\Local\Temp\cc7e4Lrl.s 			page 45


 1331 0068 83F83C20 		strb	r2, [r3, #60]
1188:Drivers/STM32F4xx_HAL_Driver/Src/stm32f4xx_hal_adc.c **** 
1189:Drivers/STM32F4xx_HAL_Driver/Src/stm32f4xx_hal_adc.c ****   /* Return function status */
1190:Drivers/STM32F4xx_HAL_Driver/Src/stm32f4xx_hal_adc.c ****   return HAL_OK;
 1332              		.loc 1 1190 10
 1333 006c 0023     		movs	r3, #0
 1334              	.L70:
1191:Drivers/STM32F4xx_HAL_Driver/Src/stm32f4xx_hal_adc.c **** }
 1335              		.loc 1 1191 1
 1336 006e 1846     		mov	r0, r3
 1337 0070 0C37     		adds	r7, r7, #12
 1338              		.cfi_def_cfa_offset 4
 1339 0072 BD46     		mov	sp, r7
 1340              		.cfi_def_cfa_register 13
 1341              		@ sp needed
 1342 0074 5DF8047B 		ldr	r7, [sp], #4
 1343              		.cfi_restore 7
 1344              		.cfi_def_cfa_offset 0
 1345 0078 7047     		bx	lr
 1346              		.cfi_endproc
 1347              	.LFE248:
 1349              		.section	.text.HAL_ADC_IRQHandler,"ax",%progbits
 1350              		.align	1
 1351              		.global	HAL_ADC_IRQHandler
 1352              		.syntax unified
 1353              		.thumb
 1354              		.thumb_func
 1356              	HAL_ADC_IRQHandler:
 1357              	.LFB249:
1192:Drivers/STM32F4xx_HAL_Driver/Src/stm32f4xx_hal_adc.c **** 
1193:Drivers/STM32F4xx_HAL_Driver/Src/stm32f4xx_hal_adc.c **** /**
1194:Drivers/STM32F4xx_HAL_Driver/Src/stm32f4xx_hal_adc.c ****   * @brief  Handles ADC interrupt request
1195:Drivers/STM32F4xx_HAL_Driver/Src/stm32f4xx_hal_adc.c ****   * @param  hadc pointer to a ADC_HandleTypeDef structure that contains
1196:Drivers/STM32F4xx_HAL_Driver/Src/stm32f4xx_hal_adc.c ****   *         the configuration information for the specified ADC.
1197:Drivers/STM32F4xx_HAL_Driver/Src/stm32f4xx_hal_adc.c ****   * @retval None
1198:Drivers/STM32F4xx_HAL_Driver/Src/stm32f4xx_hal_adc.c ****   */
1199:Drivers/STM32F4xx_HAL_Driver/Src/stm32f4xx_hal_adc.c **** void HAL_ADC_IRQHandler(ADC_HandleTypeDef *hadc)
1200:Drivers/STM32F4xx_HAL_Driver/Src/stm32f4xx_hal_adc.c **** {
 1358              		.loc 1 1200 1
 1359              		.cfi_startproc
 1360              		@ args = 0, pretend = 0, frame = 24
 1361              		@ frame_needed = 1, uses_anonymous_args = 0
 1362 0000 80B5     		push	{r7, lr}
 1363              		.cfi_def_cfa_offset 8
 1364              		.cfi_offset 7, -8
 1365              		.cfi_offset 14, -4
 1366 0002 86B0     		sub	sp, sp, #24
 1367              		.cfi_def_cfa_offset 32
 1368 0004 00AF     		add	r7, sp, #0
 1369              		.cfi_def_cfa_register 7
 1370 0006 7860     		str	r0, [r7, #4]
1201:Drivers/STM32F4xx_HAL_Driver/Src/stm32f4xx_hal_adc.c ****   uint32_t tmp1 = 0U, tmp2 = 0U;
 1371              		.loc 1 1201 12
 1372 0008 0023     		movs	r3, #0
 1373 000a 7B61     		str	r3, [r7, #20]
 1374              		.loc 1 1201 23
 1375 000c 0023     		movs	r3, #0
ARM GAS  C:\Users\Halil\AppData\Local\Temp\cc7e4Lrl.s 			page 46


 1376 000e 3B61     		str	r3, [r7, #16]
1202:Drivers/STM32F4xx_HAL_Driver/Src/stm32f4xx_hal_adc.c **** 
1203:Drivers/STM32F4xx_HAL_Driver/Src/stm32f4xx_hal_adc.c ****   uint32_t tmp_sr = hadc->Instance->SR;
 1377              		.loc 1 1203 25
 1378 0010 7B68     		ldr	r3, [r7, #4]
 1379 0012 1B68     		ldr	r3, [r3]
 1380              		.loc 1 1203 12
 1381 0014 1B68     		ldr	r3, [r3]
 1382 0016 FB60     		str	r3, [r7, #12]
1204:Drivers/STM32F4xx_HAL_Driver/Src/stm32f4xx_hal_adc.c ****   uint32_t tmp_cr1 = hadc->Instance->CR1;
 1383              		.loc 1 1204 26
 1384 0018 7B68     		ldr	r3, [r7, #4]
 1385 001a 1B68     		ldr	r3, [r3]
 1386              		.loc 1 1204 12
 1387 001c 5B68     		ldr	r3, [r3, #4]
 1388 001e BB60     		str	r3, [r7, #8]
1205:Drivers/STM32F4xx_HAL_Driver/Src/stm32f4xx_hal_adc.c **** 
1206:Drivers/STM32F4xx_HAL_Driver/Src/stm32f4xx_hal_adc.c ****   /* Check the parameters */
1207:Drivers/STM32F4xx_HAL_Driver/Src/stm32f4xx_hal_adc.c ****   assert_param(IS_FUNCTIONAL_STATE(hadc->Init.ContinuousConvMode));
1208:Drivers/STM32F4xx_HAL_Driver/Src/stm32f4xx_hal_adc.c ****   assert_param(IS_ADC_REGULAR_LENGTH(hadc->Init.NbrOfConversion));
1209:Drivers/STM32F4xx_HAL_Driver/Src/stm32f4xx_hal_adc.c ****   assert_param(IS_ADC_EOCSelection(hadc->Init.EOCSelection));
1210:Drivers/STM32F4xx_HAL_Driver/Src/stm32f4xx_hal_adc.c **** 
1211:Drivers/STM32F4xx_HAL_Driver/Src/stm32f4xx_hal_adc.c ****   tmp1 = tmp_sr & ADC_FLAG_EOC;
 1389              		.loc 1 1211 8
 1390 0020 FB68     		ldr	r3, [r7, #12]
 1391 0022 03F00203 		and	r3, r3, #2
 1392 0026 7B61     		str	r3, [r7, #20]
1212:Drivers/STM32F4xx_HAL_Driver/Src/stm32f4xx_hal_adc.c ****   tmp2 = tmp_cr1 & ADC_IT_EOC;
 1393              		.loc 1 1212 8
 1394 0028 BB68     		ldr	r3, [r7, #8]
 1395 002a 03F02003 		and	r3, r3, #32
 1396 002e 3B61     		str	r3, [r7, #16]
1213:Drivers/STM32F4xx_HAL_Driver/Src/stm32f4xx_hal_adc.c ****   /* Check End of conversion flag for regular channels */
1214:Drivers/STM32F4xx_HAL_Driver/Src/stm32f4xx_hal_adc.c ****   if (tmp1 && tmp2)
 1397              		.loc 1 1214 6
 1398 0030 7B69     		ldr	r3, [r7, #20]
 1399 0032 002B     		cmp	r3, #0
 1400 0034 49D0     		beq	.L73
 1401              		.loc 1 1214 12 discriminator 1
 1402 0036 3B69     		ldr	r3, [r7, #16]
 1403 0038 002B     		cmp	r3, #0
 1404 003a 46D0     		beq	.L73
1215:Drivers/STM32F4xx_HAL_Driver/Src/stm32f4xx_hal_adc.c ****   {
1216:Drivers/STM32F4xx_HAL_Driver/Src/stm32f4xx_hal_adc.c ****     /* Update state machine on conversion status if not in error state */
1217:Drivers/STM32F4xx_HAL_Driver/Src/stm32f4xx_hal_adc.c ****     if (HAL_IS_BIT_CLR(hadc->State, HAL_ADC_STATE_ERROR_INTERNAL))
 1405              		.loc 1 1217 9
 1406 003c 7B68     		ldr	r3, [r7, #4]
 1407 003e 1B6C     		ldr	r3, [r3, #64]
 1408 0040 03F01003 		and	r3, r3, #16
 1409              		.loc 1 1217 8
 1410 0044 002B     		cmp	r3, #0
 1411 0046 05D1     		bne	.L74
1218:Drivers/STM32F4xx_HAL_Driver/Src/stm32f4xx_hal_adc.c ****     {
1219:Drivers/STM32F4xx_HAL_Driver/Src/stm32f4xx_hal_adc.c ****       /* Set ADC state */
1220:Drivers/STM32F4xx_HAL_Driver/Src/stm32f4xx_hal_adc.c ****       SET_BIT(hadc->State, HAL_ADC_STATE_REG_EOC);
 1412              		.loc 1 1220 7
 1413 0048 7B68     		ldr	r3, [r7, #4]
ARM GAS  C:\Users\Halil\AppData\Local\Temp\cc7e4Lrl.s 			page 47


 1414 004a 1B6C     		ldr	r3, [r3, #64]
 1415 004c 43F40072 		orr	r2, r3, #512
 1416 0050 7B68     		ldr	r3, [r7, #4]
 1417 0052 1A64     		str	r2, [r3, #64]
 1418              	.L74:
1221:Drivers/STM32F4xx_HAL_Driver/Src/stm32f4xx_hal_adc.c ****     }
1222:Drivers/STM32F4xx_HAL_Driver/Src/stm32f4xx_hal_adc.c **** 
1223:Drivers/STM32F4xx_HAL_Driver/Src/stm32f4xx_hal_adc.c ****     /* Determine whether any further conversion upcoming on group regular   */
1224:Drivers/STM32F4xx_HAL_Driver/Src/stm32f4xx_hal_adc.c ****     /* by external trigger, continuous mode or scan sequence on going.      */
1225:Drivers/STM32F4xx_HAL_Driver/Src/stm32f4xx_hal_adc.c ****     /* Note: On STM32F4, there is no independent flag of end of sequence.   */
1226:Drivers/STM32F4xx_HAL_Driver/Src/stm32f4xx_hal_adc.c ****     /*       The test of scan sequence on going is done either with scan    */
1227:Drivers/STM32F4xx_HAL_Driver/Src/stm32f4xx_hal_adc.c ****     /*       sequence disabled or with end of conversion flag set to        */
1228:Drivers/STM32F4xx_HAL_Driver/Src/stm32f4xx_hal_adc.c ****     /*       of end of sequence.                                            */
1229:Drivers/STM32F4xx_HAL_Driver/Src/stm32f4xx_hal_adc.c ****     if (ADC_IS_SOFTWARE_START_REGULAR(hadc)                   &&
 1419              		.loc 1 1229 9
 1420 0054 7B68     		ldr	r3, [r7, #4]
 1421 0056 1B68     		ldr	r3, [r3]
 1422 0058 9B68     		ldr	r3, [r3, #8]
 1423 005a 03F04053 		and	r3, r3, #805306368
 1424              		.loc 1 1229 8
 1425 005e 002B     		cmp	r3, #0
 1426 0060 2BD1     		bne	.L75
1230:Drivers/STM32F4xx_HAL_Driver/Src/stm32f4xx_hal_adc.c ****         (hadc->Init.ContinuousConvMode == DISABLE)            &&
 1427              		.loc 1 1230 20 discriminator 1
 1428 0062 7B68     		ldr	r3, [r7, #4]
 1429 0064 1B7E     		ldrb	r3, [r3, #24]	@ zero_extendqisi2
1229:Drivers/STM32F4xx_HAL_Driver/Src/stm32f4xx_hal_adc.c ****         (hadc->Init.ContinuousConvMode == DISABLE)            &&
 1430              		.loc 1 1229 63 discriminator 1
 1431 0066 002B     		cmp	r3, #0
 1432 0068 27D1     		bne	.L75
1231:Drivers/STM32F4xx_HAL_Driver/Src/stm32f4xx_hal_adc.c ****         (HAL_IS_BIT_CLR(hadc->Instance->SQR1, ADC_SQR1_L) ||
 1433              		.loc 1 1231 10
 1434 006a 7B68     		ldr	r3, [r7, #4]
 1435 006c 1B68     		ldr	r3, [r3]
 1436 006e DB6A     		ldr	r3, [r3, #44]
 1437 0070 03F47003 		and	r3, r3, #15728640
1230:Drivers/STM32F4xx_HAL_Driver/Src/stm32f4xx_hal_adc.c ****         (hadc->Init.ContinuousConvMode == DISABLE)            &&
 1438              		.loc 1 1230 63
 1439 0074 002B     		cmp	r3, #0
 1440 0076 06D0     		beq	.L76
1232:Drivers/STM32F4xx_HAL_Driver/Src/stm32f4xx_hal_adc.c ****          HAL_IS_BIT_CLR(hadc->Instance->CR2, ADC_CR2_EOCS)))
 1441              		.loc 1 1232 10
 1442 0078 7B68     		ldr	r3, [r7, #4]
 1443 007a 1B68     		ldr	r3, [r3]
 1444 007c 9B68     		ldr	r3, [r3, #8]
 1445 007e 03F48063 		and	r3, r3, #1024
1231:Drivers/STM32F4xx_HAL_Driver/Src/stm32f4xx_hal_adc.c ****         (HAL_IS_BIT_CLR(hadc->Instance->SQR1, ADC_SQR1_L) ||
 1446              		.loc 1 1231 59
 1447 0082 002B     		cmp	r3, #0
 1448 0084 19D1     		bne	.L75
 1449              	.L76:
1233:Drivers/STM32F4xx_HAL_Driver/Src/stm32f4xx_hal_adc.c ****     {
1234:Drivers/STM32F4xx_HAL_Driver/Src/stm32f4xx_hal_adc.c ****       /* Disable ADC end of single conversion interrupt on group regular */
1235:Drivers/STM32F4xx_HAL_Driver/Src/stm32f4xx_hal_adc.c ****       /* Note: Overrun interrupt was enabled with EOC interrupt in          */
1236:Drivers/STM32F4xx_HAL_Driver/Src/stm32f4xx_hal_adc.c ****       /* HAL_ADC_Start_IT(), but is not disabled here because can be used   */
1237:Drivers/STM32F4xx_HAL_Driver/Src/stm32f4xx_hal_adc.c ****       /* by overrun IRQ process below.                                      */
1238:Drivers/STM32F4xx_HAL_Driver/Src/stm32f4xx_hal_adc.c ****       __HAL_ADC_DISABLE_IT(hadc, ADC_IT_EOC);
ARM GAS  C:\Users\Halil\AppData\Local\Temp\cc7e4Lrl.s 			page 48


 1450              		.loc 1 1238 7
 1451 0086 7B68     		ldr	r3, [r7, #4]
 1452 0088 1B68     		ldr	r3, [r3]
 1453 008a 5A68     		ldr	r2, [r3, #4]
 1454 008c 7B68     		ldr	r3, [r7, #4]
 1455 008e 1B68     		ldr	r3, [r3]
 1456 0090 22F02002 		bic	r2, r2, #32
 1457 0094 5A60     		str	r2, [r3, #4]
1239:Drivers/STM32F4xx_HAL_Driver/Src/stm32f4xx_hal_adc.c **** 
1240:Drivers/STM32F4xx_HAL_Driver/Src/stm32f4xx_hal_adc.c ****       /* Set ADC state */
1241:Drivers/STM32F4xx_HAL_Driver/Src/stm32f4xx_hal_adc.c ****       CLEAR_BIT(hadc->State, HAL_ADC_STATE_REG_BUSY);
 1458              		.loc 1 1241 7
 1459 0096 7B68     		ldr	r3, [r7, #4]
 1460 0098 1B6C     		ldr	r3, [r3, #64]
 1461 009a 23F48072 		bic	r2, r3, #256
 1462 009e 7B68     		ldr	r3, [r7, #4]
 1463 00a0 1A64     		str	r2, [r3, #64]
1242:Drivers/STM32F4xx_HAL_Driver/Src/stm32f4xx_hal_adc.c **** 
1243:Drivers/STM32F4xx_HAL_Driver/Src/stm32f4xx_hal_adc.c ****       if (HAL_IS_BIT_CLR(hadc->State, HAL_ADC_STATE_INJ_BUSY))
 1464              		.loc 1 1243 11
 1465 00a2 7B68     		ldr	r3, [r7, #4]
 1466 00a4 1B6C     		ldr	r3, [r3, #64]
 1467 00a6 03F48053 		and	r3, r3, #4096
 1468              		.loc 1 1243 10
 1469 00aa 002B     		cmp	r3, #0
 1470 00ac 05D1     		bne	.L75
1244:Drivers/STM32F4xx_HAL_Driver/Src/stm32f4xx_hal_adc.c ****       {
1245:Drivers/STM32F4xx_HAL_Driver/Src/stm32f4xx_hal_adc.c ****         SET_BIT(hadc->State, HAL_ADC_STATE_READY);
 1471              		.loc 1 1245 9
 1472 00ae 7B68     		ldr	r3, [r7, #4]
 1473 00b0 1B6C     		ldr	r3, [r3, #64]
 1474 00b2 43F00102 		orr	r2, r3, #1
 1475 00b6 7B68     		ldr	r3, [r7, #4]
 1476 00b8 1A64     		str	r2, [r3, #64]
 1477              	.L75:
1246:Drivers/STM32F4xx_HAL_Driver/Src/stm32f4xx_hal_adc.c ****       }
1247:Drivers/STM32F4xx_HAL_Driver/Src/stm32f4xx_hal_adc.c ****     }
1248:Drivers/STM32F4xx_HAL_Driver/Src/stm32f4xx_hal_adc.c **** 
1249:Drivers/STM32F4xx_HAL_Driver/Src/stm32f4xx_hal_adc.c ****     /* Conversion complete callback */
1250:Drivers/STM32F4xx_HAL_Driver/Src/stm32f4xx_hal_adc.c **** #if (USE_HAL_ADC_REGISTER_CALLBACKS == 1)
1251:Drivers/STM32F4xx_HAL_Driver/Src/stm32f4xx_hal_adc.c ****     hadc->ConvCpltCallback(hadc);
1252:Drivers/STM32F4xx_HAL_Driver/Src/stm32f4xx_hal_adc.c **** #else
1253:Drivers/STM32F4xx_HAL_Driver/Src/stm32f4xx_hal_adc.c ****     HAL_ADC_ConvCpltCallback(hadc);
 1478              		.loc 1 1253 5
 1479 00ba 7868     		ldr	r0, [r7, #4]
 1480 00bc FFF7FEFF 		bl	HAL_ADC_ConvCpltCallback
1254:Drivers/STM32F4xx_HAL_Driver/Src/stm32f4xx_hal_adc.c **** #endif /* USE_HAL_ADC_REGISTER_CALLBACKS */
1255:Drivers/STM32F4xx_HAL_Driver/Src/stm32f4xx_hal_adc.c **** 
1256:Drivers/STM32F4xx_HAL_Driver/Src/stm32f4xx_hal_adc.c ****     /* Clear regular group conversion flag */
1257:Drivers/STM32F4xx_HAL_Driver/Src/stm32f4xx_hal_adc.c ****     __HAL_ADC_CLEAR_FLAG(hadc, ADC_FLAG_STRT | ADC_FLAG_EOC);
 1481              		.loc 1 1257 5
 1482 00c0 7B68     		ldr	r3, [r7, #4]
 1483 00c2 1B68     		ldr	r3, [r3]
 1484 00c4 6FF01202 		mvn	r2, #18
 1485 00c8 1A60     		str	r2, [r3]
 1486              	.L73:
1258:Drivers/STM32F4xx_HAL_Driver/Src/stm32f4xx_hal_adc.c ****   }
ARM GAS  C:\Users\Halil\AppData\Local\Temp\cc7e4Lrl.s 			page 49


1259:Drivers/STM32F4xx_HAL_Driver/Src/stm32f4xx_hal_adc.c **** 
1260:Drivers/STM32F4xx_HAL_Driver/Src/stm32f4xx_hal_adc.c ****   tmp1 = tmp_sr & ADC_FLAG_JEOC;
 1487              		.loc 1 1260 8
 1488 00ca FB68     		ldr	r3, [r7, #12]
 1489 00cc 03F00403 		and	r3, r3, #4
 1490 00d0 7B61     		str	r3, [r7, #20]
1261:Drivers/STM32F4xx_HAL_Driver/Src/stm32f4xx_hal_adc.c ****   tmp2 = tmp_cr1 & ADC_IT_JEOC;
 1491              		.loc 1 1261 8
 1492 00d2 BB68     		ldr	r3, [r7, #8]
 1493 00d4 03F08003 		and	r3, r3, #128
 1494 00d8 3B61     		str	r3, [r7, #16]
1262:Drivers/STM32F4xx_HAL_Driver/Src/stm32f4xx_hal_adc.c ****   /* Check End of conversion flag for injected channels */
1263:Drivers/STM32F4xx_HAL_Driver/Src/stm32f4xx_hal_adc.c ****   if (tmp1 && tmp2)
 1495              		.loc 1 1263 6
 1496 00da 7B69     		ldr	r3, [r7, #20]
 1497 00dc 002B     		cmp	r3, #0
 1498 00de 57D0     		beq	.L77
 1499              		.loc 1 1263 12 discriminator 1
 1500 00e0 3B69     		ldr	r3, [r7, #16]
 1501 00e2 002B     		cmp	r3, #0
 1502 00e4 54D0     		beq	.L77
1264:Drivers/STM32F4xx_HAL_Driver/Src/stm32f4xx_hal_adc.c ****   {
1265:Drivers/STM32F4xx_HAL_Driver/Src/stm32f4xx_hal_adc.c ****     /* Update state machine on conversion status if not in error state */
1266:Drivers/STM32F4xx_HAL_Driver/Src/stm32f4xx_hal_adc.c ****     if (HAL_IS_BIT_CLR(hadc->State, HAL_ADC_STATE_ERROR_INTERNAL))
 1503              		.loc 1 1266 9
 1504 00e6 7B68     		ldr	r3, [r7, #4]
 1505 00e8 1B6C     		ldr	r3, [r3, #64]
 1506 00ea 03F01003 		and	r3, r3, #16
 1507              		.loc 1 1266 8
 1508 00ee 002B     		cmp	r3, #0
 1509 00f0 05D1     		bne	.L78
1267:Drivers/STM32F4xx_HAL_Driver/Src/stm32f4xx_hal_adc.c ****     {
1268:Drivers/STM32F4xx_HAL_Driver/Src/stm32f4xx_hal_adc.c ****       /* Set ADC state */
1269:Drivers/STM32F4xx_HAL_Driver/Src/stm32f4xx_hal_adc.c ****       SET_BIT(hadc->State, HAL_ADC_STATE_INJ_EOC);
 1510              		.loc 1 1269 7
 1511 00f2 7B68     		ldr	r3, [r7, #4]
 1512 00f4 1B6C     		ldr	r3, [r3, #64]
 1513 00f6 43F40052 		orr	r2, r3, #8192
 1514 00fa 7B68     		ldr	r3, [r7, #4]
 1515 00fc 1A64     		str	r2, [r3, #64]
 1516              	.L78:
1270:Drivers/STM32F4xx_HAL_Driver/Src/stm32f4xx_hal_adc.c ****     }
1271:Drivers/STM32F4xx_HAL_Driver/Src/stm32f4xx_hal_adc.c **** 
1272:Drivers/STM32F4xx_HAL_Driver/Src/stm32f4xx_hal_adc.c ****     /* Determine whether any further conversion upcoming on group injected  */
1273:Drivers/STM32F4xx_HAL_Driver/Src/stm32f4xx_hal_adc.c ****     /* by external trigger, scan sequence on going or by automatic injected */
1274:Drivers/STM32F4xx_HAL_Driver/Src/stm32f4xx_hal_adc.c ****     /* conversion from group regular (same conditions as group regular      */
1275:Drivers/STM32F4xx_HAL_Driver/Src/stm32f4xx_hal_adc.c ****     /* interruption disabling above).                                       */
1276:Drivers/STM32F4xx_HAL_Driver/Src/stm32f4xx_hal_adc.c ****     if (ADC_IS_SOFTWARE_START_INJECTED(hadc)                    &&
 1517              		.loc 1 1276 9
 1518 00fe 7B68     		ldr	r3, [r7, #4]
 1519 0100 1B68     		ldr	r3, [r3]
 1520 0102 9B68     		ldr	r3, [r3, #8]
 1521 0104 03F44013 		and	r3, r3, #3145728
 1522              		.loc 1 1276 8
 1523 0108 002B     		cmp	r3, #0
 1524 010a 39D1     		bne	.L79
1277:Drivers/STM32F4xx_HAL_Driver/Src/stm32f4xx_hal_adc.c ****         (HAL_IS_BIT_CLR(hadc->Instance->JSQR, ADC_JSQR_JL)  ||
ARM GAS  C:\Users\Halil\AppData\Local\Temp\cc7e4Lrl.s 			page 50


 1525              		.loc 1 1277 10 discriminator 1
 1526 010c 7B68     		ldr	r3, [r7, #4]
 1527 010e 1B68     		ldr	r3, [r3]
 1528 0110 9B6B     		ldr	r3, [r3, #56]
 1529 0112 03F44013 		and	r3, r3, #3145728
1276:Drivers/STM32F4xx_HAL_Driver/Src/stm32f4xx_hal_adc.c ****         (HAL_IS_BIT_CLR(hadc->Instance->JSQR, ADC_JSQR_JL)  ||
 1530              		.loc 1 1276 65 discriminator 1
 1531 0116 002B     		cmp	r3, #0
 1532 0118 06D0     		beq	.L80
1278:Drivers/STM32F4xx_HAL_Driver/Src/stm32f4xx_hal_adc.c ****          HAL_IS_BIT_CLR(hadc->Instance->CR2, ADC_CR2_EOCS)) &&
 1533              		.loc 1 1278 10
 1534 011a 7B68     		ldr	r3, [r7, #4]
 1535 011c 1B68     		ldr	r3, [r3]
 1536 011e 9B68     		ldr	r3, [r3, #8]
 1537 0120 03F48063 		and	r3, r3, #1024
1277:Drivers/STM32F4xx_HAL_Driver/Src/stm32f4xx_hal_adc.c ****         (HAL_IS_BIT_CLR(hadc->Instance->JSQR, ADC_JSQR_JL)  ||
 1538              		.loc 1 1277 61
 1539 0124 002B     		cmp	r3, #0
 1540 0126 2BD1     		bne	.L79
 1541              	.L80:
1279:Drivers/STM32F4xx_HAL_Driver/Src/stm32f4xx_hal_adc.c ****         (HAL_IS_BIT_CLR(hadc->Instance->CR1, ADC_CR1_JAUTO) &&
 1542              		.loc 1 1279 10
 1543 0128 7B68     		ldr	r3, [r7, #4]
 1544 012a 1B68     		ldr	r3, [r3]
 1545 012c 5B68     		ldr	r3, [r3, #4]
 1546 012e 03F48063 		and	r3, r3, #1024
1278:Drivers/STM32F4xx_HAL_Driver/Src/stm32f4xx_hal_adc.c ****          HAL_IS_BIT_CLR(hadc->Instance->CR2, ADC_CR2_EOCS)) &&
 1547              		.loc 1 1278 61
 1548 0132 002B     		cmp	r3, #0
 1549 0134 24D1     		bne	.L79
1280:Drivers/STM32F4xx_HAL_Driver/Src/stm32f4xx_hal_adc.c ****          (ADC_IS_SOFTWARE_START_REGULAR(hadc)       &&
 1550              		.loc 1 1280 11
 1551 0136 7B68     		ldr	r3, [r7, #4]
 1552 0138 1B68     		ldr	r3, [r3]
 1553 013a 9B68     		ldr	r3, [r3, #8]
 1554 013c 03F04053 		and	r3, r3, #805306368
1279:Drivers/STM32F4xx_HAL_Driver/Src/stm32f4xx_hal_adc.c ****         (HAL_IS_BIT_CLR(hadc->Instance->CR1, ADC_CR1_JAUTO) &&
 1555              		.loc 1 1279 61
 1556 0140 002B     		cmp	r3, #0
 1557 0142 1DD1     		bne	.L79
1281:Drivers/STM32F4xx_HAL_Driver/Src/stm32f4xx_hal_adc.c ****           (hadc->Init.ContinuousConvMode == DISABLE))))
 1558              		.loc 1 1281 22
 1559 0144 7B68     		ldr	r3, [r7, #4]
 1560 0146 1B7E     		ldrb	r3, [r3, #24]	@ zero_extendqisi2
1280:Drivers/STM32F4xx_HAL_Driver/Src/stm32f4xx_hal_adc.c ****          (ADC_IS_SOFTWARE_START_REGULAR(hadc)       &&
 1561              		.loc 1 1280 53
 1562 0148 002B     		cmp	r3, #0
 1563 014a 19D1     		bne	.L79
1282:Drivers/STM32F4xx_HAL_Driver/Src/stm32f4xx_hal_adc.c ****     {
1283:Drivers/STM32F4xx_HAL_Driver/Src/stm32f4xx_hal_adc.c ****       /* Disable ADC end of single conversion interrupt on group injected */
1284:Drivers/STM32F4xx_HAL_Driver/Src/stm32f4xx_hal_adc.c ****       __HAL_ADC_DISABLE_IT(hadc, ADC_IT_JEOC);
 1564              		.loc 1 1284 7
 1565 014c 7B68     		ldr	r3, [r7, #4]
 1566 014e 1B68     		ldr	r3, [r3]
 1567 0150 5A68     		ldr	r2, [r3, #4]
 1568 0152 7B68     		ldr	r3, [r7, #4]
 1569 0154 1B68     		ldr	r3, [r3]
ARM GAS  C:\Users\Halil\AppData\Local\Temp\cc7e4Lrl.s 			page 51


 1570 0156 22F08002 		bic	r2, r2, #128
 1571 015a 5A60     		str	r2, [r3, #4]
1285:Drivers/STM32F4xx_HAL_Driver/Src/stm32f4xx_hal_adc.c **** 
1286:Drivers/STM32F4xx_HAL_Driver/Src/stm32f4xx_hal_adc.c ****       /* Set ADC state */
1287:Drivers/STM32F4xx_HAL_Driver/Src/stm32f4xx_hal_adc.c ****       CLEAR_BIT(hadc->State, HAL_ADC_STATE_INJ_BUSY);
 1572              		.loc 1 1287 7
 1573 015c 7B68     		ldr	r3, [r7, #4]
 1574 015e 1B6C     		ldr	r3, [r3, #64]
 1575 0160 23F48052 		bic	r2, r3, #4096
 1576 0164 7B68     		ldr	r3, [r7, #4]
 1577 0166 1A64     		str	r2, [r3, #64]
1288:Drivers/STM32F4xx_HAL_Driver/Src/stm32f4xx_hal_adc.c **** 
1289:Drivers/STM32F4xx_HAL_Driver/Src/stm32f4xx_hal_adc.c ****       if (HAL_IS_BIT_CLR(hadc->State, HAL_ADC_STATE_REG_BUSY))
 1578              		.loc 1 1289 11
 1579 0168 7B68     		ldr	r3, [r7, #4]
 1580 016a 1B6C     		ldr	r3, [r3, #64]
 1581 016c 03F48073 		and	r3, r3, #256
 1582              		.loc 1 1289 10
 1583 0170 002B     		cmp	r3, #0
 1584 0172 05D1     		bne	.L79
1290:Drivers/STM32F4xx_HAL_Driver/Src/stm32f4xx_hal_adc.c ****       {
1291:Drivers/STM32F4xx_HAL_Driver/Src/stm32f4xx_hal_adc.c ****         SET_BIT(hadc->State, HAL_ADC_STATE_READY);
 1585              		.loc 1 1291 9
 1586 0174 7B68     		ldr	r3, [r7, #4]
 1587 0176 1B6C     		ldr	r3, [r3, #64]
 1588 0178 43F00102 		orr	r2, r3, #1
 1589 017c 7B68     		ldr	r3, [r7, #4]
 1590 017e 1A64     		str	r2, [r3, #64]
 1591              	.L79:
1292:Drivers/STM32F4xx_HAL_Driver/Src/stm32f4xx_hal_adc.c ****       }
1293:Drivers/STM32F4xx_HAL_Driver/Src/stm32f4xx_hal_adc.c ****     }
1294:Drivers/STM32F4xx_HAL_Driver/Src/stm32f4xx_hal_adc.c **** 
1295:Drivers/STM32F4xx_HAL_Driver/Src/stm32f4xx_hal_adc.c ****     /* Conversion complete callback */
1296:Drivers/STM32F4xx_HAL_Driver/Src/stm32f4xx_hal_adc.c ****     /* Conversion complete callback */
1297:Drivers/STM32F4xx_HAL_Driver/Src/stm32f4xx_hal_adc.c **** #if (USE_HAL_ADC_REGISTER_CALLBACKS == 1)
1298:Drivers/STM32F4xx_HAL_Driver/Src/stm32f4xx_hal_adc.c ****     hadc->InjectedConvCpltCallback(hadc);
1299:Drivers/STM32F4xx_HAL_Driver/Src/stm32f4xx_hal_adc.c **** #else
1300:Drivers/STM32F4xx_HAL_Driver/Src/stm32f4xx_hal_adc.c ****     HAL_ADCEx_InjectedConvCpltCallback(hadc);
 1592              		.loc 1 1300 5
 1593 0180 7868     		ldr	r0, [r7, #4]
 1594 0182 FFF7FEFF 		bl	HAL_ADCEx_InjectedConvCpltCallback
1301:Drivers/STM32F4xx_HAL_Driver/Src/stm32f4xx_hal_adc.c **** #endif /* USE_HAL_ADC_REGISTER_CALLBACKS */
1302:Drivers/STM32F4xx_HAL_Driver/Src/stm32f4xx_hal_adc.c **** 
1303:Drivers/STM32F4xx_HAL_Driver/Src/stm32f4xx_hal_adc.c ****     /* Clear injected group conversion flag */
1304:Drivers/STM32F4xx_HAL_Driver/Src/stm32f4xx_hal_adc.c ****     __HAL_ADC_CLEAR_FLAG(hadc, (ADC_FLAG_JSTRT | ADC_FLAG_JEOC));
 1595              		.loc 1 1304 5
 1596 0186 7B68     		ldr	r3, [r7, #4]
 1597 0188 1B68     		ldr	r3, [r3]
 1598 018a 6FF00C02 		mvn	r2, #12
 1599 018e 1A60     		str	r2, [r3]
 1600              	.L77:
1305:Drivers/STM32F4xx_HAL_Driver/Src/stm32f4xx_hal_adc.c ****   }
1306:Drivers/STM32F4xx_HAL_Driver/Src/stm32f4xx_hal_adc.c **** 
1307:Drivers/STM32F4xx_HAL_Driver/Src/stm32f4xx_hal_adc.c ****   tmp1 = tmp_sr & ADC_FLAG_AWD;
 1601              		.loc 1 1307 8
 1602 0190 FB68     		ldr	r3, [r7, #12]
 1603 0192 03F00103 		and	r3, r3, #1
ARM GAS  C:\Users\Halil\AppData\Local\Temp\cc7e4Lrl.s 			page 52


 1604 0196 7B61     		str	r3, [r7, #20]
1308:Drivers/STM32F4xx_HAL_Driver/Src/stm32f4xx_hal_adc.c ****   tmp2 = tmp_cr1 & ADC_IT_AWD;
 1605              		.loc 1 1308 8
 1606 0198 BB68     		ldr	r3, [r7, #8]
 1607 019a 03F04003 		and	r3, r3, #64
 1608 019e 3B61     		str	r3, [r7, #16]
1309:Drivers/STM32F4xx_HAL_Driver/Src/stm32f4xx_hal_adc.c ****   /* Check Analog watchdog flag */
1310:Drivers/STM32F4xx_HAL_Driver/Src/stm32f4xx_hal_adc.c ****   if (tmp1 && tmp2)
 1609              		.loc 1 1310 6
 1610 01a0 7B69     		ldr	r3, [r7, #20]
 1611 01a2 002B     		cmp	r3, #0
 1612 01a4 17D0     		beq	.L81
 1613              		.loc 1 1310 12 discriminator 1
 1614 01a6 3B69     		ldr	r3, [r7, #16]
 1615 01a8 002B     		cmp	r3, #0
 1616 01aa 14D0     		beq	.L81
1311:Drivers/STM32F4xx_HAL_Driver/Src/stm32f4xx_hal_adc.c ****   {
1312:Drivers/STM32F4xx_HAL_Driver/Src/stm32f4xx_hal_adc.c ****     if (__HAL_ADC_GET_FLAG(hadc, ADC_FLAG_AWD))
 1617              		.loc 1 1312 9
 1618 01ac 7B68     		ldr	r3, [r7, #4]
 1619 01ae 1B68     		ldr	r3, [r3]
 1620 01b0 1B68     		ldr	r3, [r3]
 1621 01b2 03F00103 		and	r3, r3, #1
 1622              		.loc 1 1312 8
 1623 01b6 012B     		cmp	r3, #1
 1624 01b8 0DD1     		bne	.L81
1313:Drivers/STM32F4xx_HAL_Driver/Src/stm32f4xx_hal_adc.c ****     {
1314:Drivers/STM32F4xx_HAL_Driver/Src/stm32f4xx_hal_adc.c ****       /* Set ADC state */
1315:Drivers/STM32F4xx_HAL_Driver/Src/stm32f4xx_hal_adc.c ****       SET_BIT(hadc->State, HAL_ADC_STATE_AWD1);
 1625              		.loc 1 1315 7
 1626 01ba 7B68     		ldr	r3, [r7, #4]
 1627 01bc 1B6C     		ldr	r3, [r3, #64]
 1628 01be 43F48032 		orr	r2, r3, #65536
 1629 01c2 7B68     		ldr	r3, [r7, #4]
 1630 01c4 1A64     		str	r2, [r3, #64]
1316:Drivers/STM32F4xx_HAL_Driver/Src/stm32f4xx_hal_adc.c **** 
1317:Drivers/STM32F4xx_HAL_Driver/Src/stm32f4xx_hal_adc.c ****       /* Level out of window callback */
1318:Drivers/STM32F4xx_HAL_Driver/Src/stm32f4xx_hal_adc.c **** #if (USE_HAL_ADC_REGISTER_CALLBACKS == 1)
1319:Drivers/STM32F4xx_HAL_Driver/Src/stm32f4xx_hal_adc.c ****       hadc->LevelOutOfWindowCallback(hadc);
1320:Drivers/STM32F4xx_HAL_Driver/Src/stm32f4xx_hal_adc.c **** #else
1321:Drivers/STM32F4xx_HAL_Driver/Src/stm32f4xx_hal_adc.c ****       HAL_ADC_LevelOutOfWindowCallback(hadc);
 1631              		.loc 1 1321 7
 1632 01c6 7868     		ldr	r0, [r7, #4]
 1633 01c8 FFF7FEFF 		bl	HAL_ADC_LevelOutOfWindowCallback
1322:Drivers/STM32F4xx_HAL_Driver/Src/stm32f4xx_hal_adc.c **** #endif /* USE_HAL_ADC_REGISTER_CALLBACKS */
1323:Drivers/STM32F4xx_HAL_Driver/Src/stm32f4xx_hal_adc.c **** 
1324:Drivers/STM32F4xx_HAL_Driver/Src/stm32f4xx_hal_adc.c ****       /* Clear the ADC analog watchdog flag */
1325:Drivers/STM32F4xx_HAL_Driver/Src/stm32f4xx_hal_adc.c ****       __HAL_ADC_CLEAR_FLAG(hadc, ADC_FLAG_AWD);
 1634              		.loc 1 1325 7
 1635 01cc 7B68     		ldr	r3, [r7, #4]
 1636 01ce 1B68     		ldr	r3, [r3]
 1637 01d0 6FF00102 		mvn	r2, #1
 1638 01d4 1A60     		str	r2, [r3]
 1639              	.L81:
1326:Drivers/STM32F4xx_HAL_Driver/Src/stm32f4xx_hal_adc.c ****     }
1327:Drivers/STM32F4xx_HAL_Driver/Src/stm32f4xx_hal_adc.c ****   }
1328:Drivers/STM32F4xx_HAL_Driver/Src/stm32f4xx_hal_adc.c **** 
ARM GAS  C:\Users\Halil\AppData\Local\Temp\cc7e4Lrl.s 			page 53


1329:Drivers/STM32F4xx_HAL_Driver/Src/stm32f4xx_hal_adc.c ****   tmp1 = tmp_sr & ADC_FLAG_OVR;
 1640              		.loc 1 1329 8
 1641 01d6 FB68     		ldr	r3, [r7, #12]
 1642 01d8 03F02003 		and	r3, r3, #32
 1643 01dc 7B61     		str	r3, [r7, #20]
1330:Drivers/STM32F4xx_HAL_Driver/Src/stm32f4xx_hal_adc.c ****   tmp2 = tmp_cr1 & ADC_IT_OVR;
 1644              		.loc 1 1330 8
 1645 01de BB68     		ldr	r3, [r7, #8]
 1646 01e0 03F08063 		and	r3, r3, #67108864
 1647 01e4 3B61     		str	r3, [r7, #16]
1331:Drivers/STM32F4xx_HAL_Driver/Src/stm32f4xx_hal_adc.c ****   /* Check Overrun flag */
1332:Drivers/STM32F4xx_HAL_Driver/Src/stm32f4xx_hal_adc.c ****   if (tmp1 && tmp2)
 1648              		.loc 1 1332 6
 1649 01e6 7B69     		ldr	r3, [r7, #20]
 1650 01e8 002B     		cmp	r3, #0
 1651 01ea 15D0     		beq	.L83
 1652              		.loc 1 1332 12 discriminator 1
 1653 01ec 3B69     		ldr	r3, [r7, #16]
 1654 01ee 002B     		cmp	r3, #0
 1655 01f0 12D0     		beq	.L83
1333:Drivers/STM32F4xx_HAL_Driver/Src/stm32f4xx_hal_adc.c ****   {
1334:Drivers/STM32F4xx_HAL_Driver/Src/stm32f4xx_hal_adc.c ****     /* Note: On STM32F4, ADC overrun can be set through other parameters    */
1335:Drivers/STM32F4xx_HAL_Driver/Src/stm32f4xx_hal_adc.c ****     /*       refer to description of parameter "EOCSelection" for more      */
1336:Drivers/STM32F4xx_HAL_Driver/Src/stm32f4xx_hal_adc.c ****     /*       details.                                                       */
1337:Drivers/STM32F4xx_HAL_Driver/Src/stm32f4xx_hal_adc.c **** 
1338:Drivers/STM32F4xx_HAL_Driver/Src/stm32f4xx_hal_adc.c ****     /* Set ADC error code to overrun */
1339:Drivers/STM32F4xx_HAL_Driver/Src/stm32f4xx_hal_adc.c ****     SET_BIT(hadc->ErrorCode, HAL_ADC_ERROR_OVR);
 1656              		.loc 1 1339 5
 1657 01f2 7B68     		ldr	r3, [r7, #4]
 1658 01f4 5B6C     		ldr	r3, [r3, #68]
 1659 01f6 43F00202 		orr	r2, r3, #2
 1660 01fa 7B68     		ldr	r3, [r7, #4]
 1661 01fc 5A64     		str	r2, [r3, #68]
1340:Drivers/STM32F4xx_HAL_Driver/Src/stm32f4xx_hal_adc.c **** 
1341:Drivers/STM32F4xx_HAL_Driver/Src/stm32f4xx_hal_adc.c ****     /* Clear ADC overrun flag */
1342:Drivers/STM32F4xx_HAL_Driver/Src/stm32f4xx_hal_adc.c ****     __HAL_ADC_CLEAR_FLAG(hadc, ADC_FLAG_OVR);
 1662              		.loc 1 1342 5
 1663 01fe 7B68     		ldr	r3, [r7, #4]
 1664 0200 1B68     		ldr	r3, [r3]
 1665 0202 6FF02002 		mvn	r2, #32
 1666 0206 1A60     		str	r2, [r3]
1343:Drivers/STM32F4xx_HAL_Driver/Src/stm32f4xx_hal_adc.c **** 
1344:Drivers/STM32F4xx_HAL_Driver/Src/stm32f4xx_hal_adc.c ****     /* Error callback */
1345:Drivers/STM32F4xx_HAL_Driver/Src/stm32f4xx_hal_adc.c **** #if (USE_HAL_ADC_REGISTER_CALLBACKS == 1)
1346:Drivers/STM32F4xx_HAL_Driver/Src/stm32f4xx_hal_adc.c ****     hadc->ErrorCallback(hadc);
1347:Drivers/STM32F4xx_HAL_Driver/Src/stm32f4xx_hal_adc.c **** #else
1348:Drivers/STM32F4xx_HAL_Driver/Src/stm32f4xx_hal_adc.c ****     HAL_ADC_ErrorCallback(hadc);
 1667              		.loc 1 1348 5
 1668 0208 7868     		ldr	r0, [r7, #4]
 1669 020a FFF7FEFF 		bl	HAL_ADC_ErrorCallback
1349:Drivers/STM32F4xx_HAL_Driver/Src/stm32f4xx_hal_adc.c **** #endif /* USE_HAL_ADC_REGISTER_CALLBACKS */
1350:Drivers/STM32F4xx_HAL_Driver/Src/stm32f4xx_hal_adc.c **** 
1351:Drivers/STM32F4xx_HAL_Driver/Src/stm32f4xx_hal_adc.c ****     /* Clear the Overrun flag */
1352:Drivers/STM32F4xx_HAL_Driver/Src/stm32f4xx_hal_adc.c ****     __HAL_ADC_CLEAR_FLAG(hadc, ADC_FLAG_OVR);
 1670              		.loc 1 1352 5
 1671 020e 7B68     		ldr	r3, [r7, #4]
 1672 0210 1B68     		ldr	r3, [r3]
ARM GAS  C:\Users\Halil\AppData\Local\Temp\cc7e4Lrl.s 			page 54


 1673 0212 6FF02002 		mvn	r2, #32
 1674 0216 1A60     		str	r2, [r3]
 1675              	.L83:
1353:Drivers/STM32F4xx_HAL_Driver/Src/stm32f4xx_hal_adc.c ****   }
1354:Drivers/STM32F4xx_HAL_Driver/Src/stm32f4xx_hal_adc.c **** }
 1676              		.loc 1 1354 1
 1677 0218 00BF     		nop
 1678 021a 1837     		adds	r7, r7, #24
 1679              		.cfi_def_cfa_offset 8
 1680 021c BD46     		mov	sp, r7
 1681              		.cfi_def_cfa_register 13
 1682              		@ sp needed
 1683 021e 80BD     		pop	{r7, pc}
 1684              		.cfi_endproc
 1685              	.LFE249:
 1687              		.section	.text.HAL_ADC_Start_DMA,"ax",%progbits
 1688              		.align	1
 1689              		.global	HAL_ADC_Start_DMA
 1690              		.syntax unified
 1691              		.thumb
 1692              		.thumb_func
 1694              	HAL_ADC_Start_DMA:
 1695              	.LFB250:
1355:Drivers/STM32F4xx_HAL_Driver/Src/stm32f4xx_hal_adc.c **** 
1356:Drivers/STM32F4xx_HAL_Driver/Src/stm32f4xx_hal_adc.c **** /**
1357:Drivers/STM32F4xx_HAL_Driver/Src/stm32f4xx_hal_adc.c ****   * @brief  Enables ADC DMA request after last transfer (Single-ADC mode) and enables ADC periphera
1358:Drivers/STM32F4xx_HAL_Driver/Src/stm32f4xx_hal_adc.c ****   * @param  hadc pointer to a ADC_HandleTypeDef structure that contains
1359:Drivers/STM32F4xx_HAL_Driver/Src/stm32f4xx_hal_adc.c ****   *         the configuration information for the specified ADC.
1360:Drivers/STM32F4xx_HAL_Driver/Src/stm32f4xx_hal_adc.c ****   * @param  pData The destination Buffer address.
1361:Drivers/STM32F4xx_HAL_Driver/Src/stm32f4xx_hal_adc.c ****   * @param  Length The length of data to be transferred from ADC peripheral to memory.
1362:Drivers/STM32F4xx_HAL_Driver/Src/stm32f4xx_hal_adc.c ****   * @retval HAL status
1363:Drivers/STM32F4xx_HAL_Driver/Src/stm32f4xx_hal_adc.c ****   */
1364:Drivers/STM32F4xx_HAL_Driver/Src/stm32f4xx_hal_adc.c **** HAL_StatusTypeDef HAL_ADC_Start_DMA(ADC_HandleTypeDef *hadc, uint32_t *pData, uint32_t Length)
1365:Drivers/STM32F4xx_HAL_Driver/Src/stm32f4xx_hal_adc.c **** {
 1696              		.loc 1 1365 1
 1697              		.cfi_startproc
 1698              		@ args = 0, pretend = 0, frame = 32
 1699              		@ frame_needed = 1, uses_anonymous_args = 0
 1700 0000 80B5     		push	{r7, lr}
 1701              		.cfi_def_cfa_offset 8
 1702              		.cfi_offset 7, -8
 1703              		.cfi_offset 14, -4
 1704 0002 88B0     		sub	sp, sp, #32
 1705              		.cfi_def_cfa_offset 40
 1706 0004 00AF     		add	r7, sp, #0
 1707              		.cfi_def_cfa_register 7
 1708 0006 F860     		str	r0, [r7, #12]
 1709 0008 B960     		str	r1, [r7, #8]
 1710 000a 7A60     		str	r2, [r7, #4]
1366:Drivers/STM32F4xx_HAL_Driver/Src/stm32f4xx_hal_adc.c ****   __IO uint32_t counter = 0U;
 1711              		.loc 1 1366 17
 1712 000c 0023     		movs	r3, #0
 1713 000e 7B61     		str	r3, [r7, #20]
1367:Drivers/STM32F4xx_HAL_Driver/Src/stm32f4xx_hal_adc.c ****   ADC_Common_TypeDef *tmpADC_Common;
1368:Drivers/STM32F4xx_HAL_Driver/Src/stm32f4xx_hal_adc.c ****   HAL_StatusTypeDef tmp_hal_status = HAL_OK;
 1714              		.loc 1 1368 21
 1715 0010 0023     		movs	r3, #0
ARM GAS  C:\Users\Halil\AppData\Local\Temp\cc7e4Lrl.s 			page 55


 1716 0012 FB77     		strb	r3, [r7, #31]
1369:Drivers/STM32F4xx_HAL_Driver/Src/stm32f4xx_hal_adc.c ****   /* Check the parameters */
1370:Drivers/STM32F4xx_HAL_Driver/Src/stm32f4xx_hal_adc.c ****   assert_param(IS_FUNCTIONAL_STATE(hadc->Init.ContinuousConvMode));
1371:Drivers/STM32F4xx_HAL_Driver/Src/stm32f4xx_hal_adc.c ****   assert_param(IS_ADC_EXT_TRIG_EDGE(hadc->Init.ExternalTrigConvEdge));
1372:Drivers/STM32F4xx_HAL_Driver/Src/stm32f4xx_hal_adc.c **** 
1373:Drivers/STM32F4xx_HAL_Driver/Src/stm32f4xx_hal_adc.c ****   /* Process locked */
1374:Drivers/STM32F4xx_HAL_Driver/Src/stm32f4xx_hal_adc.c ****   __HAL_LOCK(hadc);
 1717              		.loc 1 1374 3
 1718 0014 FB68     		ldr	r3, [r7, #12]
 1719 0016 93F83C30 		ldrb	r3, [r3, #60]	@ zero_extendqisi2
 1720 001a 012B     		cmp	r3, #1
 1721 001c 01D1     		bne	.L85
 1722              		.loc 1 1374 3 is_stmt 0 discriminator 1
 1723 001e 0223     		movs	r3, #2
 1724 0020 EBE0     		b	.L86
 1725              	.L85:
 1726              		.loc 1 1374 3 discriminator 2
 1727 0022 FB68     		ldr	r3, [r7, #12]
 1728 0024 0122     		movs	r2, #1
 1729 0026 83F83C20 		strb	r2, [r3, #60]
1375:Drivers/STM32F4xx_HAL_Driver/Src/stm32f4xx_hal_adc.c **** 
1376:Drivers/STM32F4xx_HAL_Driver/Src/stm32f4xx_hal_adc.c ****   /* Enable the ADC peripheral */
1377:Drivers/STM32F4xx_HAL_Driver/Src/stm32f4xx_hal_adc.c ****   /* Check if ADC peripheral is disabled in order to enable it and wait during
1378:Drivers/STM32F4xx_HAL_Driver/Src/stm32f4xx_hal_adc.c ****   Tstab time the ADC's stabilization */
1379:Drivers/STM32F4xx_HAL_Driver/Src/stm32f4xx_hal_adc.c ****   if ((hadc->Instance->CR2 & ADC_CR2_ADON) != ADC_CR2_ADON)
 1730              		.loc 1 1379 12 is_stmt 1 discriminator 2
 1731 002a FB68     		ldr	r3, [r7, #12]
 1732 002c 1B68     		ldr	r3, [r3]
 1733              		.loc 1 1379 22 discriminator 2
 1734 002e 9B68     		ldr	r3, [r3, #8]
 1735              		.loc 1 1379 28 discriminator 2
 1736 0030 03F00103 		and	r3, r3, #1
 1737              		.loc 1 1379 6 discriminator 2
 1738 0034 012B     		cmp	r3, #1
 1739 0036 18D0     		beq	.L87
1380:Drivers/STM32F4xx_HAL_Driver/Src/stm32f4xx_hal_adc.c ****   {
1381:Drivers/STM32F4xx_HAL_Driver/Src/stm32f4xx_hal_adc.c ****     /* Enable the Peripheral */
1382:Drivers/STM32F4xx_HAL_Driver/Src/stm32f4xx_hal_adc.c ****     __HAL_ADC_ENABLE(hadc);
 1740              		.loc 1 1382 5
 1741 0038 FB68     		ldr	r3, [r7, #12]
 1742 003a 1B68     		ldr	r3, [r3]
 1743 003c 9A68     		ldr	r2, [r3, #8]
 1744 003e FB68     		ldr	r3, [r7, #12]
 1745 0040 1B68     		ldr	r3, [r3]
 1746 0042 42F00102 		orr	r2, r2, #1
 1747 0046 9A60     		str	r2, [r3, #8]
1383:Drivers/STM32F4xx_HAL_Driver/Src/stm32f4xx_hal_adc.c **** 
1384:Drivers/STM32F4xx_HAL_Driver/Src/stm32f4xx_hal_adc.c ****     /* Delay for ADC stabilization time */
1385:Drivers/STM32F4xx_HAL_Driver/Src/stm32f4xx_hal_adc.c ****     /* Compute number of CPU cycles to wait for */
1386:Drivers/STM32F4xx_HAL_Driver/Src/stm32f4xx_hal_adc.c ****     counter = (ADC_STAB_DELAY_US * (SystemCoreClock / 1000000U));
 1748              		.loc 1 1386 53
 1749 0048 6E4B     		ldr	r3, .L99
 1750 004a 1B68     		ldr	r3, [r3]
 1751 004c 6E4A     		ldr	r2, .L99+4
 1752 004e A2FB0323 		umull	r2, r3, r2, r3
 1753 0052 9A0C     		lsrs	r2, r3, #18
 1754              		.loc 1 1386 34
ARM GAS  C:\Users\Halil\AppData\Local\Temp\cc7e4Lrl.s 			page 56


 1755 0054 1346     		mov	r3, r2
 1756 0056 5B00     		lsls	r3, r3, #1
 1757 0058 1344     		add	r3, r3, r2
 1758              		.loc 1 1386 13
 1759 005a 7B61     		str	r3, [r7, #20]
1387:Drivers/STM32F4xx_HAL_Driver/Src/stm32f4xx_hal_adc.c ****     while (counter != 0U)
 1760              		.loc 1 1387 11
 1761 005c 02E0     		b	.L88
 1762              	.L89:
1388:Drivers/STM32F4xx_HAL_Driver/Src/stm32f4xx_hal_adc.c ****     {
1389:Drivers/STM32F4xx_HAL_Driver/Src/stm32f4xx_hal_adc.c ****       counter--;
 1763              		.loc 1 1389 14
 1764 005e 7B69     		ldr	r3, [r7, #20]
 1765 0060 013B     		subs	r3, r3, #1
 1766 0062 7B61     		str	r3, [r7, #20]
 1767              	.L88:
1387:Drivers/STM32F4xx_HAL_Driver/Src/stm32f4xx_hal_adc.c ****     while (counter != 0U)
 1768              		.loc 1 1387 20
 1769 0064 7B69     		ldr	r3, [r7, #20]
 1770 0066 002B     		cmp	r3, #0
 1771 0068 F9D1     		bne	.L89
 1772              	.L87:
1390:Drivers/STM32F4xx_HAL_Driver/Src/stm32f4xx_hal_adc.c ****     }
1391:Drivers/STM32F4xx_HAL_Driver/Src/stm32f4xx_hal_adc.c ****   }
1392:Drivers/STM32F4xx_HAL_Driver/Src/stm32f4xx_hal_adc.c **** 
1393:Drivers/STM32F4xx_HAL_Driver/Src/stm32f4xx_hal_adc.c ****   /* Check ADC DMA Mode                                                     */
1394:Drivers/STM32F4xx_HAL_Driver/Src/stm32f4xx_hal_adc.c ****   /* - disable the DMA Mode if it is already enabled                        */
1395:Drivers/STM32F4xx_HAL_Driver/Src/stm32f4xx_hal_adc.c ****   if ((hadc->Instance->CR2 & ADC_CR2_DMA) == ADC_CR2_DMA)
 1773              		.loc 1 1395 12
 1774 006a FB68     		ldr	r3, [r7, #12]
 1775 006c 1B68     		ldr	r3, [r3]
 1776              		.loc 1 1395 22
 1777 006e 9B68     		ldr	r3, [r3, #8]
 1778              		.loc 1 1395 28
 1779 0070 03F48073 		and	r3, r3, #256
 1780              		.loc 1 1395 6
 1781 0074 B3F5807F 		cmp	r3, #256
 1782 0078 07D1     		bne	.L90
1396:Drivers/STM32F4xx_HAL_Driver/Src/stm32f4xx_hal_adc.c ****   {
1397:Drivers/STM32F4xx_HAL_Driver/Src/stm32f4xx_hal_adc.c ****     CLEAR_BIT(hadc->Instance->CR2, ADC_CR2_DMA);
 1783              		.loc 1 1397 5
 1784 007a FB68     		ldr	r3, [r7, #12]
 1785 007c 1B68     		ldr	r3, [r3]
 1786 007e 9A68     		ldr	r2, [r3, #8]
 1787 0080 FB68     		ldr	r3, [r7, #12]
 1788 0082 1B68     		ldr	r3, [r3]
 1789 0084 22F48072 		bic	r2, r2, #256
 1790 0088 9A60     		str	r2, [r3, #8]
 1791              	.L90:
1398:Drivers/STM32F4xx_HAL_Driver/Src/stm32f4xx_hal_adc.c ****   }
1399:Drivers/STM32F4xx_HAL_Driver/Src/stm32f4xx_hal_adc.c **** 
1400:Drivers/STM32F4xx_HAL_Driver/Src/stm32f4xx_hal_adc.c ****   /* Start conversion if ADC is effectively enabled */
1401:Drivers/STM32F4xx_HAL_Driver/Src/stm32f4xx_hal_adc.c ****   if (HAL_IS_BIT_SET(hadc->Instance->CR2, ADC_CR2_ADON))
 1792              		.loc 1 1401 7
 1793 008a FB68     		ldr	r3, [r7, #12]
 1794 008c 1B68     		ldr	r3, [r3]
 1795 008e 9B68     		ldr	r3, [r3, #8]
ARM GAS  C:\Users\Halil\AppData\Local\Temp\cc7e4Lrl.s 			page 57


 1796 0090 03F00103 		and	r3, r3, #1
 1797              		.loc 1 1401 6
 1798 0094 012B     		cmp	r3, #1
 1799 0096 40F0A380 		bne	.L91
1402:Drivers/STM32F4xx_HAL_Driver/Src/stm32f4xx_hal_adc.c ****   {
1403:Drivers/STM32F4xx_HAL_Driver/Src/stm32f4xx_hal_adc.c ****     /* Set ADC state                                                          */
1404:Drivers/STM32F4xx_HAL_Driver/Src/stm32f4xx_hal_adc.c ****     /* - Clear state bitfield related to regular group conversion results     */
1405:Drivers/STM32F4xx_HAL_Driver/Src/stm32f4xx_hal_adc.c ****     /* - Set state bitfield related to regular group operation                */
1406:Drivers/STM32F4xx_HAL_Driver/Src/stm32f4xx_hal_adc.c ****     ADC_STATE_CLR_SET(hadc->State,
 1800              		.loc 1 1406 5
 1801 009a FB68     		ldr	r3, [r7, #12]
 1802 009c 1B6C     		ldr	r3, [r3, #64]
 1803 009e 23F4E063 		bic	r3, r3, #1792
 1804 00a2 23F00103 		bic	r3, r3, #1
 1805 00a6 43F48072 		orr	r2, r3, #256
 1806 00aa FB68     		ldr	r3, [r7, #12]
 1807 00ac 1A64     		str	r2, [r3, #64]
1407:Drivers/STM32F4xx_HAL_Driver/Src/stm32f4xx_hal_adc.c ****                       HAL_ADC_STATE_READY | HAL_ADC_STATE_REG_EOC | HAL_ADC_STATE_REG_OVR,
1408:Drivers/STM32F4xx_HAL_Driver/Src/stm32f4xx_hal_adc.c ****                       HAL_ADC_STATE_REG_BUSY);
1409:Drivers/STM32F4xx_HAL_Driver/Src/stm32f4xx_hal_adc.c **** 
1410:Drivers/STM32F4xx_HAL_Driver/Src/stm32f4xx_hal_adc.c ****     /* If conversions on group regular are also triggering group injected,    */
1411:Drivers/STM32F4xx_HAL_Driver/Src/stm32f4xx_hal_adc.c ****     /* update ADC state.                                                      */
1412:Drivers/STM32F4xx_HAL_Driver/Src/stm32f4xx_hal_adc.c ****     if (READ_BIT(hadc->Instance->CR1, ADC_CR1_JAUTO) != RESET)
 1808              		.loc 1 1412 9
 1809 00ae FB68     		ldr	r3, [r7, #12]
 1810 00b0 1B68     		ldr	r3, [r3]
 1811 00b2 5B68     		ldr	r3, [r3, #4]
 1812 00b4 03F48063 		and	r3, r3, #1024
 1813              		.loc 1 1412 8
 1814 00b8 002B     		cmp	r3, #0
 1815 00ba 07D0     		beq	.L92
1413:Drivers/STM32F4xx_HAL_Driver/Src/stm32f4xx_hal_adc.c ****     {
1414:Drivers/STM32F4xx_HAL_Driver/Src/stm32f4xx_hal_adc.c ****       ADC_STATE_CLR_SET(hadc->State, HAL_ADC_STATE_INJ_EOC, HAL_ADC_STATE_INJ_BUSY);
 1816              		.loc 1 1414 7
 1817 00bc FB68     		ldr	r3, [r7, #12]
 1818 00be 1B6C     		ldr	r3, [r3, #64]
 1819 00c0 23F44053 		bic	r3, r3, #12288
 1820 00c4 43F48052 		orr	r2, r3, #4096
 1821 00c8 FB68     		ldr	r3, [r7, #12]
 1822 00ca 1A64     		str	r2, [r3, #64]
 1823              	.L92:
1415:Drivers/STM32F4xx_HAL_Driver/Src/stm32f4xx_hal_adc.c ****     }
1416:Drivers/STM32F4xx_HAL_Driver/Src/stm32f4xx_hal_adc.c **** 
1417:Drivers/STM32F4xx_HAL_Driver/Src/stm32f4xx_hal_adc.c ****     /* State machine update: Check if an injected conversion is ongoing */
1418:Drivers/STM32F4xx_HAL_Driver/Src/stm32f4xx_hal_adc.c ****     if (HAL_IS_BIT_SET(hadc->State, HAL_ADC_STATE_INJ_BUSY))
 1824              		.loc 1 1418 9
 1825 00cc FB68     		ldr	r3, [r7, #12]
 1826 00ce 1B6C     		ldr	r3, [r3, #64]
 1827 00d0 03F48053 		and	r3, r3, #4096
 1828              		.loc 1 1418 8
 1829 00d4 B3F5805F 		cmp	r3, #4096
 1830 00d8 06D1     		bne	.L93
1419:Drivers/STM32F4xx_HAL_Driver/Src/stm32f4xx_hal_adc.c ****     {
1420:Drivers/STM32F4xx_HAL_Driver/Src/stm32f4xx_hal_adc.c ****       /* Reset ADC error code fields related to conversions on group regular */
1421:Drivers/STM32F4xx_HAL_Driver/Src/stm32f4xx_hal_adc.c ****       CLEAR_BIT(hadc->ErrorCode, (HAL_ADC_ERROR_OVR | HAL_ADC_ERROR_DMA));
 1831              		.loc 1 1421 7
 1832 00da FB68     		ldr	r3, [r7, #12]
ARM GAS  C:\Users\Halil\AppData\Local\Temp\cc7e4Lrl.s 			page 58


 1833 00dc 5B6C     		ldr	r3, [r3, #68]
 1834 00de 23F00602 		bic	r2, r3, #6
 1835 00e2 FB68     		ldr	r3, [r7, #12]
 1836 00e4 5A64     		str	r2, [r3, #68]
 1837 00e6 02E0     		b	.L94
 1838              	.L93:
1422:Drivers/STM32F4xx_HAL_Driver/Src/stm32f4xx_hal_adc.c ****     }
1423:Drivers/STM32F4xx_HAL_Driver/Src/stm32f4xx_hal_adc.c ****     else
1424:Drivers/STM32F4xx_HAL_Driver/Src/stm32f4xx_hal_adc.c ****     {
1425:Drivers/STM32F4xx_HAL_Driver/Src/stm32f4xx_hal_adc.c ****       /* Reset ADC all error code fields */
1426:Drivers/STM32F4xx_HAL_Driver/Src/stm32f4xx_hal_adc.c ****       ADC_CLEAR_ERRORCODE(hadc);
 1839              		.loc 1 1426 7
 1840 00e8 FB68     		ldr	r3, [r7, #12]
 1841 00ea 0022     		movs	r2, #0
 1842 00ec 5A64     		str	r2, [r3, #68]
 1843              	.L94:
1427:Drivers/STM32F4xx_HAL_Driver/Src/stm32f4xx_hal_adc.c ****     }
1428:Drivers/STM32F4xx_HAL_Driver/Src/stm32f4xx_hal_adc.c **** 
1429:Drivers/STM32F4xx_HAL_Driver/Src/stm32f4xx_hal_adc.c ****     /* Process unlocked */
1430:Drivers/STM32F4xx_HAL_Driver/Src/stm32f4xx_hal_adc.c ****     /* Unlock before starting ADC conversions: in case of potential           */
1431:Drivers/STM32F4xx_HAL_Driver/Src/stm32f4xx_hal_adc.c ****     /* interruption, to let the process to ADC IRQ Handler.                   */
1432:Drivers/STM32F4xx_HAL_Driver/Src/stm32f4xx_hal_adc.c ****     __HAL_UNLOCK(hadc);
 1844              		.loc 1 1432 5
 1845 00ee FB68     		ldr	r3, [r7, #12]
 1846 00f0 0022     		movs	r2, #0
 1847 00f2 83F83C20 		strb	r2, [r3, #60]
1433:Drivers/STM32F4xx_HAL_Driver/Src/stm32f4xx_hal_adc.c **** 
1434:Drivers/STM32F4xx_HAL_Driver/Src/stm32f4xx_hal_adc.c ****     /* Pointer to the common control register to which is belonging hadc    */
1435:Drivers/STM32F4xx_HAL_Driver/Src/stm32f4xx_hal_adc.c ****     /* (Depending on STM32F4 product, there may be up to 3 ADCs and 1 common */
1436:Drivers/STM32F4xx_HAL_Driver/Src/stm32f4xx_hal_adc.c ****     /* control register)                                                    */
1437:Drivers/STM32F4xx_HAL_Driver/Src/stm32f4xx_hal_adc.c ****     tmpADC_Common = ADC_COMMON_REGISTER(hadc);
 1848              		.loc 1 1437 19
 1849 00f6 454B     		ldr	r3, .L99+8
 1850 00f8 BB61     		str	r3, [r7, #24]
1438:Drivers/STM32F4xx_HAL_Driver/Src/stm32f4xx_hal_adc.c **** 
1439:Drivers/STM32F4xx_HAL_Driver/Src/stm32f4xx_hal_adc.c ****     /* Set the DMA transfer complete callback */
1440:Drivers/STM32F4xx_HAL_Driver/Src/stm32f4xx_hal_adc.c ****     hadc->DMA_Handle->XferCpltCallback = ADC_DMAConvCplt;
 1851              		.loc 1 1440 9
 1852 00fa FB68     		ldr	r3, [r7, #12]
 1853 00fc 9B6B     		ldr	r3, [r3, #56]
 1854              		.loc 1 1440 40
 1855 00fe 444A     		ldr	r2, .L99+12
 1856 0100 DA63     		str	r2, [r3, #60]
1441:Drivers/STM32F4xx_HAL_Driver/Src/stm32f4xx_hal_adc.c **** 
1442:Drivers/STM32F4xx_HAL_Driver/Src/stm32f4xx_hal_adc.c ****     /* Set the DMA half transfer complete callback */
1443:Drivers/STM32F4xx_HAL_Driver/Src/stm32f4xx_hal_adc.c ****     hadc->DMA_Handle->XferHalfCpltCallback = ADC_DMAHalfConvCplt;
 1857              		.loc 1 1443 9
 1858 0102 FB68     		ldr	r3, [r7, #12]
 1859 0104 9B6B     		ldr	r3, [r3, #56]
 1860              		.loc 1 1443 44
 1861 0106 434A     		ldr	r2, .L99+16
 1862 0108 1A64     		str	r2, [r3, #64]
1444:Drivers/STM32F4xx_HAL_Driver/Src/stm32f4xx_hal_adc.c **** 
1445:Drivers/STM32F4xx_HAL_Driver/Src/stm32f4xx_hal_adc.c ****     /* Set the DMA error callback */
1446:Drivers/STM32F4xx_HAL_Driver/Src/stm32f4xx_hal_adc.c ****     hadc->DMA_Handle->XferErrorCallback = ADC_DMAError;
 1863              		.loc 1 1446 9
 1864 010a FB68     		ldr	r3, [r7, #12]
ARM GAS  C:\Users\Halil\AppData\Local\Temp\cc7e4Lrl.s 			page 59


 1865 010c 9B6B     		ldr	r3, [r3, #56]
 1866              		.loc 1 1446 41
 1867 010e 424A     		ldr	r2, .L99+20
 1868 0110 DA64     		str	r2, [r3, #76]
1447:Drivers/STM32F4xx_HAL_Driver/Src/stm32f4xx_hal_adc.c **** 
1448:Drivers/STM32F4xx_HAL_Driver/Src/stm32f4xx_hal_adc.c **** 
1449:Drivers/STM32F4xx_HAL_Driver/Src/stm32f4xx_hal_adc.c ****     /* Manage ADC and DMA start: ADC overrun interruption, DMA start, ADC     */
1450:Drivers/STM32F4xx_HAL_Driver/Src/stm32f4xx_hal_adc.c ****     /* start (in case of SW start):                                           */
1451:Drivers/STM32F4xx_HAL_Driver/Src/stm32f4xx_hal_adc.c **** 
1452:Drivers/STM32F4xx_HAL_Driver/Src/stm32f4xx_hal_adc.c ****     /* Clear regular group conversion flag and overrun flag */
1453:Drivers/STM32F4xx_HAL_Driver/Src/stm32f4xx_hal_adc.c ****     /* (To ensure of no unknown state from potential previous ADC operations) */
1454:Drivers/STM32F4xx_HAL_Driver/Src/stm32f4xx_hal_adc.c ****     __HAL_ADC_CLEAR_FLAG(hadc, ADC_FLAG_EOC | ADC_FLAG_OVR);
 1869              		.loc 1 1454 5
 1870 0112 FB68     		ldr	r3, [r7, #12]
 1871 0114 1B68     		ldr	r3, [r3]
 1872 0116 6FF02202 		mvn	r2, #34
 1873 011a 1A60     		str	r2, [r3]
1455:Drivers/STM32F4xx_HAL_Driver/Src/stm32f4xx_hal_adc.c **** 
1456:Drivers/STM32F4xx_HAL_Driver/Src/stm32f4xx_hal_adc.c ****     /* Enable ADC overrun interrupt */
1457:Drivers/STM32F4xx_HAL_Driver/Src/stm32f4xx_hal_adc.c ****     __HAL_ADC_ENABLE_IT(hadc, ADC_IT_OVR);
 1874              		.loc 1 1457 5
 1875 011c FB68     		ldr	r3, [r7, #12]
 1876 011e 1B68     		ldr	r3, [r3]
 1877 0120 5A68     		ldr	r2, [r3, #4]
 1878 0122 FB68     		ldr	r3, [r7, #12]
 1879 0124 1B68     		ldr	r3, [r3]
 1880 0126 42F08062 		orr	r2, r2, #67108864
 1881 012a 5A60     		str	r2, [r3, #4]
1458:Drivers/STM32F4xx_HAL_Driver/Src/stm32f4xx_hal_adc.c **** 
1459:Drivers/STM32F4xx_HAL_Driver/Src/stm32f4xx_hal_adc.c ****     /* Enable ADC DMA mode */
1460:Drivers/STM32F4xx_HAL_Driver/Src/stm32f4xx_hal_adc.c ****     hadc->Instance->CR2 |= ADC_CR2_DMA;
 1882              		.loc 1 1460 9
 1883 012c FB68     		ldr	r3, [r7, #12]
 1884 012e 1B68     		ldr	r3, [r3]
 1885              		.loc 1 1460 19
 1886 0130 9A68     		ldr	r2, [r3, #8]
 1887              		.loc 1 1460 9
 1888 0132 FB68     		ldr	r3, [r7, #12]
 1889 0134 1B68     		ldr	r3, [r3]
 1890              		.loc 1 1460 25
 1891 0136 42F48072 		orr	r2, r2, #256
 1892 013a 9A60     		str	r2, [r3, #8]
1461:Drivers/STM32F4xx_HAL_Driver/Src/stm32f4xx_hal_adc.c **** 
1462:Drivers/STM32F4xx_HAL_Driver/Src/stm32f4xx_hal_adc.c ****     /* Start the DMA channel */
1463:Drivers/STM32F4xx_HAL_Driver/Src/stm32f4xx_hal_adc.c ****     tmp_hal_status = HAL_DMA_Start_IT(hadc->DMA_Handle, (uint32_t)&hadc->Instance->DR, (uint32_t)pD
 1893              		.loc 1 1463 22
 1894 013c FB68     		ldr	r3, [r7, #12]
 1895 013e 986B     		ldr	r0, [r3, #56]
 1896              		.loc 1 1463 72
 1897 0140 FB68     		ldr	r3, [r7, #12]
 1898 0142 1B68     		ldr	r3, [r3]
 1899              		.loc 1 1463 67
 1900 0144 4C33     		adds	r3, r3, #76
 1901              		.loc 1 1463 22
 1902 0146 1946     		mov	r1, r3
 1903 0148 BA68     		ldr	r2, [r7, #8]
 1904 014a 7B68     		ldr	r3, [r7, #4]
ARM GAS  C:\Users\Halil\AppData\Local\Temp\cc7e4Lrl.s 			page 60


 1905 014c FFF7FEFF 		bl	HAL_DMA_Start_IT
 1906 0150 0346     		mov	r3, r0
 1907 0152 FB77     		strb	r3, [r7, #31]
1464:Drivers/STM32F4xx_HAL_Driver/Src/stm32f4xx_hal_adc.c **** 
1465:Drivers/STM32F4xx_HAL_Driver/Src/stm32f4xx_hal_adc.c ****     /* Check if Multimode enabled */
1466:Drivers/STM32F4xx_HAL_Driver/Src/stm32f4xx_hal_adc.c ****     if (HAL_IS_BIT_CLR(tmpADC_Common->CCR, ADC_CCR_MULTI))
 1908              		.loc 1 1466 9
 1909 0154 BB69     		ldr	r3, [r7, #24]
 1910 0156 5B68     		ldr	r3, [r3, #4]
 1911 0158 03F01F03 		and	r3, r3, #31
 1912              		.loc 1 1466 8
 1913 015c 002B     		cmp	r3, #0
 1914 015e 2AD1     		bne	.L95
1467:Drivers/STM32F4xx_HAL_Driver/Src/stm32f4xx_hal_adc.c ****     {
1468:Drivers/STM32F4xx_HAL_Driver/Src/stm32f4xx_hal_adc.c **** #if defined(ADC2) && defined(ADC3)
1469:Drivers/STM32F4xx_HAL_Driver/Src/stm32f4xx_hal_adc.c ****       if ((hadc->Instance == ADC1) || ((hadc->Instance == ADC2) && ((ADC->CCR & ADC_CCR_MULTI_Msk) 
 1915              		.loc 1 1469 16
 1916 0160 FB68     		ldr	r3, [r7, #12]
 1917 0162 1B68     		ldr	r3, [r3]
 1918              		.loc 1 1469 10
 1919 0164 2D4A     		ldr	r2, .L99+24
 1920 0166 9342     		cmp	r3, r2
 1921 0168 15D0     		beq	.L96
 1922              		.loc 1 1469 45 discriminator 1
 1923 016a FB68     		ldr	r3, [r7, #12]
 1924 016c 1B68     		ldr	r3, [r3]
 1925              		.loc 1 1469 36 discriminator 1
 1926 016e 2C4A     		ldr	r2, .L99+28
 1927 0170 9342     		cmp	r3, r2
 1928 0172 05D1     		bne	.L97
 1929              		.loc 1 1469 73 discriminator 2
 1930 0174 254B     		ldr	r3, .L99+8
 1931 0176 5B68     		ldr	r3, [r3, #4]
 1932              		.loc 1 1469 79 discriminator 2
 1933 0178 03F01F03 		and	r3, r3, #31
 1934              		.loc 1 1469 65 discriminator 2
 1935 017c 002B     		cmp	r3, #0
 1936 017e 0AD0     		beq	.L96
 1937              	.L97:
1470:Drivers/STM32F4xx_HAL_Driver/Src/stm32f4xx_hal_adc.c ****           || ((hadc->Instance == ADC3) && ((ADC->CCR & ADC_CCR_MULTI_Msk) < ADC_CCR_MULTI_4)))
 1938              		.loc 1 1470 20
 1939 0180 FB68     		ldr	r3, [r7, #12]
 1940 0182 1B68     		ldr	r3, [r3]
 1941              		.loc 1 1470 11
 1942 0184 274A     		ldr	r2, .L99+32
 1943 0186 9342     		cmp	r3, r2
 1944 0188 36D1     		bne	.L98
 1945              		.loc 1 1470 48 discriminator 1
 1946 018a 204B     		ldr	r3, .L99+8
 1947 018c 5B68     		ldr	r3, [r3, #4]
 1948              		.loc 1 1470 75 discriminator 1
 1949 018e 03F01003 		and	r3, r3, #16
 1950              		.loc 1 1470 40 discriminator 1
 1951 0192 002B     		cmp	r3, #0
 1952 0194 30D1     		bne	.L98
 1953              	.L96:
1471:Drivers/STM32F4xx_HAL_Driver/Src/stm32f4xx_hal_adc.c ****       {
ARM GAS  C:\Users\Halil\AppData\Local\Temp\cc7e4Lrl.s 			page 61


1472:Drivers/STM32F4xx_HAL_Driver/Src/stm32f4xx_hal_adc.c **** #endif /* ADC2 || ADC3 */
1473:Drivers/STM32F4xx_HAL_Driver/Src/stm32f4xx_hal_adc.c ****         /* if no external trigger present enable software conversion of regular channels */
1474:Drivers/STM32F4xx_HAL_Driver/Src/stm32f4xx_hal_adc.c ****         if ((hadc->Instance->CR2 & ADC_CR2_EXTEN) == RESET)
 1954              		.loc 1 1474 18
 1955 0196 FB68     		ldr	r3, [r7, #12]
 1956 0198 1B68     		ldr	r3, [r3]
 1957              		.loc 1 1474 28
 1958 019a 9B68     		ldr	r3, [r3, #8]
 1959              		.loc 1 1474 34
 1960 019c 03F04053 		and	r3, r3, #805306368
 1961              		.loc 1 1474 12
 1962 01a0 002B     		cmp	r3, #0
 1963 01a2 29D1     		bne	.L98
1475:Drivers/STM32F4xx_HAL_Driver/Src/stm32f4xx_hal_adc.c ****         {
1476:Drivers/STM32F4xx_HAL_Driver/Src/stm32f4xx_hal_adc.c ****           /* Enable the selected ADC software conversion for regular group */
1477:Drivers/STM32F4xx_HAL_Driver/Src/stm32f4xx_hal_adc.c ****           hadc->Instance->CR2 |= (uint32_t)ADC_CR2_SWSTART;
 1964              		.loc 1 1477 15
 1965 01a4 FB68     		ldr	r3, [r7, #12]
 1966 01a6 1B68     		ldr	r3, [r3]
 1967              		.loc 1 1477 25
 1968 01a8 9A68     		ldr	r2, [r3, #8]
 1969              		.loc 1 1477 15
 1970 01aa FB68     		ldr	r3, [r7, #12]
 1971 01ac 1B68     		ldr	r3, [r3]
 1972              		.loc 1 1477 31
 1973 01ae 42F08042 		orr	r2, r2, #1073741824
 1974 01b2 9A60     		str	r2, [r3, #8]
 1975 01b4 20E0     		b	.L98
 1976              	.L95:
1478:Drivers/STM32F4xx_HAL_Driver/Src/stm32f4xx_hal_adc.c ****         }
1479:Drivers/STM32F4xx_HAL_Driver/Src/stm32f4xx_hal_adc.c **** #if defined(ADC2) && defined(ADC3)
1480:Drivers/STM32F4xx_HAL_Driver/Src/stm32f4xx_hal_adc.c ****       }
1481:Drivers/STM32F4xx_HAL_Driver/Src/stm32f4xx_hal_adc.c **** #endif /* ADC2 || ADC3 */
1482:Drivers/STM32F4xx_HAL_Driver/Src/stm32f4xx_hal_adc.c ****     }
1483:Drivers/STM32F4xx_HAL_Driver/Src/stm32f4xx_hal_adc.c ****     else
1484:Drivers/STM32F4xx_HAL_Driver/Src/stm32f4xx_hal_adc.c ****     {
1485:Drivers/STM32F4xx_HAL_Driver/Src/stm32f4xx_hal_adc.c ****       /* if instance of handle correspond to ADC1 and  no external trigger present enable software 
1486:Drivers/STM32F4xx_HAL_Driver/Src/stm32f4xx_hal_adc.c ****       if ((hadc->Instance == ADC1) && ((hadc->Instance->CR2 & ADC_CR2_EXTEN) == RESET))
 1977              		.loc 1 1486 16
 1978 01b6 FB68     		ldr	r3, [r7, #12]
 1979 01b8 1B68     		ldr	r3, [r3]
 1980              		.loc 1 1486 10
 1981 01ba 184A     		ldr	r2, .L99+24
 1982 01bc 9342     		cmp	r3, r2
 1983 01be 1BD1     		bne	.L98
 1984              		.loc 1 1486 45 discriminator 1
 1985 01c0 FB68     		ldr	r3, [r7, #12]
 1986 01c2 1B68     		ldr	r3, [r3]
 1987              		.loc 1 1486 55 discriminator 1
 1988 01c4 9B68     		ldr	r3, [r3, #8]
 1989              		.loc 1 1486 61 discriminator 1
 1990 01c6 03F04053 		and	r3, r3, #805306368
 1991              		.loc 1 1486 36 discriminator 1
 1992 01ca 002B     		cmp	r3, #0
 1993 01cc 14D1     		bne	.L98
1487:Drivers/STM32F4xx_HAL_Driver/Src/stm32f4xx_hal_adc.c ****       {
1488:Drivers/STM32F4xx_HAL_Driver/Src/stm32f4xx_hal_adc.c ****         /* Enable the selected ADC software conversion for regular group */
ARM GAS  C:\Users\Halil\AppData\Local\Temp\cc7e4Lrl.s 			page 62


1489:Drivers/STM32F4xx_HAL_Driver/Src/stm32f4xx_hal_adc.c ****         hadc->Instance->CR2 |= (uint32_t)ADC_CR2_SWSTART;
 1994              		.loc 1 1489 13
 1995 01ce FB68     		ldr	r3, [r7, #12]
 1996 01d0 1B68     		ldr	r3, [r3]
 1997              		.loc 1 1489 23
 1998 01d2 9A68     		ldr	r2, [r3, #8]
 1999              		.loc 1 1489 13
 2000 01d4 FB68     		ldr	r3, [r7, #12]
 2001 01d6 1B68     		ldr	r3, [r3]
 2002              		.loc 1 1489 29
 2003 01d8 42F08042 		orr	r2, r2, #1073741824
 2004 01dc 9A60     		str	r2, [r3, #8]
 2005 01de 0BE0     		b	.L98
 2006              	.L91:
1490:Drivers/STM32F4xx_HAL_Driver/Src/stm32f4xx_hal_adc.c ****       }
1491:Drivers/STM32F4xx_HAL_Driver/Src/stm32f4xx_hal_adc.c ****     }
1492:Drivers/STM32F4xx_HAL_Driver/Src/stm32f4xx_hal_adc.c ****   }
1493:Drivers/STM32F4xx_HAL_Driver/Src/stm32f4xx_hal_adc.c ****   else
1494:Drivers/STM32F4xx_HAL_Driver/Src/stm32f4xx_hal_adc.c ****   {
1495:Drivers/STM32F4xx_HAL_Driver/Src/stm32f4xx_hal_adc.c ****     /* Update ADC state machine to error */
1496:Drivers/STM32F4xx_HAL_Driver/Src/stm32f4xx_hal_adc.c ****     SET_BIT(hadc->State, HAL_ADC_STATE_ERROR_INTERNAL);
 2007              		.loc 1 1496 5
 2008 01e0 FB68     		ldr	r3, [r7, #12]
 2009 01e2 1B6C     		ldr	r3, [r3, #64]
 2010 01e4 43F01002 		orr	r2, r3, #16
 2011 01e8 FB68     		ldr	r3, [r7, #12]
 2012 01ea 1A64     		str	r2, [r3, #64]
1497:Drivers/STM32F4xx_HAL_Driver/Src/stm32f4xx_hal_adc.c **** 
1498:Drivers/STM32F4xx_HAL_Driver/Src/stm32f4xx_hal_adc.c ****     /* Set ADC error code to ADC IP internal error */
1499:Drivers/STM32F4xx_HAL_Driver/Src/stm32f4xx_hal_adc.c ****     SET_BIT(hadc->ErrorCode, HAL_ADC_ERROR_INTERNAL);
 2013              		.loc 1 1499 5
 2014 01ec FB68     		ldr	r3, [r7, #12]
 2015 01ee 5B6C     		ldr	r3, [r3, #68]
 2016 01f0 43F00102 		orr	r2, r3, #1
 2017 01f4 FB68     		ldr	r3, [r7, #12]
 2018 01f6 5A64     		str	r2, [r3, #68]
 2019              	.L98:
1500:Drivers/STM32F4xx_HAL_Driver/Src/stm32f4xx_hal_adc.c ****   }
1501:Drivers/STM32F4xx_HAL_Driver/Src/stm32f4xx_hal_adc.c **** 
1502:Drivers/STM32F4xx_HAL_Driver/Src/stm32f4xx_hal_adc.c ****   /* Return function status */
1503:Drivers/STM32F4xx_HAL_Driver/Src/stm32f4xx_hal_adc.c ****   return tmp_hal_status;
 2020              		.loc 1 1503 10
 2021 01f8 FB7F     		ldrb	r3, [r7, #31]	@ zero_extendqisi2
 2022              	.L86:
1504:Drivers/STM32F4xx_HAL_Driver/Src/stm32f4xx_hal_adc.c **** }
 2023              		.loc 1 1504 1
 2024 01fa 1846     		mov	r0, r3
 2025 01fc 2037     		adds	r7, r7, #32
 2026              		.cfi_def_cfa_offset 8
 2027 01fe BD46     		mov	sp, r7
 2028              		.cfi_def_cfa_register 13
 2029              		@ sp needed
 2030 0200 80BD     		pop	{r7, pc}
 2031              	.L100:
 2032 0202 00BF     		.align	2
 2033              	.L99:
 2034 0204 00000000 		.word	SystemCoreClock
ARM GAS  C:\Users\Halil\AppData\Local\Temp\cc7e4Lrl.s 			page 63


 2035 0208 83DE1B43 		.word	1125899907
 2036 020c 00230140 		.word	1073816320
 2037 0210 00000000 		.word	ADC_DMAConvCplt
 2038 0214 00000000 		.word	ADC_DMAHalfConvCplt
 2039 0218 00000000 		.word	ADC_DMAError
 2040 021c 00200140 		.word	1073815552
 2041 0220 00210140 		.word	1073815808
 2042 0224 00220140 		.word	1073816064
 2043              		.cfi_endproc
 2044              	.LFE250:
 2046              		.section	.text.HAL_ADC_Stop_DMA,"ax",%progbits
 2047              		.align	1
 2048              		.global	HAL_ADC_Stop_DMA
 2049              		.syntax unified
 2050              		.thumb
 2051              		.thumb_func
 2053              	HAL_ADC_Stop_DMA:
 2054              	.LFB251:
1505:Drivers/STM32F4xx_HAL_Driver/Src/stm32f4xx_hal_adc.c **** 
1506:Drivers/STM32F4xx_HAL_Driver/Src/stm32f4xx_hal_adc.c **** /**
1507:Drivers/STM32F4xx_HAL_Driver/Src/stm32f4xx_hal_adc.c ****   * @brief  Disables ADC DMA (Single-ADC mode) and disables ADC peripheral
1508:Drivers/STM32F4xx_HAL_Driver/Src/stm32f4xx_hal_adc.c ****   * @param  hadc pointer to a ADC_HandleTypeDef structure that contains
1509:Drivers/STM32F4xx_HAL_Driver/Src/stm32f4xx_hal_adc.c ****   *         the configuration information for the specified ADC.
1510:Drivers/STM32F4xx_HAL_Driver/Src/stm32f4xx_hal_adc.c ****   * @retval HAL status
1511:Drivers/STM32F4xx_HAL_Driver/Src/stm32f4xx_hal_adc.c ****   */
1512:Drivers/STM32F4xx_HAL_Driver/Src/stm32f4xx_hal_adc.c **** HAL_StatusTypeDef HAL_ADC_Stop_DMA(ADC_HandleTypeDef *hadc)
1513:Drivers/STM32F4xx_HAL_Driver/Src/stm32f4xx_hal_adc.c **** {
 2055              		.loc 1 1513 1
 2056              		.cfi_startproc
 2057              		@ args = 0, pretend = 0, frame = 16
 2058              		@ frame_needed = 1, uses_anonymous_args = 0
 2059 0000 80B5     		push	{r7, lr}
 2060              		.cfi_def_cfa_offset 8
 2061              		.cfi_offset 7, -8
 2062              		.cfi_offset 14, -4
 2063 0002 84B0     		sub	sp, sp, #16
 2064              		.cfi_def_cfa_offset 24
 2065 0004 00AF     		add	r7, sp, #0
 2066              		.cfi_def_cfa_register 7
 2067 0006 7860     		str	r0, [r7, #4]
1514:Drivers/STM32F4xx_HAL_Driver/Src/stm32f4xx_hal_adc.c ****   HAL_StatusTypeDef tmp_hal_status = HAL_OK;
 2068              		.loc 1 1514 21
 2069 0008 0023     		movs	r3, #0
 2070 000a FB73     		strb	r3, [r7, #15]
1515:Drivers/STM32F4xx_HAL_Driver/Src/stm32f4xx_hal_adc.c **** 
1516:Drivers/STM32F4xx_HAL_Driver/Src/stm32f4xx_hal_adc.c ****   /* Check the parameters */
1517:Drivers/STM32F4xx_HAL_Driver/Src/stm32f4xx_hal_adc.c ****   assert_param(IS_ADC_ALL_INSTANCE(hadc->Instance));
1518:Drivers/STM32F4xx_HAL_Driver/Src/stm32f4xx_hal_adc.c **** 
1519:Drivers/STM32F4xx_HAL_Driver/Src/stm32f4xx_hal_adc.c ****   /* Process locked */
1520:Drivers/STM32F4xx_HAL_Driver/Src/stm32f4xx_hal_adc.c ****   __HAL_LOCK(hadc);
 2071              		.loc 1 1520 3
 2072 000c 7B68     		ldr	r3, [r7, #4]
 2073 000e 93F83C30 		ldrb	r3, [r3, #60]	@ zero_extendqisi2
 2074 0012 012B     		cmp	r3, #1
 2075 0014 01D1     		bne	.L102
 2076              		.loc 1 1520 3 is_stmt 0 discriminator 1
 2077 0016 0223     		movs	r3, #2
ARM GAS  C:\Users\Halil\AppData\Local\Temp\cc7e4Lrl.s 			page 64


 2078 0018 48E0     		b	.L103
 2079              	.L102:
 2080              		.loc 1 1520 3 discriminator 2
 2081 001a 7B68     		ldr	r3, [r7, #4]
 2082 001c 0122     		movs	r2, #1
 2083 001e 83F83C20 		strb	r2, [r3, #60]
1521:Drivers/STM32F4xx_HAL_Driver/Src/stm32f4xx_hal_adc.c **** 
1522:Drivers/STM32F4xx_HAL_Driver/Src/stm32f4xx_hal_adc.c ****   /* Stop potential conversion on going, on regular and injected groups */
1523:Drivers/STM32F4xx_HAL_Driver/Src/stm32f4xx_hal_adc.c ****   /* Disable ADC peripheral */
1524:Drivers/STM32F4xx_HAL_Driver/Src/stm32f4xx_hal_adc.c ****   __HAL_ADC_DISABLE(hadc);
 2084              		.loc 1 1524 3 is_stmt 1 discriminator 2
 2085 0022 7B68     		ldr	r3, [r7, #4]
 2086 0024 1B68     		ldr	r3, [r3]
 2087 0026 9A68     		ldr	r2, [r3, #8]
 2088 0028 7B68     		ldr	r3, [r7, #4]
 2089 002a 1B68     		ldr	r3, [r3]
 2090 002c 22F00102 		bic	r2, r2, #1
 2091 0030 9A60     		str	r2, [r3, #8]
1525:Drivers/STM32F4xx_HAL_Driver/Src/stm32f4xx_hal_adc.c **** 
1526:Drivers/STM32F4xx_HAL_Driver/Src/stm32f4xx_hal_adc.c ****   /* Check if ADC is effectively disabled */
1527:Drivers/STM32F4xx_HAL_Driver/Src/stm32f4xx_hal_adc.c ****   if (HAL_IS_BIT_CLR(hadc->Instance->CR2, ADC_CR2_ADON))
 2092              		.loc 1 1527 7 discriminator 2
 2093 0032 7B68     		ldr	r3, [r7, #4]
 2094 0034 1B68     		ldr	r3, [r3]
 2095 0036 9B68     		ldr	r3, [r3, #8]
 2096 0038 03F00103 		and	r3, r3, #1
 2097              		.loc 1 1527 6 discriminator 2
 2098 003c 002B     		cmp	r3, #0
 2099 003e 30D1     		bne	.L104
1528:Drivers/STM32F4xx_HAL_Driver/Src/stm32f4xx_hal_adc.c ****   {
1529:Drivers/STM32F4xx_HAL_Driver/Src/stm32f4xx_hal_adc.c ****     /* Disable the selected ADC DMA mode */
1530:Drivers/STM32F4xx_HAL_Driver/Src/stm32f4xx_hal_adc.c ****     hadc->Instance->CR2 &= ~ADC_CR2_DMA;
 2100              		.loc 1 1530 9
 2101 0040 7B68     		ldr	r3, [r7, #4]
 2102 0042 1B68     		ldr	r3, [r3]
 2103              		.loc 1 1530 19
 2104 0044 9A68     		ldr	r2, [r3, #8]
 2105              		.loc 1 1530 9
 2106 0046 7B68     		ldr	r3, [r7, #4]
 2107 0048 1B68     		ldr	r3, [r3]
 2108              		.loc 1 1530 25
 2109 004a 22F48072 		bic	r2, r2, #256
 2110 004e 9A60     		str	r2, [r3, #8]
1531:Drivers/STM32F4xx_HAL_Driver/Src/stm32f4xx_hal_adc.c **** 
1532:Drivers/STM32F4xx_HAL_Driver/Src/stm32f4xx_hal_adc.c ****     /* Disable the DMA channel (in case of DMA in circular mode or stop while */
1533:Drivers/STM32F4xx_HAL_Driver/Src/stm32f4xx_hal_adc.c ****     /* DMA transfer is on going)                                              */
1534:Drivers/STM32F4xx_HAL_Driver/Src/stm32f4xx_hal_adc.c ****     if (hadc->DMA_Handle->State == HAL_DMA_STATE_BUSY)
 2111              		.loc 1 1534 13
 2112 0050 7B68     		ldr	r3, [r7, #4]
 2113 0052 9B6B     		ldr	r3, [r3, #56]
 2114              		.loc 1 1534 25
 2115 0054 93F83530 		ldrb	r3, [r3, #53]
 2116 0058 DBB2     		uxtb	r3, r3
 2117              		.loc 1 1534 8
 2118 005a 022B     		cmp	r3, #2
 2119 005c 0FD1     		bne	.L105
1535:Drivers/STM32F4xx_HAL_Driver/Src/stm32f4xx_hal_adc.c ****     {
ARM GAS  C:\Users\Halil\AppData\Local\Temp\cc7e4Lrl.s 			page 65


1536:Drivers/STM32F4xx_HAL_Driver/Src/stm32f4xx_hal_adc.c ****       tmp_hal_status = HAL_DMA_Abort(hadc->DMA_Handle);
 2120              		.loc 1 1536 24
 2121 005e 7B68     		ldr	r3, [r7, #4]
 2122 0060 9B6B     		ldr	r3, [r3, #56]
 2123 0062 1846     		mov	r0, r3
 2124 0064 FFF7FEFF 		bl	HAL_DMA_Abort
 2125 0068 0346     		mov	r3, r0
 2126 006a FB73     		strb	r3, [r7, #15]
1537:Drivers/STM32F4xx_HAL_Driver/Src/stm32f4xx_hal_adc.c **** 
1538:Drivers/STM32F4xx_HAL_Driver/Src/stm32f4xx_hal_adc.c ****       /* Check if DMA channel effectively disabled */
1539:Drivers/STM32F4xx_HAL_Driver/Src/stm32f4xx_hal_adc.c ****       if (tmp_hal_status != HAL_OK)
 2127              		.loc 1 1539 10
 2128 006c FB7B     		ldrb	r3, [r7, #15]	@ zero_extendqisi2
 2129 006e 002B     		cmp	r3, #0
 2130 0070 05D0     		beq	.L105
1540:Drivers/STM32F4xx_HAL_Driver/Src/stm32f4xx_hal_adc.c ****       {
1541:Drivers/STM32F4xx_HAL_Driver/Src/stm32f4xx_hal_adc.c ****         /* Update ADC state machine to error */
1542:Drivers/STM32F4xx_HAL_Driver/Src/stm32f4xx_hal_adc.c ****         SET_BIT(hadc->State, HAL_ADC_STATE_ERROR_DMA);
 2131              		.loc 1 1542 9
 2132 0072 7B68     		ldr	r3, [r7, #4]
 2133 0074 1B6C     		ldr	r3, [r3, #64]
 2134 0076 43F04002 		orr	r2, r3, #64
 2135 007a 7B68     		ldr	r3, [r7, #4]
 2136 007c 1A64     		str	r2, [r3, #64]
 2137              	.L105:
1543:Drivers/STM32F4xx_HAL_Driver/Src/stm32f4xx_hal_adc.c ****       }
1544:Drivers/STM32F4xx_HAL_Driver/Src/stm32f4xx_hal_adc.c ****     }
1545:Drivers/STM32F4xx_HAL_Driver/Src/stm32f4xx_hal_adc.c **** 
1546:Drivers/STM32F4xx_HAL_Driver/Src/stm32f4xx_hal_adc.c ****     /* Disable ADC overrun interrupt */
1547:Drivers/STM32F4xx_HAL_Driver/Src/stm32f4xx_hal_adc.c ****     __HAL_ADC_DISABLE_IT(hadc, ADC_IT_OVR);
 2138              		.loc 1 1547 5
 2139 007e 7B68     		ldr	r3, [r7, #4]
 2140 0080 1B68     		ldr	r3, [r3]
 2141 0082 5A68     		ldr	r2, [r3, #4]
 2142 0084 7B68     		ldr	r3, [r7, #4]
 2143 0086 1B68     		ldr	r3, [r3]
 2144 0088 22F08062 		bic	r2, r2, #67108864
 2145 008c 5A60     		str	r2, [r3, #4]
1548:Drivers/STM32F4xx_HAL_Driver/Src/stm32f4xx_hal_adc.c **** 
1549:Drivers/STM32F4xx_HAL_Driver/Src/stm32f4xx_hal_adc.c ****     /* Set ADC state */
1550:Drivers/STM32F4xx_HAL_Driver/Src/stm32f4xx_hal_adc.c ****     ADC_STATE_CLR_SET(hadc->State,
 2146              		.loc 1 1550 5
 2147 008e 7B68     		ldr	r3, [r7, #4]
 2148 0090 1B6C     		ldr	r3, [r3, #64]
 2149 0092 23F48853 		bic	r3, r3, #4352
 2150 0096 23F00103 		bic	r3, r3, #1
 2151 009a 43F00102 		orr	r2, r3, #1
 2152 009e 7B68     		ldr	r3, [r7, #4]
 2153 00a0 1A64     		str	r2, [r3, #64]
 2154              	.L104:
1551:Drivers/STM32F4xx_HAL_Driver/Src/stm32f4xx_hal_adc.c ****                       HAL_ADC_STATE_REG_BUSY | HAL_ADC_STATE_INJ_BUSY,
1552:Drivers/STM32F4xx_HAL_Driver/Src/stm32f4xx_hal_adc.c ****                       HAL_ADC_STATE_READY);
1553:Drivers/STM32F4xx_HAL_Driver/Src/stm32f4xx_hal_adc.c ****   }
1554:Drivers/STM32F4xx_HAL_Driver/Src/stm32f4xx_hal_adc.c **** 
1555:Drivers/STM32F4xx_HAL_Driver/Src/stm32f4xx_hal_adc.c ****   /* Process unlocked */
1556:Drivers/STM32F4xx_HAL_Driver/Src/stm32f4xx_hal_adc.c ****   __HAL_UNLOCK(hadc);
 2155              		.loc 1 1556 3
ARM GAS  C:\Users\Halil\AppData\Local\Temp\cc7e4Lrl.s 			page 66


 2156 00a2 7B68     		ldr	r3, [r7, #4]
 2157 00a4 0022     		movs	r2, #0
 2158 00a6 83F83C20 		strb	r2, [r3, #60]
1557:Drivers/STM32F4xx_HAL_Driver/Src/stm32f4xx_hal_adc.c **** 
1558:Drivers/STM32F4xx_HAL_Driver/Src/stm32f4xx_hal_adc.c ****   /* Return function status */
1559:Drivers/STM32F4xx_HAL_Driver/Src/stm32f4xx_hal_adc.c ****   return tmp_hal_status;
 2159              		.loc 1 1559 10
 2160 00aa FB7B     		ldrb	r3, [r7, #15]	@ zero_extendqisi2
 2161              	.L103:
1560:Drivers/STM32F4xx_HAL_Driver/Src/stm32f4xx_hal_adc.c **** }
 2162              		.loc 1 1560 1
 2163 00ac 1846     		mov	r0, r3
 2164 00ae 1037     		adds	r7, r7, #16
 2165              		.cfi_def_cfa_offset 8
 2166 00b0 BD46     		mov	sp, r7
 2167              		.cfi_def_cfa_register 13
 2168              		@ sp needed
 2169 00b2 80BD     		pop	{r7, pc}
 2170              		.cfi_endproc
 2171              	.LFE251:
 2173              		.section	.text.HAL_ADC_GetValue,"ax",%progbits
 2174              		.align	1
 2175              		.global	HAL_ADC_GetValue
 2176              		.syntax unified
 2177              		.thumb
 2178              		.thumb_func
 2180              	HAL_ADC_GetValue:
 2181              	.LFB252:
1561:Drivers/STM32F4xx_HAL_Driver/Src/stm32f4xx_hal_adc.c **** 
1562:Drivers/STM32F4xx_HAL_Driver/Src/stm32f4xx_hal_adc.c **** /**
1563:Drivers/STM32F4xx_HAL_Driver/Src/stm32f4xx_hal_adc.c ****   * @brief  Gets the converted value from data register of regular channel.
1564:Drivers/STM32F4xx_HAL_Driver/Src/stm32f4xx_hal_adc.c ****   * @param  hadc pointer to a ADC_HandleTypeDef structure that contains
1565:Drivers/STM32F4xx_HAL_Driver/Src/stm32f4xx_hal_adc.c ****   *         the configuration information for the specified ADC.
1566:Drivers/STM32F4xx_HAL_Driver/Src/stm32f4xx_hal_adc.c ****   * @retval Converted value
1567:Drivers/STM32F4xx_HAL_Driver/Src/stm32f4xx_hal_adc.c ****   */
1568:Drivers/STM32F4xx_HAL_Driver/Src/stm32f4xx_hal_adc.c **** uint32_t HAL_ADC_GetValue(ADC_HandleTypeDef *hadc)
1569:Drivers/STM32F4xx_HAL_Driver/Src/stm32f4xx_hal_adc.c **** {
 2182              		.loc 1 1569 1
 2183              		.cfi_startproc
 2184              		@ args = 0, pretend = 0, frame = 8
 2185              		@ frame_needed = 1, uses_anonymous_args = 0
 2186              		@ link register save eliminated.
 2187 0000 80B4     		push	{r7}
 2188              		.cfi_def_cfa_offset 4
 2189              		.cfi_offset 7, -4
 2190 0002 83B0     		sub	sp, sp, #12
 2191              		.cfi_def_cfa_offset 16
 2192 0004 00AF     		add	r7, sp, #0
 2193              		.cfi_def_cfa_register 7
 2194 0006 7860     		str	r0, [r7, #4]
1570:Drivers/STM32F4xx_HAL_Driver/Src/stm32f4xx_hal_adc.c ****   /* Return the selected ADC converted value */
1571:Drivers/STM32F4xx_HAL_Driver/Src/stm32f4xx_hal_adc.c ****   return hadc->Instance->DR;
 2195              		.loc 1 1571 14
 2196 0008 7B68     		ldr	r3, [r7, #4]
 2197 000a 1B68     		ldr	r3, [r3]
 2198              		.loc 1 1571 24
 2199 000c DB6C     		ldr	r3, [r3, #76]
ARM GAS  C:\Users\Halil\AppData\Local\Temp\cc7e4Lrl.s 			page 67


1572:Drivers/STM32F4xx_HAL_Driver/Src/stm32f4xx_hal_adc.c **** }
 2200              		.loc 1 1572 1
 2201 000e 1846     		mov	r0, r3
 2202 0010 0C37     		adds	r7, r7, #12
 2203              		.cfi_def_cfa_offset 4
 2204 0012 BD46     		mov	sp, r7
 2205              		.cfi_def_cfa_register 13
 2206              		@ sp needed
 2207 0014 5DF8047B 		ldr	r7, [sp], #4
 2208              		.cfi_restore 7
 2209              		.cfi_def_cfa_offset 0
 2210 0018 7047     		bx	lr
 2211              		.cfi_endproc
 2212              	.LFE252:
 2214              		.section	.text.HAL_ADC_ConvCpltCallback,"ax",%progbits
 2215              		.align	1
 2216              		.weak	HAL_ADC_ConvCpltCallback
 2217              		.syntax unified
 2218              		.thumb
 2219              		.thumb_func
 2221              	HAL_ADC_ConvCpltCallback:
 2222              	.LFB253:
1573:Drivers/STM32F4xx_HAL_Driver/Src/stm32f4xx_hal_adc.c **** 
1574:Drivers/STM32F4xx_HAL_Driver/Src/stm32f4xx_hal_adc.c **** /**
1575:Drivers/STM32F4xx_HAL_Driver/Src/stm32f4xx_hal_adc.c ****   * @brief  Regular conversion complete callback in non blocking mode
1576:Drivers/STM32F4xx_HAL_Driver/Src/stm32f4xx_hal_adc.c ****   * @param  hadc pointer to a ADC_HandleTypeDef structure that contains
1577:Drivers/STM32F4xx_HAL_Driver/Src/stm32f4xx_hal_adc.c ****   *         the configuration information for the specified ADC.
1578:Drivers/STM32F4xx_HAL_Driver/Src/stm32f4xx_hal_adc.c ****   * @retval None
1579:Drivers/STM32F4xx_HAL_Driver/Src/stm32f4xx_hal_adc.c ****   */
1580:Drivers/STM32F4xx_HAL_Driver/Src/stm32f4xx_hal_adc.c **** __weak void HAL_ADC_ConvCpltCallback(ADC_HandleTypeDef *hadc)
1581:Drivers/STM32F4xx_HAL_Driver/Src/stm32f4xx_hal_adc.c **** {
 2223              		.loc 1 1581 1
 2224              		.cfi_startproc
 2225              		@ args = 0, pretend = 0, frame = 8
 2226              		@ frame_needed = 1, uses_anonymous_args = 0
 2227              		@ link register save eliminated.
 2228 0000 80B4     		push	{r7}
 2229              		.cfi_def_cfa_offset 4
 2230              		.cfi_offset 7, -4
 2231 0002 83B0     		sub	sp, sp, #12
 2232              		.cfi_def_cfa_offset 16
 2233 0004 00AF     		add	r7, sp, #0
 2234              		.cfi_def_cfa_register 7
 2235 0006 7860     		str	r0, [r7, #4]
1582:Drivers/STM32F4xx_HAL_Driver/Src/stm32f4xx_hal_adc.c ****   /* Prevent unused argument(s) compilation warning */
1583:Drivers/STM32F4xx_HAL_Driver/Src/stm32f4xx_hal_adc.c ****   UNUSED(hadc);
1584:Drivers/STM32F4xx_HAL_Driver/Src/stm32f4xx_hal_adc.c ****   /* NOTE : This function Should not be modified, when the callback is needed,
1585:Drivers/STM32F4xx_HAL_Driver/Src/stm32f4xx_hal_adc.c ****             the HAL_ADC_ConvCpltCallback could be implemented in the user file
1586:Drivers/STM32F4xx_HAL_Driver/Src/stm32f4xx_hal_adc.c ****    */
1587:Drivers/STM32F4xx_HAL_Driver/Src/stm32f4xx_hal_adc.c **** }
 2236              		.loc 1 1587 1
 2237 0008 00BF     		nop
 2238 000a 0C37     		adds	r7, r7, #12
 2239              		.cfi_def_cfa_offset 4
 2240 000c BD46     		mov	sp, r7
 2241              		.cfi_def_cfa_register 13
 2242              		@ sp needed
ARM GAS  C:\Users\Halil\AppData\Local\Temp\cc7e4Lrl.s 			page 68


 2243 000e 5DF8047B 		ldr	r7, [sp], #4
 2244              		.cfi_restore 7
 2245              		.cfi_def_cfa_offset 0
 2246 0012 7047     		bx	lr
 2247              		.cfi_endproc
 2248              	.LFE253:
 2250              		.section	.text.HAL_ADC_ConvHalfCpltCallback,"ax",%progbits
 2251              		.align	1
 2252              		.weak	HAL_ADC_ConvHalfCpltCallback
 2253              		.syntax unified
 2254              		.thumb
 2255              		.thumb_func
 2257              	HAL_ADC_ConvHalfCpltCallback:
 2258              	.LFB254:
1588:Drivers/STM32F4xx_HAL_Driver/Src/stm32f4xx_hal_adc.c **** 
1589:Drivers/STM32F4xx_HAL_Driver/Src/stm32f4xx_hal_adc.c **** /**
1590:Drivers/STM32F4xx_HAL_Driver/Src/stm32f4xx_hal_adc.c ****   * @brief  Regular conversion half DMA transfer callback in non blocking mode
1591:Drivers/STM32F4xx_HAL_Driver/Src/stm32f4xx_hal_adc.c ****   * @param  hadc pointer to a ADC_HandleTypeDef structure that contains
1592:Drivers/STM32F4xx_HAL_Driver/Src/stm32f4xx_hal_adc.c ****   *         the configuration information for the specified ADC.
1593:Drivers/STM32F4xx_HAL_Driver/Src/stm32f4xx_hal_adc.c ****   * @retval None
1594:Drivers/STM32F4xx_HAL_Driver/Src/stm32f4xx_hal_adc.c ****   */
1595:Drivers/STM32F4xx_HAL_Driver/Src/stm32f4xx_hal_adc.c **** __weak void HAL_ADC_ConvHalfCpltCallback(ADC_HandleTypeDef *hadc)
1596:Drivers/STM32F4xx_HAL_Driver/Src/stm32f4xx_hal_adc.c **** {
 2259              		.loc 1 1596 1
 2260              		.cfi_startproc
 2261              		@ args = 0, pretend = 0, frame = 8
 2262              		@ frame_needed = 1, uses_anonymous_args = 0
 2263              		@ link register save eliminated.
 2264 0000 80B4     		push	{r7}
 2265              		.cfi_def_cfa_offset 4
 2266              		.cfi_offset 7, -4
 2267 0002 83B0     		sub	sp, sp, #12
 2268              		.cfi_def_cfa_offset 16
 2269 0004 00AF     		add	r7, sp, #0
