ARM GAS  C:\Users\Halil\AppData\Local\Temp\ccvukMBT.s 			page 1


   1              		.cpu cortex-m4
   2              		.arch armv7e-m
   3              		.fpu fpv4-sp-d16
   4              		.eabi_attribute 27, 1
   5              		.eabi_attribute 28, 1
   6              		.eabi_attribute 20, 1
   7              		.eabi_attribute 21, 1
   8              		.eabi_attribute 23, 3
   9              		.eabi_attribute 24, 1
  10              		.eabi_attribute 25, 1
  11              		.eabi_attribute 26, 1
  12              		.eabi_attribute 30, 6
  13              		.eabi_attribute 34, 1
  14              		.eabi_attribute 18, 4
  15              		.file	"stm32f4xx_hal_i2c.c"
  16              		.text
  17              	.Ltext0:
  18              		.cfi_sections	.debug_frame
  19              		.file 1 "Drivers/STM32F4xx_HAL_Driver/Src/stm32f4xx_hal_i2c.c"
  20              		.section	.text.HAL_I2C_Init,"ax",%progbits
  21              		.align	1
  22              		.global	HAL_I2C_Init
  23              		.syntax unified
  24              		.thumb
  25              		.thumb_func
  27              	HAL_I2C_Init:
  28              	.LFB239:
   1:Drivers/STM32F4xx_HAL_Driver/Src/stm32f4xx_hal_i2c.c **** /**
   2:Drivers/STM32F4xx_HAL_Driver/Src/stm32f4xx_hal_i2c.c ****   ******************************************************************************
   3:Drivers/STM32F4xx_HAL_Driver/Src/stm32f4xx_hal_i2c.c ****   * @file    stm32f4xx_hal_i2c.c
   4:Drivers/STM32F4xx_HAL_Driver/Src/stm32f4xx_hal_i2c.c ****   * @author  MCD Application Team
   5:Drivers/STM32F4xx_HAL_Driver/Src/stm32f4xx_hal_i2c.c ****   * @brief   I2C HAL module driver.
   6:Drivers/STM32F4xx_HAL_Driver/Src/stm32f4xx_hal_i2c.c ****   *          This file provides firmware functions to manage the following
   7:Drivers/STM32F4xx_HAL_Driver/Src/stm32f4xx_hal_i2c.c ****   *          functionalities of the Inter Integrated Circuit (I2C) peripheral:
   8:Drivers/STM32F4xx_HAL_Driver/Src/stm32f4xx_hal_i2c.c ****   *           + Initialization and de-initialization functions
   9:Drivers/STM32F4xx_HAL_Driver/Src/stm32f4xx_hal_i2c.c ****   *           + IO operation functions
  10:Drivers/STM32F4xx_HAL_Driver/Src/stm32f4xx_hal_i2c.c ****   *           + Peripheral State, Mode and Error functions
  11:Drivers/STM32F4xx_HAL_Driver/Src/stm32f4xx_hal_i2c.c ****   *
  12:Drivers/STM32F4xx_HAL_Driver/Src/stm32f4xx_hal_i2c.c ****   ******************************************************************************
  13:Drivers/STM32F4xx_HAL_Driver/Src/stm32f4xx_hal_i2c.c ****   * @attention
  14:Drivers/STM32F4xx_HAL_Driver/Src/stm32f4xx_hal_i2c.c ****   *
  15:Drivers/STM32F4xx_HAL_Driver/Src/stm32f4xx_hal_i2c.c ****   * Copyright (c) 2016 STMicroelectronics.
  16:Drivers/STM32F4xx_HAL_Driver/Src/stm32f4xx_hal_i2c.c ****   * All rights reserved.
  17:Drivers/STM32F4xx_HAL_Driver/Src/stm32f4xx_hal_i2c.c ****   *
  18:Drivers/STM32F4xx_HAL_Driver/Src/stm32f4xx_hal_i2c.c ****   * This software is licensed under terms that can be found in the LICENSE file
  19:Drivers/STM32F4xx_HAL_Driver/Src/stm32f4xx_hal_i2c.c ****   * in the root directory of this software component.
  20:Drivers/STM32F4xx_HAL_Driver/Src/stm32f4xx_hal_i2c.c ****   * If no LICENSE file comes with this software, it is provided AS-IS.
  21:Drivers/STM32F4xx_HAL_Driver/Src/stm32f4xx_hal_i2c.c ****   *
  22:Drivers/STM32F4xx_HAL_Driver/Src/stm32f4xx_hal_i2c.c ****   ******************************************************************************
  23:Drivers/STM32F4xx_HAL_Driver/Src/stm32f4xx_hal_i2c.c ****   @verbatim
  24:Drivers/STM32F4xx_HAL_Driver/Src/stm32f4xx_hal_i2c.c ****   ==============================================================================
  25:Drivers/STM32F4xx_HAL_Driver/Src/stm32f4xx_hal_i2c.c ****                         ##### How to use this driver #####
  26:Drivers/STM32F4xx_HAL_Driver/Src/stm32f4xx_hal_i2c.c ****   ==============================================================================
  27:Drivers/STM32F4xx_HAL_Driver/Src/stm32f4xx_hal_i2c.c ****   [..]
  28:Drivers/STM32F4xx_HAL_Driver/Src/stm32f4xx_hal_i2c.c ****     The I2C HAL driver can be used as follows:
  29:Drivers/STM32F4xx_HAL_Driver/Src/stm32f4xx_hal_i2c.c **** 
  30:Drivers/STM32F4xx_HAL_Driver/Src/stm32f4xx_hal_i2c.c ****     (#) Declare a I2C_HandleTypeDef handle structure, for example:
ARM GAS  C:\Users\Halil\AppData\Local\Temp\ccvukMBT.s 			page 2


  31:Drivers/STM32F4xx_HAL_Driver/Src/stm32f4xx_hal_i2c.c ****         I2C_HandleTypeDef  hi2c;
  32:Drivers/STM32F4xx_HAL_Driver/Src/stm32f4xx_hal_i2c.c **** 
  33:Drivers/STM32F4xx_HAL_Driver/Src/stm32f4xx_hal_i2c.c ****     (#)Initialize the I2C low level resources by implementing the HAL_I2C_MspInit() API:
  34:Drivers/STM32F4xx_HAL_Driver/Src/stm32f4xx_hal_i2c.c ****         (##) Enable the I2Cx interface clock
  35:Drivers/STM32F4xx_HAL_Driver/Src/stm32f4xx_hal_i2c.c ****         (##) I2C pins configuration
  36:Drivers/STM32F4xx_HAL_Driver/Src/stm32f4xx_hal_i2c.c ****             (+++) Enable the clock for the I2C GPIOs
  37:Drivers/STM32F4xx_HAL_Driver/Src/stm32f4xx_hal_i2c.c ****             (+++) Configure I2C pins as alternate function open-drain
  38:Drivers/STM32F4xx_HAL_Driver/Src/stm32f4xx_hal_i2c.c ****         (##) NVIC configuration if you need to use interrupt process
  39:Drivers/STM32F4xx_HAL_Driver/Src/stm32f4xx_hal_i2c.c ****             (+++) Configure the I2Cx interrupt priority
  40:Drivers/STM32F4xx_HAL_Driver/Src/stm32f4xx_hal_i2c.c ****             (+++) Enable the NVIC I2C IRQ Channel
  41:Drivers/STM32F4xx_HAL_Driver/Src/stm32f4xx_hal_i2c.c ****         (##) DMA Configuration if you need to use DMA process
  42:Drivers/STM32F4xx_HAL_Driver/Src/stm32f4xx_hal_i2c.c ****             (+++) Declare a DMA_HandleTypeDef handle structure for the transmit or receive stream
  43:Drivers/STM32F4xx_HAL_Driver/Src/stm32f4xx_hal_i2c.c ****             (+++) Enable the DMAx interface clock using
  44:Drivers/STM32F4xx_HAL_Driver/Src/stm32f4xx_hal_i2c.c ****             (+++) Configure the DMA handle parameters
  45:Drivers/STM32F4xx_HAL_Driver/Src/stm32f4xx_hal_i2c.c ****             (+++) Configure the DMA Tx or Rx stream
  46:Drivers/STM32F4xx_HAL_Driver/Src/stm32f4xx_hal_i2c.c ****             (+++) Associate the initialized DMA handle to the hi2c DMA Tx or Rx handle
  47:Drivers/STM32F4xx_HAL_Driver/Src/stm32f4xx_hal_i2c.c ****             (+++) Configure the priority and enable the NVIC for the transfer complete interrupt on
  48:Drivers/STM32F4xx_HAL_Driver/Src/stm32f4xx_hal_i2c.c ****                   the DMA Tx or Rx stream
  49:Drivers/STM32F4xx_HAL_Driver/Src/stm32f4xx_hal_i2c.c **** 
  50:Drivers/STM32F4xx_HAL_Driver/Src/stm32f4xx_hal_i2c.c ****     (#) Configure the Communication Speed, Duty cycle, Addressing mode, Own Address1,
  51:Drivers/STM32F4xx_HAL_Driver/Src/stm32f4xx_hal_i2c.c ****         Dual Addressing mode, Own Address2, General call and Nostretch mode in the hi2c Init struct
  52:Drivers/STM32F4xx_HAL_Driver/Src/stm32f4xx_hal_i2c.c **** 
  53:Drivers/STM32F4xx_HAL_Driver/Src/stm32f4xx_hal_i2c.c ****     (#) Initialize the I2C registers by calling the HAL_I2C_Init(), configures also the low level H
  54:Drivers/STM32F4xx_HAL_Driver/Src/stm32f4xx_hal_i2c.c ****         (GPIO, CLOCK, NVIC...etc) by calling the customized HAL_I2C_MspInit() API.
  55:Drivers/STM32F4xx_HAL_Driver/Src/stm32f4xx_hal_i2c.c **** 
  56:Drivers/STM32F4xx_HAL_Driver/Src/stm32f4xx_hal_i2c.c ****     (#) To check if target device is ready for communication, use the function HAL_I2C_IsDeviceRead
  57:Drivers/STM32F4xx_HAL_Driver/Src/stm32f4xx_hal_i2c.c **** 
  58:Drivers/STM32F4xx_HAL_Driver/Src/stm32f4xx_hal_i2c.c ****     (#) For I2C IO and IO MEM operations, three operation modes are available within this driver :
  59:Drivers/STM32F4xx_HAL_Driver/Src/stm32f4xx_hal_i2c.c **** 
  60:Drivers/STM32F4xx_HAL_Driver/Src/stm32f4xx_hal_i2c.c ****     *** Polling mode IO operation ***
  61:Drivers/STM32F4xx_HAL_Driver/Src/stm32f4xx_hal_i2c.c ****     =================================
  62:Drivers/STM32F4xx_HAL_Driver/Src/stm32f4xx_hal_i2c.c ****     [..]
  63:Drivers/STM32F4xx_HAL_Driver/Src/stm32f4xx_hal_i2c.c ****       (+) Transmit in master mode an amount of data in blocking mode using HAL_I2C_Master_Transmit(
  64:Drivers/STM32F4xx_HAL_Driver/Src/stm32f4xx_hal_i2c.c ****       (+) Receive in master mode an amount of data in blocking mode using HAL_I2C_Master_Receive()
  65:Drivers/STM32F4xx_HAL_Driver/Src/stm32f4xx_hal_i2c.c ****       (+) Transmit in slave mode an amount of data in blocking mode using HAL_I2C_Slave_Transmit()
  66:Drivers/STM32F4xx_HAL_Driver/Src/stm32f4xx_hal_i2c.c ****       (+) Receive in slave mode an amount of data in blocking mode using HAL_I2C_Slave_Receive()
  67:Drivers/STM32F4xx_HAL_Driver/Src/stm32f4xx_hal_i2c.c **** 
  68:Drivers/STM32F4xx_HAL_Driver/Src/stm32f4xx_hal_i2c.c ****     *** Polling mode IO MEM operation ***
  69:Drivers/STM32F4xx_HAL_Driver/Src/stm32f4xx_hal_i2c.c ****     =====================================
  70:Drivers/STM32F4xx_HAL_Driver/Src/stm32f4xx_hal_i2c.c ****     [..]
  71:Drivers/STM32F4xx_HAL_Driver/Src/stm32f4xx_hal_i2c.c ****       (+) Write an amount of data in blocking mode to a specific memory address using HAL_I2C_Mem_W
  72:Drivers/STM32F4xx_HAL_Driver/Src/stm32f4xx_hal_i2c.c ****       (+) Read an amount of data in blocking mode from a specific memory address using HAL_I2C_Mem_
  73:Drivers/STM32F4xx_HAL_Driver/Src/stm32f4xx_hal_i2c.c **** 
  74:Drivers/STM32F4xx_HAL_Driver/Src/stm32f4xx_hal_i2c.c **** 
  75:Drivers/STM32F4xx_HAL_Driver/Src/stm32f4xx_hal_i2c.c ****     *** Interrupt mode IO operation ***
  76:Drivers/STM32F4xx_HAL_Driver/Src/stm32f4xx_hal_i2c.c ****     ===================================
  77:Drivers/STM32F4xx_HAL_Driver/Src/stm32f4xx_hal_i2c.c ****     [..]
  78:Drivers/STM32F4xx_HAL_Driver/Src/stm32f4xx_hal_i2c.c ****       (+) Transmit in master mode an amount of data in non-blocking mode using HAL_I2C_Master_Trans
  79:Drivers/STM32F4xx_HAL_Driver/Src/stm32f4xx_hal_i2c.c ****       (+) At transmission end of transfer, HAL_I2C_MasterTxCpltCallback() is executed and user can
  80:Drivers/STM32F4xx_HAL_Driver/Src/stm32f4xx_hal_i2c.c ****            add his own code by customization of function pointer HAL_I2C_MasterTxCpltCallback()
  81:Drivers/STM32F4xx_HAL_Driver/Src/stm32f4xx_hal_i2c.c ****       (+) Receive in master mode an amount of data in non-blocking mode using HAL_I2C_Master_Receiv
  82:Drivers/STM32F4xx_HAL_Driver/Src/stm32f4xx_hal_i2c.c ****       (+) At reception end of transfer, HAL_I2C_MasterRxCpltCallback() is executed and user can
  83:Drivers/STM32F4xx_HAL_Driver/Src/stm32f4xx_hal_i2c.c ****            add his own code by customization of function pointer HAL_I2C_MasterRxCpltCallback()
  84:Drivers/STM32F4xx_HAL_Driver/Src/stm32f4xx_hal_i2c.c ****       (+) Transmit in slave mode an amount of data in non-blocking mode using HAL_I2C_Slave_Transmi
  85:Drivers/STM32F4xx_HAL_Driver/Src/stm32f4xx_hal_i2c.c ****       (+) At transmission end of transfer, HAL_I2C_SlaveTxCpltCallback() is executed and user can
  86:Drivers/STM32F4xx_HAL_Driver/Src/stm32f4xx_hal_i2c.c ****            add his own code by customization of function pointer HAL_I2C_SlaveTxCpltCallback()
  87:Drivers/STM32F4xx_HAL_Driver/Src/stm32f4xx_hal_i2c.c ****       (+) Receive in slave mode an amount of data in non-blocking mode using HAL_I2C_Slave_Receive_
ARM GAS  C:\Users\Halil\AppData\Local\Temp\ccvukMBT.s 			page 3


  88:Drivers/STM32F4xx_HAL_Driver/Src/stm32f4xx_hal_i2c.c ****       (+) At reception end of transfer, HAL_I2C_SlaveRxCpltCallback() is executed and user can
  89:Drivers/STM32F4xx_HAL_Driver/Src/stm32f4xx_hal_i2c.c ****            add his own code by customization of function pointer HAL_I2C_SlaveRxCpltCallback()
  90:Drivers/STM32F4xx_HAL_Driver/Src/stm32f4xx_hal_i2c.c ****       (+) In case of transfer Error, HAL_I2C_ErrorCallback() function is executed and user can
  91:Drivers/STM32F4xx_HAL_Driver/Src/stm32f4xx_hal_i2c.c ****            add his own code by customization of function pointer HAL_I2C_ErrorCallback()
  92:Drivers/STM32F4xx_HAL_Driver/Src/stm32f4xx_hal_i2c.c ****       (+) Abort a master or memory I2C process communication with Interrupt using HAL_I2C_Master_Ab
  93:Drivers/STM32F4xx_HAL_Driver/Src/stm32f4xx_hal_i2c.c ****       (+) End of abort process, HAL_I2C_AbortCpltCallback() is executed and user can
  94:Drivers/STM32F4xx_HAL_Driver/Src/stm32f4xx_hal_i2c.c ****            add his own code by customization of function pointer HAL_I2C_AbortCpltCallback()
  95:Drivers/STM32F4xx_HAL_Driver/Src/stm32f4xx_hal_i2c.c **** 
  96:Drivers/STM32F4xx_HAL_Driver/Src/stm32f4xx_hal_i2c.c ****     *** Interrupt mode or DMA mode IO sequential operation ***
  97:Drivers/STM32F4xx_HAL_Driver/Src/stm32f4xx_hal_i2c.c ****     ==========================================================
  98:Drivers/STM32F4xx_HAL_Driver/Src/stm32f4xx_hal_i2c.c ****     [..]
  99:Drivers/STM32F4xx_HAL_Driver/Src/stm32f4xx_hal_i2c.c ****       (@) These interfaces allow to manage a sequential transfer with a repeated start condition
 100:Drivers/STM32F4xx_HAL_Driver/Src/stm32f4xx_hal_i2c.c ****           when a direction change during transfer
 101:Drivers/STM32F4xx_HAL_Driver/Src/stm32f4xx_hal_i2c.c ****     [..]
 102:Drivers/STM32F4xx_HAL_Driver/Src/stm32f4xx_hal_i2c.c ****       (+) A specific option field manage the different steps of a sequential transfer
 103:Drivers/STM32F4xx_HAL_Driver/Src/stm32f4xx_hal_i2c.c ****       (+) Option field values are defined through I2C_XferOptions_definition and are listed below:
 104:Drivers/STM32F4xx_HAL_Driver/Src/stm32f4xx_hal_i2c.c ****       (++) I2C_FIRST_AND_LAST_FRAME: No sequential usage, functional is same as associated interfac
 105:Drivers/STM32F4xx_HAL_Driver/Src/stm32f4xx_hal_i2c.c ****       (++) I2C_FIRST_FRAME: Sequential usage, this option allow to manage a sequence with start con
 106:Drivers/STM32F4xx_HAL_Driver/Src/stm32f4xx_hal_i2c.c ****                             and data to transfer without a final stop condition
 107:Drivers/STM32F4xx_HAL_Driver/Src/stm32f4xx_hal_i2c.c ****       (++) I2C_FIRST_AND_NEXT_FRAME: Sequential usage (Master only), this option allow to manage a 
 108:Drivers/STM32F4xx_HAL_Driver/Src/stm32f4xx_hal_i2c.c ****                             and data to transfer without a final stop condition, an then permit a c
 109:Drivers/STM32F4xx_HAL_Driver/Src/stm32f4xx_hal_i2c.c ****                             several times (like HAL_I2C_Master_Seq_Transmit_IT() then HAL_I2C_Maste
 110:Drivers/STM32F4xx_HAL_Driver/Src/stm32f4xx_hal_i2c.c ****                             or HAL_I2C_Master_Seq_Transmit_DMA() then HAL_I2C_Master_Seq_Transmit_D
 111:Drivers/STM32F4xx_HAL_Driver/Src/stm32f4xx_hal_i2c.c ****       (++) I2C_NEXT_FRAME: Sequential usage, this option allow to manage a sequence with a restart 
 112:Drivers/STM32F4xx_HAL_Driver/Src/stm32f4xx_hal_i2c.c ****                             and with new data to transfer if the direction change or manage only th
 113:Drivers/STM32F4xx_HAL_Driver/Src/stm32f4xx_hal_i2c.c ****                             if no direction change and without a final stop condition in both cases
 114:Drivers/STM32F4xx_HAL_Driver/Src/stm32f4xx_hal_i2c.c ****       (++) I2C_LAST_FRAME: Sequential usage, this option allow to manage a sequance with a restart 
 115:Drivers/STM32F4xx_HAL_Driver/Src/stm32f4xx_hal_i2c.c ****                             and with new data to transfer if the direction change or manage only th
 116:Drivers/STM32F4xx_HAL_Driver/Src/stm32f4xx_hal_i2c.c ****                             if no direction change and with a final stop condition in both cases
 117:Drivers/STM32F4xx_HAL_Driver/Src/stm32f4xx_hal_i2c.c ****       (++) I2C_LAST_FRAME_NO_STOP: Sequential usage (Master only), this option allow to manage a re
 118:Drivers/STM32F4xx_HAL_Driver/Src/stm32f4xx_hal_i2c.c ****                             interface several times (link with option I2C_FIRST_AND_NEXT_FRAME).
 119:Drivers/STM32F4xx_HAL_Driver/Src/stm32f4xx_hal_i2c.c ****                             Usage can, transfer several bytes one by one using HAL_I2C_Master_Seq_T
 120:Drivers/STM32F4xx_HAL_Driver/Src/stm32f4xx_hal_i2c.c ****                               or HAL_I2C_Master_Seq_Receive_IT(option I2C_FIRST_AND_NEXT_FRAME then
 121:Drivers/STM32F4xx_HAL_Driver/Src/stm32f4xx_hal_i2c.c ****                               or HAL_I2C_Master_Seq_Transmit_DMA(option I2C_FIRST_AND_NEXT_FRAME th
 122:Drivers/STM32F4xx_HAL_Driver/Src/stm32f4xx_hal_i2c.c ****                               or HAL_I2C_Master_Seq_Receive_DMA(option I2C_FIRST_AND_NEXT_FRAME the
 123:Drivers/STM32F4xx_HAL_Driver/Src/stm32f4xx_hal_i2c.c ****                             Then usage of this option I2C_LAST_FRAME_NO_STOP at the last Transmit o
 124:Drivers/STM32F4xx_HAL_Driver/Src/stm32f4xx_hal_i2c.c ****                               without stopping the communication and so generate a restart conditio
 125:Drivers/STM32F4xx_HAL_Driver/Src/stm32f4xx_hal_i2c.c ****       (++) I2C_OTHER_FRAME: Sequential usage (Master only), this option allow to manage a restart c
 126:Drivers/STM32F4xx_HAL_Driver/Src/stm32f4xx_hal_i2c.c ****                             interface.
 127:Drivers/STM32F4xx_HAL_Driver/Src/stm32f4xx_hal_i2c.c ****                             Usage can, transfer several bytes one by one with a restart with slave 
 128:Drivers/STM32F4xx_HAL_Driver/Src/stm32f4xx_hal_i2c.c ****                               or HAL_I2C_Master_Seq_Receive_IT(option I2C_FIRST_FRAME then I2C_OTHE
 129:Drivers/STM32F4xx_HAL_Driver/Src/stm32f4xx_hal_i2c.c ****                               or HAL_I2C_Master_Seq_Transmit_DMA(option I2C_FIRST_FRAME then I2C_OT
 130:Drivers/STM32F4xx_HAL_Driver/Src/stm32f4xx_hal_i2c.c ****                               or HAL_I2C_Master_Seq_Receive_DMA(option I2C_FIRST_FRAME then I2C_OTH
 131:Drivers/STM32F4xx_HAL_Driver/Src/stm32f4xx_hal_i2c.c ****                             Then usage of this option I2C_OTHER_AND_LAST_FRAME at the last frame to
 132:Drivers/STM32F4xx_HAL_Driver/Src/stm32f4xx_hal_i2c.c **** 
 133:Drivers/STM32F4xx_HAL_Driver/Src/stm32f4xx_hal_i2c.c ****       (+) Different sequential I2C interfaces are listed below:
 134:Drivers/STM32F4xx_HAL_Driver/Src/stm32f4xx_hal_i2c.c ****       (++) Sequential transmit in master I2C mode an amount of data in non-blocking mode using HAL_
 135:Drivers/STM32F4xx_HAL_Driver/Src/stm32f4xx_hal_i2c.c ****             or using HAL_I2C_Master_Seq_Transmit_DMA()
 136:Drivers/STM32F4xx_HAL_Driver/Src/stm32f4xx_hal_i2c.c ****       (+++) At transmission end of current frame transfer, HAL_I2C_MasterTxCpltCallback() is execut
 137:Drivers/STM32F4xx_HAL_Driver/Src/stm32f4xx_hal_i2c.c ****            add his own code by customization of function pointer HAL_I2C_MasterTxCpltCallback()
 138:Drivers/STM32F4xx_HAL_Driver/Src/stm32f4xx_hal_i2c.c ****       (++) Sequential receive in master I2C mode an amount of data in non-blocking mode using HAL_I
 139:Drivers/STM32F4xx_HAL_Driver/Src/stm32f4xx_hal_i2c.c ****             or using HAL_I2C_Master_Seq_Receive_DMA()
 140:Drivers/STM32F4xx_HAL_Driver/Src/stm32f4xx_hal_i2c.c ****       (+++) At reception end of current frame transfer, HAL_I2C_MasterRxCpltCallback() is executed 
 141:Drivers/STM32F4xx_HAL_Driver/Src/stm32f4xx_hal_i2c.c ****            add his own code by customization of function pointer HAL_I2C_MasterRxCpltCallback()
 142:Drivers/STM32F4xx_HAL_Driver/Src/stm32f4xx_hal_i2c.c ****       (++) Abort a master or memory IT or DMA I2C process communication with Interrupt using HAL_I2
 143:Drivers/STM32F4xx_HAL_Driver/Src/stm32f4xx_hal_i2c.c ****       (+++) End of abort process, HAL_I2C_AbortCpltCallback() is executed and user can
 144:Drivers/STM32F4xx_HAL_Driver/Src/stm32f4xx_hal_i2c.c ****            add his own code by customization of function pointer HAL_I2C_AbortCpltCallback()
ARM GAS  C:\Users\Halil\AppData\Local\Temp\ccvukMBT.s 			page 4


 145:Drivers/STM32F4xx_HAL_Driver/Src/stm32f4xx_hal_i2c.c ****       (++) Enable/disable the Address listen mode in slave I2C mode using HAL_I2C_EnableListen_IT()
 146:Drivers/STM32F4xx_HAL_Driver/Src/stm32f4xx_hal_i2c.c ****       (+++) When address slave I2C match, HAL_I2C_AddrCallback() is executed and user can
 147:Drivers/STM32F4xx_HAL_Driver/Src/stm32f4xx_hal_i2c.c ****            add his own code to check the Address Match Code and the transmission direction request 
 148:Drivers/STM32F4xx_HAL_Driver/Src/stm32f4xx_hal_i2c.c ****       (+++) At Listen mode end HAL_I2C_ListenCpltCallback() is executed and user can
 149:Drivers/STM32F4xx_HAL_Driver/Src/stm32f4xx_hal_i2c.c ****            add his own code by customization of function pointer HAL_I2C_ListenCpltCallback()
 150:Drivers/STM32F4xx_HAL_Driver/Src/stm32f4xx_hal_i2c.c ****       (++) Sequential transmit in slave I2C mode an amount of data in non-blocking mode using HAL_I
 151:Drivers/STM32F4xx_HAL_Driver/Src/stm32f4xx_hal_i2c.c ****             or using HAL_I2C_Slave_Seq_Transmit_DMA()
 152:Drivers/STM32F4xx_HAL_Driver/Src/stm32f4xx_hal_i2c.c ****       (+++) At transmission end of current frame transfer, HAL_I2C_SlaveTxCpltCallback() is execute
 153:Drivers/STM32F4xx_HAL_Driver/Src/stm32f4xx_hal_i2c.c ****            add his own code by customization of function pointer HAL_I2C_SlaveTxCpltCallback()
 154:Drivers/STM32F4xx_HAL_Driver/Src/stm32f4xx_hal_i2c.c ****       (++) Sequential receive in slave I2C mode an amount of data in non-blocking mode using HAL_I2
 155:Drivers/STM32F4xx_HAL_Driver/Src/stm32f4xx_hal_i2c.c ****             or using HAL_I2C_Slave_Seq_Receive_DMA()
 156:Drivers/STM32F4xx_HAL_Driver/Src/stm32f4xx_hal_i2c.c ****       (+++) At reception end of current frame transfer, HAL_I2C_SlaveRxCpltCallback() is executed a
 157:Drivers/STM32F4xx_HAL_Driver/Src/stm32f4xx_hal_i2c.c ****            add his own code by customization of function pointer HAL_I2C_SlaveRxCpltCallback()
 158:Drivers/STM32F4xx_HAL_Driver/Src/stm32f4xx_hal_i2c.c ****       (++) In case of transfer Error, HAL_I2C_ErrorCallback() function is executed and user can
 159:Drivers/STM32F4xx_HAL_Driver/Src/stm32f4xx_hal_i2c.c ****            add his own code by customization of function pointer HAL_I2C_ErrorCallback()
 160:Drivers/STM32F4xx_HAL_Driver/Src/stm32f4xx_hal_i2c.c **** 
 161:Drivers/STM32F4xx_HAL_Driver/Src/stm32f4xx_hal_i2c.c ****     *** Interrupt mode IO MEM operation ***
 162:Drivers/STM32F4xx_HAL_Driver/Src/stm32f4xx_hal_i2c.c ****     =======================================
 163:Drivers/STM32F4xx_HAL_Driver/Src/stm32f4xx_hal_i2c.c ****     [..]
 164:Drivers/STM32F4xx_HAL_Driver/Src/stm32f4xx_hal_i2c.c ****       (+) Write an amount of data in non-blocking mode with Interrupt to a specific memory address 
 165:Drivers/STM32F4xx_HAL_Driver/Src/stm32f4xx_hal_i2c.c ****           HAL_I2C_Mem_Write_IT()
 166:Drivers/STM32F4xx_HAL_Driver/Src/stm32f4xx_hal_i2c.c ****       (+) At Memory end of write transfer, HAL_I2C_MemTxCpltCallback() is executed and user can
 167:Drivers/STM32F4xx_HAL_Driver/Src/stm32f4xx_hal_i2c.c ****            add his own code by customization of function pointer HAL_I2C_MemTxCpltCallback()
 168:Drivers/STM32F4xx_HAL_Driver/Src/stm32f4xx_hal_i2c.c ****       (+) Read an amount of data in non-blocking mode with Interrupt from a specific memory address
 169:Drivers/STM32F4xx_HAL_Driver/Src/stm32f4xx_hal_i2c.c ****           HAL_I2C_Mem_Read_IT()
 170:Drivers/STM32F4xx_HAL_Driver/Src/stm32f4xx_hal_i2c.c ****       (+) At Memory end of read transfer, HAL_I2C_MemRxCpltCallback() is executed and user can
 171:Drivers/STM32F4xx_HAL_Driver/Src/stm32f4xx_hal_i2c.c ****            add his own code by customization of function pointer HAL_I2C_MemRxCpltCallback()
 172:Drivers/STM32F4xx_HAL_Driver/Src/stm32f4xx_hal_i2c.c ****       (+) In case of transfer Error, HAL_I2C_ErrorCallback() function is executed and user can
 173:Drivers/STM32F4xx_HAL_Driver/Src/stm32f4xx_hal_i2c.c ****            add his own code by customization of function pointer HAL_I2C_ErrorCallback()
 174:Drivers/STM32F4xx_HAL_Driver/Src/stm32f4xx_hal_i2c.c **** 
 175:Drivers/STM32F4xx_HAL_Driver/Src/stm32f4xx_hal_i2c.c ****     *** DMA mode IO operation ***
 176:Drivers/STM32F4xx_HAL_Driver/Src/stm32f4xx_hal_i2c.c ****     ==============================
 177:Drivers/STM32F4xx_HAL_Driver/Src/stm32f4xx_hal_i2c.c ****     [..]
 178:Drivers/STM32F4xx_HAL_Driver/Src/stm32f4xx_hal_i2c.c ****       (+) Transmit in master mode an amount of data in non-blocking mode (DMA) using
 179:Drivers/STM32F4xx_HAL_Driver/Src/stm32f4xx_hal_i2c.c ****           HAL_I2C_Master_Transmit_DMA()
 180:Drivers/STM32F4xx_HAL_Driver/Src/stm32f4xx_hal_i2c.c ****       (+) At transmission end of transfer, HAL_I2C_MasterTxCpltCallback() is executed and user can
 181:Drivers/STM32F4xx_HAL_Driver/Src/stm32f4xx_hal_i2c.c ****            add his own code by customization of function pointer HAL_I2C_MasterTxCpltCallback()
 182:Drivers/STM32F4xx_HAL_Driver/Src/stm32f4xx_hal_i2c.c ****       (+) Receive in master mode an amount of data in non-blocking mode (DMA) using
 183:Drivers/STM32F4xx_HAL_Driver/Src/stm32f4xx_hal_i2c.c ****           HAL_I2C_Master_Receive_DMA()
 184:Drivers/STM32F4xx_HAL_Driver/Src/stm32f4xx_hal_i2c.c ****       (+) At reception end of transfer, HAL_I2C_MasterRxCpltCallback() is executed and user can
 185:Drivers/STM32F4xx_HAL_Driver/Src/stm32f4xx_hal_i2c.c ****            add his own code by customization of function pointer HAL_I2C_MasterRxCpltCallback()
 186:Drivers/STM32F4xx_HAL_Driver/Src/stm32f4xx_hal_i2c.c ****       (+) Transmit in slave mode an amount of data in non-blocking mode (DMA) using
 187:Drivers/STM32F4xx_HAL_Driver/Src/stm32f4xx_hal_i2c.c ****           HAL_I2C_Slave_Transmit_DMA()
 188:Drivers/STM32F4xx_HAL_Driver/Src/stm32f4xx_hal_i2c.c ****       (+) At transmission end of transfer, HAL_I2C_SlaveTxCpltCallback() is executed and user can
 189:Drivers/STM32F4xx_HAL_Driver/Src/stm32f4xx_hal_i2c.c ****            add his own code by customization of function pointer HAL_I2C_SlaveTxCpltCallback()
 190:Drivers/STM32F4xx_HAL_Driver/Src/stm32f4xx_hal_i2c.c ****       (+) Receive in slave mode an amount of data in non-blocking mode (DMA) using
 191:Drivers/STM32F4xx_HAL_Driver/Src/stm32f4xx_hal_i2c.c ****           HAL_I2C_Slave_Receive_DMA()
 192:Drivers/STM32F4xx_HAL_Driver/Src/stm32f4xx_hal_i2c.c ****       (+) At reception end of transfer, HAL_I2C_SlaveRxCpltCallback() is executed and user can
 193:Drivers/STM32F4xx_HAL_Driver/Src/stm32f4xx_hal_i2c.c ****            add his own code by customization of function pointer HAL_I2C_SlaveRxCpltCallback()
 194:Drivers/STM32F4xx_HAL_Driver/Src/stm32f4xx_hal_i2c.c ****       (+) In case of transfer Error, HAL_I2C_ErrorCallback() function is executed and user can
 195:Drivers/STM32F4xx_HAL_Driver/Src/stm32f4xx_hal_i2c.c ****            add his own code by customization of function pointer HAL_I2C_ErrorCallback()
 196:Drivers/STM32F4xx_HAL_Driver/Src/stm32f4xx_hal_i2c.c ****       (+) Abort a master or memory I2C process communication with Interrupt using HAL_I2C_Master_Ab
 197:Drivers/STM32F4xx_HAL_Driver/Src/stm32f4xx_hal_i2c.c ****       (+) End of abort process, HAL_I2C_AbortCpltCallback() is executed and user can
 198:Drivers/STM32F4xx_HAL_Driver/Src/stm32f4xx_hal_i2c.c ****            add his own code by customization of function pointer HAL_I2C_AbortCpltCallback()
 199:Drivers/STM32F4xx_HAL_Driver/Src/stm32f4xx_hal_i2c.c **** 
 200:Drivers/STM32F4xx_HAL_Driver/Src/stm32f4xx_hal_i2c.c ****     *** DMA mode IO MEM operation ***
 201:Drivers/STM32F4xx_HAL_Driver/Src/stm32f4xx_hal_i2c.c ****     =================================
ARM GAS  C:\Users\Halil\AppData\Local\Temp\ccvukMBT.s 			page 5


 202:Drivers/STM32F4xx_HAL_Driver/Src/stm32f4xx_hal_i2c.c ****     [..]
 203:Drivers/STM32F4xx_HAL_Driver/Src/stm32f4xx_hal_i2c.c ****       (+) Write an amount of data in non-blocking mode with DMA to a specific memory address using
 204:Drivers/STM32F4xx_HAL_Driver/Src/stm32f4xx_hal_i2c.c ****           HAL_I2C_Mem_Write_DMA()
 205:Drivers/STM32F4xx_HAL_Driver/Src/stm32f4xx_hal_i2c.c ****       (+) At Memory end of write transfer, HAL_I2C_MemTxCpltCallback() is executed and user can
 206:Drivers/STM32F4xx_HAL_Driver/Src/stm32f4xx_hal_i2c.c ****            add his own code by customization of function pointer HAL_I2C_MemTxCpltCallback()
 207:Drivers/STM32F4xx_HAL_Driver/Src/stm32f4xx_hal_i2c.c ****       (+) Read an amount of data in non-blocking mode with DMA from a specific memory address using
 208:Drivers/STM32F4xx_HAL_Driver/Src/stm32f4xx_hal_i2c.c ****           HAL_I2C_Mem_Read_DMA()
 209:Drivers/STM32F4xx_HAL_Driver/Src/stm32f4xx_hal_i2c.c ****       (+) At Memory end of read transfer, HAL_I2C_MemRxCpltCallback() is executed and user can
 210:Drivers/STM32F4xx_HAL_Driver/Src/stm32f4xx_hal_i2c.c ****            add his own code by customization of function pointer HAL_I2C_MemRxCpltCallback()
 211:Drivers/STM32F4xx_HAL_Driver/Src/stm32f4xx_hal_i2c.c ****       (+) In case of transfer Error, HAL_I2C_ErrorCallback() function is executed and user can
 212:Drivers/STM32F4xx_HAL_Driver/Src/stm32f4xx_hal_i2c.c ****            add his own code by customization of function pointer HAL_I2C_ErrorCallback()
 213:Drivers/STM32F4xx_HAL_Driver/Src/stm32f4xx_hal_i2c.c **** 
 214:Drivers/STM32F4xx_HAL_Driver/Src/stm32f4xx_hal_i2c.c **** 
 215:Drivers/STM32F4xx_HAL_Driver/Src/stm32f4xx_hal_i2c.c ****      *** I2C HAL driver macros list ***
 216:Drivers/STM32F4xx_HAL_Driver/Src/stm32f4xx_hal_i2c.c ****      ==================================
 217:Drivers/STM32F4xx_HAL_Driver/Src/stm32f4xx_hal_i2c.c ****      [..]
 218:Drivers/STM32F4xx_HAL_Driver/Src/stm32f4xx_hal_i2c.c ****        Below the list of most used macros in I2C HAL driver.
 219:Drivers/STM32F4xx_HAL_Driver/Src/stm32f4xx_hal_i2c.c **** 
 220:Drivers/STM32F4xx_HAL_Driver/Src/stm32f4xx_hal_i2c.c ****       (+) __HAL_I2C_ENABLE:     Enable the I2C peripheral
 221:Drivers/STM32F4xx_HAL_Driver/Src/stm32f4xx_hal_i2c.c ****       (+) __HAL_I2C_DISABLE:    Disable the I2C peripheral
 222:Drivers/STM32F4xx_HAL_Driver/Src/stm32f4xx_hal_i2c.c ****       (+) __HAL_I2C_GET_FLAG:   Checks whether the specified I2C flag is set or not
 223:Drivers/STM32F4xx_HAL_Driver/Src/stm32f4xx_hal_i2c.c ****       (+) __HAL_I2C_CLEAR_FLAG: Clear the specified I2C pending flag
 224:Drivers/STM32F4xx_HAL_Driver/Src/stm32f4xx_hal_i2c.c ****       (+) __HAL_I2C_ENABLE_IT:  Enable the specified I2C interrupt
 225:Drivers/STM32F4xx_HAL_Driver/Src/stm32f4xx_hal_i2c.c ****       (+) __HAL_I2C_DISABLE_IT: Disable the specified I2C interrupt
 226:Drivers/STM32F4xx_HAL_Driver/Src/stm32f4xx_hal_i2c.c **** 
 227:Drivers/STM32F4xx_HAL_Driver/Src/stm32f4xx_hal_i2c.c ****      *** Callback registration ***
 228:Drivers/STM32F4xx_HAL_Driver/Src/stm32f4xx_hal_i2c.c ****      =============================================
 229:Drivers/STM32F4xx_HAL_Driver/Src/stm32f4xx_hal_i2c.c ****     [..]
 230:Drivers/STM32F4xx_HAL_Driver/Src/stm32f4xx_hal_i2c.c ****      The compilation flag USE_HAL_I2C_REGISTER_CALLBACKS when set to 1
 231:Drivers/STM32F4xx_HAL_Driver/Src/stm32f4xx_hal_i2c.c ****      allows the user to configure dynamically the driver callbacks.
 232:Drivers/STM32F4xx_HAL_Driver/Src/stm32f4xx_hal_i2c.c ****      Use Functions HAL_I2C_RegisterCallback() or HAL_I2C_RegisterAddrCallback()
 233:Drivers/STM32F4xx_HAL_Driver/Src/stm32f4xx_hal_i2c.c ****      to register an interrupt callback.
 234:Drivers/STM32F4xx_HAL_Driver/Src/stm32f4xx_hal_i2c.c ****     [..]
 235:Drivers/STM32F4xx_HAL_Driver/Src/stm32f4xx_hal_i2c.c ****      Function HAL_I2C_RegisterCallback() allows to register following callbacks:
 236:Drivers/STM32F4xx_HAL_Driver/Src/stm32f4xx_hal_i2c.c ****        (+) MasterTxCpltCallback : callback for Master transmission end of transfer.
 237:Drivers/STM32F4xx_HAL_Driver/Src/stm32f4xx_hal_i2c.c ****        (+) MasterRxCpltCallback : callback for Master reception end of transfer.
 238:Drivers/STM32F4xx_HAL_Driver/Src/stm32f4xx_hal_i2c.c ****        (+) SlaveTxCpltCallback  : callback for Slave transmission end of transfer.
 239:Drivers/STM32F4xx_HAL_Driver/Src/stm32f4xx_hal_i2c.c ****        (+) SlaveRxCpltCallback  : callback for Slave reception end of transfer.
 240:Drivers/STM32F4xx_HAL_Driver/Src/stm32f4xx_hal_i2c.c ****        (+) ListenCpltCallback   : callback for end of listen mode.
 241:Drivers/STM32F4xx_HAL_Driver/Src/stm32f4xx_hal_i2c.c ****        (+) MemTxCpltCallback    : callback for Memory transmission end of transfer.
 242:Drivers/STM32F4xx_HAL_Driver/Src/stm32f4xx_hal_i2c.c ****        (+) MemRxCpltCallback    : callback for Memory reception end of transfer.
 243:Drivers/STM32F4xx_HAL_Driver/Src/stm32f4xx_hal_i2c.c ****        (+) ErrorCallback        : callback for error detection.
 244:Drivers/STM32F4xx_HAL_Driver/Src/stm32f4xx_hal_i2c.c ****        (+) AbortCpltCallback    : callback for abort completion process.
 245:Drivers/STM32F4xx_HAL_Driver/Src/stm32f4xx_hal_i2c.c ****        (+) MspInitCallback      : callback for Msp Init.
 246:Drivers/STM32F4xx_HAL_Driver/Src/stm32f4xx_hal_i2c.c ****        (+) MspDeInitCallback    : callback for Msp DeInit.
 247:Drivers/STM32F4xx_HAL_Driver/Src/stm32f4xx_hal_i2c.c ****      This function takes as parameters the HAL peripheral handle, the Callback ID
 248:Drivers/STM32F4xx_HAL_Driver/Src/stm32f4xx_hal_i2c.c ****      and a pointer to the user callback function.
 249:Drivers/STM32F4xx_HAL_Driver/Src/stm32f4xx_hal_i2c.c ****     [..]
 250:Drivers/STM32F4xx_HAL_Driver/Src/stm32f4xx_hal_i2c.c ****      For specific callback AddrCallback use dedicated register callbacks : HAL_I2C_RegisterAddrCall
 251:Drivers/STM32F4xx_HAL_Driver/Src/stm32f4xx_hal_i2c.c ****     [..]
 252:Drivers/STM32F4xx_HAL_Driver/Src/stm32f4xx_hal_i2c.c ****      Use function HAL_I2C_UnRegisterCallback to reset a callback to the default
 253:Drivers/STM32F4xx_HAL_Driver/Src/stm32f4xx_hal_i2c.c ****      weak function.
 254:Drivers/STM32F4xx_HAL_Driver/Src/stm32f4xx_hal_i2c.c ****      HAL_I2C_UnRegisterCallback takes as parameters the HAL peripheral handle,
 255:Drivers/STM32F4xx_HAL_Driver/Src/stm32f4xx_hal_i2c.c ****      and the Callback ID.
 256:Drivers/STM32F4xx_HAL_Driver/Src/stm32f4xx_hal_i2c.c ****      This function allows to reset following callbacks:
 257:Drivers/STM32F4xx_HAL_Driver/Src/stm32f4xx_hal_i2c.c ****        (+) MasterTxCpltCallback : callback for Master transmission end of transfer.
 258:Drivers/STM32F4xx_HAL_Driver/Src/stm32f4xx_hal_i2c.c ****        (+) MasterRxCpltCallback : callback for Master reception end of transfer.
ARM GAS  C:\Users\Halil\AppData\Local\Temp\ccvukMBT.s 			page 6


 259:Drivers/STM32F4xx_HAL_Driver/Src/stm32f4xx_hal_i2c.c ****        (+) SlaveTxCpltCallback  : callback for Slave transmission end of transfer.
 260:Drivers/STM32F4xx_HAL_Driver/Src/stm32f4xx_hal_i2c.c ****        (+) SlaveRxCpltCallback  : callback for Slave reception end of transfer.
 261:Drivers/STM32F4xx_HAL_Driver/Src/stm32f4xx_hal_i2c.c ****        (+) ListenCpltCallback   : callback for end of listen mode.
 262:Drivers/STM32F4xx_HAL_Driver/Src/stm32f4xx_hal_i2c.c ****        (+) MemTxCpltCallback    : callback for Memory transmission end of transfer.
 263:Drivers/STM32F4xx_HAL_Driver/Src/stm32f4xx_hal_i2c.c ****        (+) MemRxCpltCallback    : callback for Memory reception end of transfer.
 264:Drivers/STM32F4xx_HAL_Driver/Src/stm32f4xx_hal_i2c.c ****        (+) ErrorCallback        : callback for error detection.
 265:Drivers/STM32F4xx_HAL_Driver/Src/stm32f4xx_hal_i2c.c ****        (+) AbortCpltCallback    : callback for abort completion process.
 266:Drivers/STM32F4xx_HAL_Driver/Src/stm32f4xx_hal_i2c.c ****        (+) MspInitCallback      : callback for Msp Init.
 267:Drivers/STM32F4xx_HAL_Driver/Src/stm32f4xx_hal_i2c.c ****        (+) MspDeInitCallback    : callback for Msp DeInit.
 268:Drivers/STM32F4xx_HAL_Driver/Src/stm32f4xx_hal_i2c.c ****     [..]
 269:Drivers/STM32F4xx_HAL_Driver/Src/stm32f4xx_hal_i2c.c ****      For callback AddrCallback use dedicated register callbacks : HAL_I2C_UnRegisterAddrCallback().
 270:Drivers/STM32F4xx_HAL_Driver/Src/stm32f4xx_hal_i2c.c ****     [..]
 271:Drivers/STM32F4xx_HAL_Driver/Src/stm32f4xx_hal_i2c.c ****      By default, after the HAL_I2C_Init() and when the state is HAL_I2C_STATE_RESET
 272:Drivers/STM32F4xx_HAL_Driver/Src/stm32f4xx_hal_i2c.c ****      all callbacks are set to the corresponding weak functions:
 273:Drivers/STM32F4xx_HAL_Driver/Src/stm32f4xx_hal_i2c.c ****      examples HAL_I2C_MasterTxCpltCallback(), HAL_I2C_MasterRxCpltCallback().
 274:Drivers/STM32F4xx_HAL_Driver/Src/stm32f4xx_hal_i2c.c ****      Exception done for MspInit and MspDeInit functions that are
 275:Drivers/STM32F4xx_HAL_Driver/Src/stm32f4xx_hal_i2c.c ****      reset to the legacy weak functions in the HAL_I2C_Init()/ HAL_I2C_DeInit() only when
 276:Drivers/STM32F4xx_HAL_Driver/Src/stm32f4xx_hal_i2c.c ****      these callbacks are null (not registered beforehand).
 277:Drivers/STM32F4xx_HAL_Driver/Src/stm32f4xx_hal_i2c.c ****      If MspInit or MspDeInit are not null, the HAL_I2C_Init()/ HAL_I2C_DeInit()
 278:Drivers/STM32F4xx_HAL_Driver/Src/stm32f4xx_hal_i2c.c ****      keep and use the user MspInit/MspDeInit callbacks (registered beforehand) whatever the state.
 279:Drivers/STM32F4xx_HAL_Driver/Src/stm32f4xx_hal_i2c.c ****     [..]
 280:Drivers/STM32F4xx_HAL_Driver/Src/stm32f4xx_hal_i2c.c ****      Callbacks can be registered/unregistered in HAL_I2C_STATE_READY state only.
 281:Drivers/STM32F4xx_HAL_Driver/Src/stm32f4xx_hal_i2c.c ****      Exception done MspInit/MspDeInit functions that can be registered/unregistered
 282:Drivers/STM32F4xx_HAL_Driver/Src/stm32f4xx_hal_i2c.c ****      in HAL_I2C_STATE_READY or HAL_I2C_STATE_RESET state,
 283:Drivers/STM32F4xx_HAL_Driver/Src/stm32f4xx_hal_i2c.c ****      thus registered (user) MspInit/DeInit callbacks can be used during the Init/DeInit.
 284:Drivers/STM32F4xx_HAL_Driver/Src/stm32f4xx_hal_i2c.c ****      Then, the user first registers the MspInit/MspDeInit user callbacks
 285:Drivers/STM32F4xx_HAL_Driver/Src/stm32f4xx_hal_i2c.c ****      using HAL_I2C_RegisterCallback() before calling HAL_I2C_DeInit()
 286:Drivers/STM32F4xx_HAL_Driver/Src/stm32f4xx_hal_i2c.c ****      or HAL_I2C_Init() function.
 287:Drivers/STM32F4xx_HAL_Driver/Src/stm32f4xx_hal_i2c.c ****     [..]
 288:Drivers/STM32F4xx_HAL_Driver/Src/stm32f4xx_hal_i2c.c ****      When the compilation flag USE_HAL_I2C_REGISTER_CALLBACKS is set to 0 or
 289:Drivers/STM32F4xx_HAL_Driver/Src/stm32f4xx_hal_i2c.c ****      not defined, the callback registration feature is not available and all callbacks
 290:Drivers/STM32F4xx_HAL_Driver/Src/stm32f4xx_hal_i2c.c ****      are set to the corresponding weak functions.
 291:Drivers/STM32F4xx_HAL_Driver/Src/stm32f4xx_hal_i2c.c **** 
 292:Drivers/STM32F4xx_HAL_Driver/Src/stm32f4xx_hal_i2c.c **** 
 293:Drivers/STM32F4xx_HAL_Driver/Src/stm32f4xx_hal_i2c.c **** 
 294:Drivers/STM32F4xx_HAL_Driver/Src/stm32f4xx_hal_i2c.c ****      [..]
 295:Drivers/STM32F4xx_HAL_Driver/Src/stm32f4xx_hal_i2c.c ****        (@) You can refer to the I2C HAL driver header file for more useful macros
 296:Drivers/STM32F4xx_HAL_Driver/Src/stm32f4xx_hal_i2c.c **** 
 297:Drivers/STM32F4xx_HAL_Driver/Src/stm32f4xx_hal_i2c.c ****   @endverbatim
 298:Drivers/STM32F4xx_HAL_Driver/Src/stm32f4xx_hal_i2c.c ****   */
 299:Drivers/STM32F4xx_HAL_Driver/Src/stm32f4xx_hal_i2c.c **** 
 300:Drivers/STM32F4xx_HAL_Driver/Src/stm32f4xx_hal_i2c.c **** /* Includes ------------------------------------------------------------------*/
 301:Drivers/STM32F4xx_HAL_Driver/Src/stm32f4xx_hal_i2c.c **** #include "stm32f4xx_hal.h"
 302:Drivers/STM32F4xx_HAL_Driver/Src/stm32f4xx_hal_i2c.c **** 
 303:Drivers/STM32F4xx_HAL_Driver/Src/stm32f4xx_hal_i2c.c **** /** @addtogroup STM32F4xx_HAL_Driver
 304:Drivers/STM32F4xx_HAL_Driver/Src/stm32f4xx_hal_i2c.c ****   * @{
 305:Drivers/STM32F4xx_HAL_Driver/Src/stm32f4xx_hal_i2c.c ****   */
 306:Drivers/STM32F4xx_HAL_Driver/Src/stm32f4xx_hal_i2c.c **** 
 307:Drivers/STM32F4xx_HAL_Driver/Src/stm32f4xx_hal_i2c.c **** /** @defgroup I2C I2C
 308:Drivers/STM32F4xx_HAL_Driver/Src/stm32f4xx_hal_i2c.c ****   * @brief I2C HAL module driver
 309:Drivers/STM32F4xx_HAL_Driver/Src/stm32f4xx_hal_i2c.c ****   * @{
 310:Drivers/STM32F4xx_HAL_Driver/Src/stm32f4xx_hal_i2c.c ****   */
 311:Drivers/STM32F4xx_HAL_Driver/Src/stm32f4xx_hal_i2c.c **** 
 312:Drivers/STM32F4xx_HAL_Driver/Src/stm32f4xx_hal_i2c.c **** #ifdef HAL_I2C_MODULE_ENABLED
 313:Drivers/STM32F4xx_HAL_Driver/Src/stm32f4xx_hal_i2c.c **** 
 314:Drivers/STM32F4xx_HAL_Driver/Src/stm32f4xx_hal_i2c.c **** /* Private typedef -----------------------------------------------------------*/
 315:Drivers/STM32F4xx_HAL_Driver/Src/stm32f4xx_hal_i2c.c **** /* Private define ------------------------------------------------------------*/
ARM GAS  C:\Users\Halil\AppData\Local\Temp\ccvukMBT.s 			page 7


 316:Drivers/STM32F4xx_HAL_Driver/Src/stm32f4xx_hal_i2c.c **** /** @defgroup I2C_Private_Define I2C Private Define
 317:Drivers/STM32F4xx_HAL_Driver/Src/stm32f4xx_hal_i2c.c ****   * @{
 318:Drivers/STM32F4xx_HAL_Driver/Src/stm32f4xx_hal_i2c.c ****   */
 319:Drivers/STM32F4xx_HAL_Driver/Src/stm32f4xx_hal_i2c.c **** #define I2C_TIMEOUT_FLAG          35U         /*!< Timeout 35 ms             */
 320:Drivers/STM32F4xx_HAL_Driver/Src/stm32f4xx_hal_i2c.c **** #define I2C_TIMEOUT_BUSY_FLAG     25U         /*!< Timeout 25 ms             */
 321:Drivers/STM32F4xx_HAL_Driver/Src/stm32f4xx_hal_i2c.c **** #define I2C_TIMEOUT_STOP_FLAG     5U          /*!< Timeout 5 ms              */
 322:Drivers/STM32F4xx_HAL_Driver/Src/stm32f4xx_hal_i2c.c **** #define I2C_NO_OPTION_FRAME       0xFFFF0000U /*!< XferOptions default value */
 323:Drivers/STM32F4xx_HAL_Driver/Src/stm32f4xx_hal_i2c.c **** 
 324:Drivers/STM32F4xx_HAL_Driver/Src/stm32f4xx_hal_i2c.c **** /* Private define for @ref PreviousState usage */
 325:Drivers/STM32F4xx_HAL_Driver/Src/stm32f4xx_hal_i2c.c **** #define I2C_STATE_MSK             ((uint32_t)((uint32_t)((uint32_t)HAL_I2C_STATE_BUSY_TX | (uint32_
 326:Drivers/STM32F4xx_HAL_Driver/Src/stm32f4xx_hal_i2c.c **** #define I2C_STATE_NONE            ((uint32_t)(HAL_I2C_MODE_NONE))                                  
 327:Drivers/STM32F4xx_HAL_Driver/Src/stm32f4xx_hal_i2c.c **** #define I2C_STATE_MASTER_BUSY_TX  ((uint32_t)(((uint32_t)HAL_I2C_STATE_BUSY_TX & I2C_STATE_MSK) | (
 328:Drivers/STM32F4xx_HAL_Driver/Src/stm32f4xx_hal_i2c.c **** #define I2C_STATE_MASTER_BUSY_RX  ((uint32_t)(((uint32_t)HAL_I2C_STATE_BUSY_RX & I2C_STATE_MSK) | (
 329:Drivers/STM32F4xx_HAL_Driver/Src/stm32f4xx_hal_i2c.c **** #define I2C_STATE_SLAVE_BUSY_TX   ((uint32_t)(((uint32_t)HAL_I2C_STATE_BUSY_TX & I2C_STATE_MSK) | (
 330:Drivers/STM32F4xx_HAL_Driver/Src/stm32f4xx_hal_i2c.c **** #define I2C_STATE_SLAVE_BUSY_RX   ((uint32_t)(((uint32_t)HAL_I2C_STATE_BUSY_RX & I2C_STATE_MSK) | (
 331:Drivers/STM32F4xx_HAL_Driver/Src/stm32f4xx_hal_i2c.c **** 
 332:Drivers/STM32F4xx_HAL_Driver/Src/stm32f4xx_hal_i2c.c **** /**
 333:Drivers/STM32F4xx_HAL_Driver/Src/stm32f4xx_hal_i2c.c ****   * @}
 334:Drivers/STM32F4xx_HAL_Driver/Src/stm32f4xx_hal_i2c.c ****   */
 335:Drivers/STM32F4xx_HAL_Driver/Src/stm32f4xx_hal_i2c.c **** 
 336:Drivers/STM32F4xx_HAL_Driver/Src/stm32f4xx_hal_i2c.c **** /* Private macro -------------------------------------------------------------*/
 337:Drivers/STM32F4xx_HAL_Driver/Src/stm32f4xx_hal_i2c.c **** /** @addtogroup I2C_Private_Macros
 338:Drivers/STM32F4xx_HAL_Driver/Src/stm32f4xx_hal_i2c.c ****   * @{
 339:Drivers/STM32F4xx_HAL_Driver/Src/stm32f4xx_hal_i2c.c ****   */
 340:Drivers/STM32F4xx_HAL_Driver/Src/stm32f4xx_hal_i2c.c **** /* Macro to get remaining data to transfer on DMA side */
 341:Drivers/STM32F4xx_HAL_Driver/Src/stm32f4xx_hal_i2c.c **** #define I2C_GET_DMA_REMAIN_DATA(__HANDLE__)     __HAL_DMA_GET_COUNTER(__HANDLE__)
 342:Drivers/STM32F4xx_HAL_Driver/Src/stm32f4xx_hal_i2c.c **** /**
 343:Drivers/STM32F4xx_HAL_Driver/Src/stm32f4xx_hal_i2c.c ****   * @}
 344:Drivers/STM32F4xx_HAL_Driver/Src/stm32f4xx_hal_i2c.c ****   */
 345:Drivers/STM32F4xx_HAL_Driver/Src/stm32f4xx_hal_i2c.c **** /* Private variables ---------------------------------------------------------*/
 346:Drivers/STM32F4xx_HAL_Driver/Src/stm32f4xx_hal_i2c.c **** /* Private function prototypes -----------------------------------------------*/
 347:Drivers/STM32F4xx_HAL_Driver/Src/stm32f4xx_hal_i2c.c **** 
 348:Drivers/STM32F4xx_HAL_Driver/Src/stm32f4xx_hal_i2c.c **** /** @defgroup I2C_Private_Functions I2C Private Functions
 349:Drivers/STM32F4xx_HAL_Driver/Src/stm32f4xx_hal_i2c.c ****   * @{
 350:Drivers/STM32F4xx_HAL_Driver/Src/stm32f4xx_hal_i2c.c ****   */
 351:Drivers/STM32F4xx_HAL_Driver/Src/stm32f4xx_hal_i2c.c **** /* Private functions to handle DMA transfer */
 352:Drivers/STM32F4xx_HAL_Driver/Src/stm32f4xx_hal_i2c.c **** static void I2C_DMAXferCplt(DMA_HandleTypeDef *hdma);
 353:Drivers/STM32F4xx_HAL_Driver/Src/stm32f4xx_hal_i2c.c **** static void I2C_DMAError(DMA_HandleTypeDef *hdma);
 354:Drivers/STM32F4xx_HAL_Driver/Src/stm32f4xx_hal_i2c.c **** static void I2C_DMAAbort(DMA_HandleTypeDef *hdma);
 355:Drivers/STM32F4xx_HAL_Driver/Src/stm32f4xx_hal_i2c.c **** 
 356:Drivers/STM32F4xx_HAL_Driver/Src/stm32f4xx_hal_i2c.c **** static void I2C_ITError(I2C_HandleTypeDef *hi2c);
 357:Drivers/STM32F4xx_HAL_Driver/Src/stm32f4xx_hal_i2c.c **** 
 358:Drivers/STM32F4xx_HAL_Driver/Src/stm32f4xx_hal_i2c.c **** static HAL_StatusTypeDef I2C_MasterRequestWrite(I2C_HandleTypeDef *hi2c, uint16_t DevAddress, uint3
 359:Drivers/STM32F4xx_HAL_Driver/Src/stm32f4xx_hal_i2c.c **** static HAL_StatusTypeDef I2C_MasterRequestRead(I2C_HandleTypeDef *hi2c, uint16_t DevAddress, uint32
 360:Drivers/STM32F4xx_HAL_Driver/Src/stm32f4xx_hal_i2c.c **** static HAL_StatusTypeDef I2C_RequestMemoryWrite(I2C_HandleTypeDef *hi2c, uint16_t DevAddress, uint1
 361:Drivers/STM32F4xx_HAL_Driver/Src/stm32f4xx_hal_i2c.c **** static HAL_StatusTypeDef I2C_RequestMemoryRead(I2C_HandleTypeDef *hi2c, uint16_t DevAddress, uint16
 362:Drivers/STM32F4xx_HAL_Driver/Src/stm32f4xx_hal_i2c.c **** 
 363:Drivers/STM32F4xx_HAL_Driver/Src/stm32f4xx_hal_i2c.c **** /* Private functions to handle flags during polling transfer */
 364:Drivers/STM32F4xx_HAL_Driver/Src/stm32f4xx_hal_i2c.c **** static HAL_StatusTypeDef I2C_WaitOnFlagUntilTimeout(I2C_HandleTypeDef *hi2c, uint32_t Flag, FlagSta
 365:Drivers/STM32F4xx_HAL_Driver/Src/stm32f4xx_hal_i2c.c **** static HAL_StatusTypeDef I2C_WaitOnMasterAddressFlagUntilTimeout(I2C_HandleTypeDef *hi2c, uint32_t 
 366:Drivers/STM32F4xx_HAL_Driver/Src/stm32f4xx_hal_i2c.c **** static HAL_StatusTypeDef I2C_WaitOnTXEFlagUntilTimeout(I2C_HandleTypeDef *hi2c, uint32_t Timeout, u
 367:Drivers/STM32F4xx_HAL_Driver/Src/stm32f4xx_hal_i2c.c **** static HAL_StatusTypeDef I2C_WaitOnBTFFlagUntilTimeout(I2C_HandleTypeDef *hi2c, uint32_t Timeout, u
 368:Drivers/STM32F4xx_HAL_Driver/Src/stm32f4xx_hal_i2c.c **** static HAL_StatusTypeDef I2C_WaitOnRXNEFlagUntilTimeout(I2C_HandleTypeDef *hi2c, uint32_t Timeout, 
 369:Drivers/STM32F4xx_HAL_Driver/Src/stm32f4xx_hal_i2c.c **** static HAL_StatusTypeDef I2C_WaitOnSTOPFlagUntilTimeout(I2C_HandleTypeDef *hi2c, uint32_t Timeout, 
 370:Drivers/STM32F4xx_HAL_Driver/Src/stm32f4xx_hal_i2c.c **** static HAL_StatusTypeDef I2C_WaitOnSTOPRequestThroughIT(I2C_HandleTypeDef *hi2c);
 371:Drivers/STM32F4xx_HAL_Driver/Src/stm32f4xx_hal_i2c.c **** static HAL_StatusTypeDef I2C_IsAcknowledgeFailed(I2C_HandleTypeDef *hi2c);
 372:Drivers/STM32F4xx_HAL_Driver/Src/stm32f4xx_hal_i2c.c **** 
ARM GAS  C:\Users\Halil\AppData\Local\Temp\ccvukMBT.s 			page 8


 373:Drivers/STM32F4xx_HAL_Driver/Src/stm32f4xx_hal_i2c.c **** /* Private functions for I2C transfer IRQ handler */
 374:Drivers/STM32F4xx_HAL_Driver/Src/stm32f4xx_hal_i2c.c **** static void I2C_MasterTransmit_TXE(I2C_HandleTypeDef *hi2c);
 375:Drivers/STM32F4xx_HAL_Driver/Src/stm32f4xx_hal_i2c.c **** static void I2C_MasterTransmit_BTF(I2C_HandleTypeDef *hi2c);
 376:Drivers/STM32F4xx_HAL_Driver/Src/stm32f4xx_hal_i2c.c **** static void I2C_MasterReceive_RXNE(I2C_HandleTypeDef *hi2c);
 377:Drivers/STM32F4xx_HAL_Driver/Src/stm32f4xx_hal_i2c.c **** static void I2C_MasterReceive_BTF(I2C_HandleTypeDef *hi2c);
 378:Drivers/STM32F4xx_HAL_Driver/Src/stm32f4xx_hal_i2c.c **** static void I2C_Master_SB(I2C_HandleTypeDef *hi2c);
 379:Drivers/STM32F4xx_HAL_Driver/Src/stm32f4xx_hal_i2c.c **** static void I2C_Master_ADD10(I2C_HandleTypeDef *hi2c);
 380:Drivers/STM32F4xx_HAL_Driver/Src/stm32f4xx_hal_i2c.c **** static void I2C_Master_ADDR(I2C_HandleTypeDef *hi2c);
 381:Drivers/STM32F4xx_HAL_Driver/Src/stm32f4xx_hal_i2c.c **** 
 382:Drivers/STM32F4xx_HAL_Driver/Src/stm32f4xx_hal_i2c.c **** static void I2C_SlaveTransmit_TXE(I2C_HandleTypeDef *hi2c);
 383:Drivers/STM32F4xx_HAL_Driver/Src/stm32f4xx_hal_i2c.c **** static void I2C_SlaveTransmit_BTF(I2C_HandleTypeDef *hi2c);
 384:Drivers/STM32F4xx_HAL_Driver/Src/stm32f4xx_hal_i2c.c **** static void I2C_SlaveReceive_RXNE(I2C_HandleTypeDef *hi2c);
 385:Drivers/STM32F4xx_HAL_Driver/Src/stm32f4xx_hal_i2c.c **** static void I2C_SlaveReceive_BTF(I2C_HandleTypeDef *hi2c);
 386:Drivers/STM32F4xx_HAL_Driver/Src/stm32f4xx_hal_i2c.c **** static void I2C_Slave_ADDR(I2C_HandleTypeDef *hi2c, uint32_t IT2Flags);
 387:Drivers/STM32F4xx_HAL_Driver/Src/stm32f4xx_hal_i2c.c **** static void I2C_Slave_STOPF(I2C_HandleTypeDef *hi2c);
 388:Drivers/STM32F4xx_HAL_Driver/Src/stm32f4xx_hal_i2c.c **** static void I2C_Slave_AF(I2C_HandleTypeDef *hi2c);
 389:Drivers/STM32F4xx_HAL_Driver/Src/stm32f4xx_hal_i2c.c **** 
 390:Drivers/STM32F4xx_HAL_Driver/Src/stm32f4xx_hal_i2c.c **** static void I2C_MemoryTransmit_TXE_BTF(I2C_HandleTypeDef *hi2c);
 391:Drivers/STM32F4xx_HAL_Driver/Src/stm32f4xx_hal_i2c.c **** 
 392:Drivers/STM32F4xx_HAL_Driver/Src/stm32f4xx_hal_i2c.c **** /* Private function to Convert Specific options */
 393:Drivers/STM32F4xx_HAL_Driver/Src/stm32f4xx_hal_i2c.c **** static void I2C_ConvertOtherXferOptions(I2C_HandleTypeDef *hi2c);
 394:Drivers/STM32F4xx_HAL_Driver/Src/stm32f4xx_hal_i2c.c **** 
 395:Drivers/STM32F4xx_HAL_Driver/Src/stm32f4xx_hal_i2c.c **** /* Private function to flush DR register */
 396:Drivers/STM32F4xx_HAL_Driver/Src/stm32f4xx_hal_i2c.c **** static void I2C_Flush_DR(I2C_HandleTypeDef *hi2c);
 397:Drivers/STM32F4xx_HAL_Driver/Src/stm32f4xx_hal_i2c.c **** /**
 398:Drivers/STM32F4xx_HAL_Driver/Src/stm32f4xx_hal_i2c.c ****   * @}
 399:Drivers/STM32F4xx_HAL_Driver/Src/stm32f4xx_hal_i2c.c ****   */
 400:Drivers/STM32F4xx_HAL_Driver/Src/stm32f4xx_hal_i2c.c **** 
 401:Drivers/STM32F4xx_HAL_Driver/Src/stm32f4xx_hal_i2c.c **** /* Exported functions --------------------------------------------------------*/
 402:Drivers/STM32F4xx_HAL_Driver/Src/stm32f4xx_hal_i2c.c **** 
 403:Drivers/STM32F4xx_HAL_Driver/Src/stm32f4xx_hal_i2c.c **** /** @defgroup I2C_Exported_Functions I2C Exported Functions
 404:Drivers/STM32F4xx_HAL_Driver/Src/stm32f4xx_hal_i2c.c ****   * @{
 405:Drivers/STM32F4xx_HAL_Driver/Src/stm32f4xx_hal_i2c.c ****   */
 406:Drivers/STM32F4xx_HAL_Driver/Src/stm32f4xx_hal_i2c.c **** 
 407:Drivers/STM32F4xx_HAL_Driver/Src/stm32f4xx_hal_i2c.c **** /** @defgroup I2C_Exported_Functions_Group1 Initialization and de-initialization functions
 408:Drivers/STM32F4xx_HAL_Driver/Src/stm32f4xx_hal_i2c.c ****  *  @brief    Initialization and Configuration functions
 409:Drivers/STM32F4xx_HAL_Driver/Src/stm32f4xx_hal_i2c.c ****  *
 410:Drivers/STM32F4xx_HAL_Driver/Src/stm32f4xx_hal_i2c.c **** @verbatim
 411:Drivers/STM32F4xx_HAL_Driver/Src/stm32f4xx_hal_i2c.c ****  ===============================================================================
 412:Drivers/STM32F4xx_HAL_Driver/Src/stm32f4xx_hal_i2c.c ****               ##### Initialization and de-initialization functions #####
 413:Drivers/STM32F4xx_HAL_Driver/Src/stm32f4xx_hal_i2c.c ****  ===============================================================================
 414:Drivers/STM32F4xx_HAL_Driver/Src/stm32f4xx_hal_i2c.c ****     [..]  This subsection provides a set of functions allowing to initialize and
 415:Drivers/STM32F4xx_HAL_Driver/Src/stm32f4xx_hal_i2c.c ****           deinitialize the I2Cx peripheral:
 416:Drivers/STM32F4xx_HAL_Driver/Src/stm32f4xx_hal_i2c.c **** 
 417:Drivers/STM32F4xx_HAL_Driver/Src/stm32f4xx_hal_i2c.c ****       (+) User must Implement HAL_I2C_MspInit() function in which he configures
 418:Drivers/STM32F4xx_HAL_Driver/Src/stm32f4xx_hal_i2c.c ****           all related peripherals resources (CLOCK, GPIO, DMA, IT and NVIC).
 419:Drivers/STM32F4xx_HAL_Driver/Src/stm32f4xx_hal_i2c.c **** 
 420:Drivers/STM32F4xx_HAL_Driver/Src/stm32f4xx_hal_i2c.c ****       (+) Call the function HAL_I2C_Init() to configure the selected device with
 421:Drivers/STM32F4xx_HAL_Driver/Src/stm32f4xx_hal_i2c.c ****           the selected configuration:
 422:Drivers/STM32F4xx_HAL_Driver/Src/stm32f4xx_hal_i2c.c ****         (++) Communication Speed
 423:Drivers/STM32F4xx_HAL_Driver/Src/stm32f4xx_hal_i2c.c ****         (++) Duty cycle
 424:Drivers/STM32F4xx_HAL_Driver/Src/stm32f4xx_hal_i2c.c ****         (++) Addressing mode
 425:Drivers/STM32F4xx_HAL_Driver/Src/stm32f4xx_hal_i2c.c ****         (++) Own Address 1
 426:Drivers/STM32F4xx_HAL_Driver/Src/stm32f4xx_hal_i2c.c ****         (++) Dual Addressing mode
 427:Drivers/STM32F4xx_HAL_Driver/Src/stm32f4xx_hal_i2c.c ****         (++) Own Address 2
 428:Drivers/STM32F4xx_HAL_Driver/Src/stm32f4xx_hal_i2c.c ****         (++) General call mode
 429:Drivers/STM32F4xx_HAL_Driver/Src/stm32f4xx_hal_i2c.c ****         (++) Nostretch mode
ARM GAS  C:\Users\Halil\AppData\Local\Temp\ccvukMBT.s 			page 9


 430:Drivers/STM32F4xx_HAL_Driver/Src/stm32f4xx_hal_i2c.c **** 
 431:Drivers/STM32F4xx_HAL_Driver/Src/stm32f4xx_hal_i2c.c ****       (+) Call the function HAL_I2C_DeInit() to restore the default configuration
 432:Drivers/STM32F4xx_HAL_Driver/Src/stm32f4xx_hal_i2c.c ****           of the selected I2Cx peripheral.
 433:Drivers/STM32F4xx_HAL_Driver/Src/stm32f4xx_hal_i2c.c **** 
 434:Drivers/STM32F4xx_HAL_Driver/Src/stm32f4xx_hal_i2c.c **** @endverbatim
 435:Drivers/STM32F4xx_HAL_Driver/Src/stm32f4xx_hal_i2c.c ****   * @{
 436:Drivers/STM32F4xx_HAL_Driver/Src/stm32f4xx_hal_i2c.c ****   */
 437:Drivers/STM32F4xx_HAL_Driver/Src/stm32f4xx_hal_i2c.c **** 
 438:Drivers/STM32F4xx_HAL_Driver/Src/stm32f4xx_hal_i2c.c **** /**
 439:Drivers/STM32F4xx_HAL_Driver/Src/stm32f4xx_hal_i2c.c ****   * @brief  Initializes the I2C according to the specified parameters
 440:Drivers/STM32F4xx_HAL_Driver/Src/stm32f4xx_hal_i2c.c ****   *         in the I2C_InitTypeDef and initialize the associated handle.
 441:Drivers/STM32F4xx_HAL_Driver/Src/stm32f4xx_hal_i2c.c ****   * @param  hi2c Pointer to a I2C_HandleTypeDef structure that contains
 442:Drivers/STM32F4xx_HAL_Driver/Src/stm32f4xx_hal_i2c.c ****   *                the configuration information for the specified I2C.
 443:Drivers/STM32F4xx_HAL_Driver/Src/stm32f4xx_hal_i2c.c ****   * @retval HAL status
 444:Drivers/STM32F4xx_HAL_Driver/Src/stm32f4xx_hal_i2c.c ****   */
 445:Drivers/STM32F4xx_HAL_Driver/Src/stm32f4xx_hal_i2c.c **** HAL_StatusTypeDef HAL_I2C_Init(I2C_HandleTypeDef *hi2c)
 446:Drivers/STM32F4xx_HAL_Driver/Src/stm32f4xx_hal_i2c.c **** {
  29              		.loc 1 446 1
  30              		.cfi_startproc
  31              		@ args = 0, pretend = 0, frame = 16
  32              		@ frame_needed = 1, uses_anonymous_args = 0
  33 0000 80B5     		push	{r7, lr}
  34              		.cfi_def_cfa_offset 8
  35              		.cfi_offset 7, -8
  36              		.cfi_offset 14, -4
  37 0002 84B0     		sub	sp, sp, #16
  38              		.cfi_def_cfa_offset 24
  39 0004 00AF     		add	r7, sp, #0
  40              		.cfi_def_cfa_register 7
  41 0006 7860     		str	r0, [r7, #4]
 447:Drivers/STM32F4xx_HAL_Driver/Src/stm32f4xx_hal_i2c.c ****   uint32_t freqrange;
 448:Drivers/STM32F4xx_HAL_Driver/Src/stm32f4xx_hal_i2c.c ****   uint32_t pclk1;
 449:Drivers/STM32F4xx_HAL_Driver/Src/stm32f4xx_hal_i2c.c **** 
 450:Drivers/STM32F4xx_HAL_Driver/Src/stm32f4xx_hal_i2c.c ****   /* Check the I2C handle allocation */
 451:Drivers/STM32F4xx_HAL_Driver/Src/stm32f4xx_hal_i2c.c ****   if (hi2c == NULL)
  42              		.loc 1 451 6
  43 0008 7B68     		ldr	r3, [r7, #4]
  44 000a 002B     		cmp	r3, #0
  45 000c 01D1     		bne	.L2
 452:Drivers/STM32F4xx_HAL_Driver/Src/stm32f4xx_hal_i2c.c ****   {
 453:Drivers/STM32F4xx_HAL_Driver/Src/stm32f4xx_hal_i2c.c ****     return HAL_ERROR;
  46              		.loc 1 453 12
  47 000e 0123     		movs	r3, #1
  48 0010 2BE1     		b	.L3
  49              	.L2:
 454:Drivers/STM32F4xx_HAL_Driver/Src/stm32f4xx_hal_i2c.c ****   }
 455:Drivers/STM32F4xx_HAL_Driver/Src/stm32f4xx_hal_i2c.c **** 
 456:Drivers/STM32F4xx_HAL_Driver/Src/stm32f4xx_hal_i2c.c ****   /* Check the parameters */
 457:Drivers/STM32F4xx_HAL_Driver/Src/stm32f4xx_hal_i2c.c ****   assert_param(IS_I2C_ALL_INSTANCE(hi2c->Instance));
 458:Drivers/STM32F4xx_HAL_Driver/Src/stm32f4xx_hal_i2c.c ****   assert_param(IS_I2C_CLOCK_SPEED(hi2c->Init.ClockSpeed));
 459:Drivers/STM32F4xx_HAL_Driver/Src/stm32f4xx_hal_i2c.c ****   assert_param(IS_I2C_DUTY_CYCLE(hi2c->Init.DutyCycle));
 460:Drivers/STM32F4xx_HAL_Driver/Src/stm32f4xx_hal_i2c.c ****   assert_param(IS_I2C_OWN_ADDRESS1(hi2c->Init.OwnAddress1));
 461:Drivers/STM32F4xx_HAL_Driver/Src/stm32f4xx_hal_i2c.c ****   assert_param(IS_I2C_ADDRESSING_MODE(hi2c->Init.AddressingMode));
 462:Drivers/STM32F4xx_HAL_Driver/Src/stm32f4xx_hal_i2c.c ****   assert_param(IS_I2C_DUAL_ADDRESS(hi2c->Init.DualAddressMode));
 463:Drivers/STM32F4xx_HAL_Driver/Src/stm32f4xx_hal_i2c.c ****   assert_param(IS_I2C_OWN_ADDRESS2(hi2c->Init.OwnAddress2));
 464:Drivers/STM32F4xx_HAL_Driver/Src/stm32f4xx_hal_i2c.c ****   assert_param(IS_I2C_GENERAL_CALL(hi2c->Init.GeneralCallMode));
 465:Drivers/STM32F4xx_HAL_Driver/Src/stm32f4xx_hal_i2c.c ****   assert_param(IS_I2C_NO_STRETCH(hi2c->Init.NoStretchMode));
ARM GAS  C:\Users\Halil\AppData\Local\Temp\ccvukMBT.s 			page 10


 466:Drivers/STM32F4xx_HAL_Driver/Src/stm32f4xx_hal_i2c.c **** 
 467:Drivers/STM32F4xx_HAL_Driver/Src/stm32f4xx_hal_i2c.c ****   if (hi2c->State == HAL_I2C_STATE_RESET)
  50              		.loc 1 467 11
  51 0012 7B68     		ldr	r3, [r7, #4]
  52 0014 93F83D30 		ldrb	r3, [r3, #61]
  53 0018 DBB2     		uxtb	r3, r3
  54              		.loc 1 467 6
  55 001a 002B     		cmp	r3, #0
  56 001c 06D1     		bne	.L4
 468:Drivers/STM32F4xx_HAL_Driver/Src/stm32f4xx_hal_i2c.c ****   {
 469:Drivers/STM32F4xx_HAL_Driver/Src/stm32f4xx_hal_i2c.c ****     /* Allocate lock resource and initialize it */
 470:Drivers/STM32F4xx_HAL_Driver/Src/stm32f4xx_hal_i2c.c ****     hi2c->Lock = HAL_UNLOCKED;
  57              		.loc 1 470 16
  58 001e 7B68     		ldr	r3, [r7, #4]
  59 0020 0022     		movs	r2, #0
  60 0022 83F83C20 		strb	r2, [r3, #60]
 471:Drivers/STM32F4xx_HAL_Driver/Src/stm32f4xx_hal_i2c.c **** 
 472:Drivers/STM32F4xx_HAL_Driver/Src/stm32f4xx_hal_i2c.c **** #if (USE_HAL_I2C_REGISTER_CALLBACKS == 1)
 473:Drivers/STM32F4xx_HAL_Driver/Src/stm32f4xx_hal_i2c.c ****     /* Init the I2C Callback settings */
 474:Drivers/STM32F4xx_HAL_Driver/Src/stm32f4xx_hal_i2c.c ****     hi2c->MasterTxCpltCallback = HAL_I2C_MasterTxCpltCallback; /* Legacy weak MasterTxCpltCallback 
 475:Drivers/STM32F4xx_HAL_Driver/Src/stm32f4xx_hal_i2c.c ****     hi2c->MasterRxCpltCallback = HAL_I2C_MasterRxCpltCallback; /* Legacy weak MasterRxCpltCallback 
 476:Drivers/STM32F4xx_HAL_Driver/Src/stm32f4xx_hal_i2c.c ****     hi2c->SlaveTxCpltCallback  = HAL_I2C_SlaveTxCpltCallback;  /* Legacy weak SlaveTxCpltCallback  
 477:Drivers/STM32F4xx_HAL_Driver/Src/stm32f4xx_hal_i2c.c ****     hi2c->SlaveRxCpltCallback  = HAL_I2C_SlaveRxCpltCallback;  /* Legacy weak SlaveRxCpltCallback  
 478:Drivers/STM32F4xx_HAL_Driver/Src/stm32f4xx_hal_i2c.c ****     hi2c->ListenCpltCallback   = HAL_I2C_ListenCpltCallback;   /* Legacy weak ListenCpltCallback   
 479:Drivers/STM32F4xx_HAL_Driver/Src/stm32f4xx_hal_i2c.c ****     hi2c->MemTxCpltCallback    = HAL_I2C_MemTxCpltCallback;    /* Legacy weak MemTxCpltCallback    
 480:Drivers/STM32F4xx_HAL_Driver/Src/stm32f4xx_hal_i2c.c ****     hi2c->MemRxCpltCallback    = HAL_I2C_MemRxCpltCallback;    /* Legacy weak MemRxCpltCallback    
 481:Drivers/STM32F4xx_HAL_Driver/Src/stm32f4xx_hal_i2c.c ****     hi2c->ErrorCallback        = HAL_I2C_ErrorCallback;        /* Legacy weak ErrorCallback        
 482:Drivers/STM32F4xx_HAL_Driver/Src/stm32f4xx_hal_i2c.c ****     hi2c->AbortCpltCallback    = HAL_I2C_AbortCpltCallback;    /* Legacy weak AbortCpltCallback    
 483:Drivers/STM32F4xx_HAL_Driver/Src/stm32f4xx_hal_i2c.c ****     hi2c->AddrCallback         = HAL_I2C_AddrCallback;         /* Legacy weak AddrCallback         
 484:Drivers/STM32F4xx_HAL_Driver/Src/stm32f4xx_hal_i2c.c **** 
 485:Drivers/STM32F4xx_HAL_Driver/Src/stm32f4xx_hal_i2c.c ****     if (hi2c->MspInitCallback == NULL)
 486:Drivers/STM32F4xx_HAL_Driver/Src/stm32f4xx_hal_i2c.c ****     {
 487:Drivers/STM32F4xx_HAL_Driver/Src/stm32f4xx_hal_i2c.c ****       hi2c->MspInitCallback = HAL_I2C_MspInit; /* Legacy weak MspInit  */
 488:Drivers/STM32F4xx_HAL_Driver/Src/stm32f4xx_hal_i2c.c ****     }
 489:Drivers/STM32F4xx_HAL_Driver/Src/stm32f4xx_hal_i2c.c **** 
 490:Drivers/STM32F4xx_HAL_Driver/Src/stm32f4xx_hal_i2c.c ****     /* Init the low level hardware : GPIO, CLOCK, NVIC */
 491:Drivers/STM32F4xx_HAL_Driver/Src/stm32f4xx_hal_i2c.c ****     hi2c->MspInitCallback(hi2c);
 492:Drivers/STM32F4xx_HAL_Driver/Src/stm32f4xx_hal_i2c.c **** #else
 493:Drivers/STM32F4xx_HAL_Driver/Src/stm32f4xx_hal_i2c.c ****     /* Init the low level hardware : GPIO, CLOCK, NVIC */
 494:Drivers/STM32F4xx_HAL_Driver/Src/stm32f4xx_hal_i2c.c ****     HAL_I2C_MspInit(hi2c);
  61              		.loc 1 494 5
  62 0026 7868     		ldr	r0, [r7, #4]
  63 0028 FFF7FEFF 		bl	HAL_I2C_MspInit
  64              	.L4:
 495:Drivers/STM32F4xx_HAL_Driver/Src/stm32f4xx_hal_i2c.c **** #endif /* USE_HAL_I2C_REGISTER_CALLBACKS */
 496:Drivers/STM32F4xx_HAL_Driver/Src/stm32f4xx_hal_i2c.c ****   }
 497:Drivers/STM32F4xx_HAL_Driver/Src/stm32f4xx_hal_i2c.c **** 
 498:Drivers/STM32F4xx_HAL_Driver/Src/stm32f4xx_hal_i2c.c ****   hi2c->State = HAL_I2C_STATE_BUSY;
  65              		.loc 1 498 15
  66 002c 7B68     		ldr	r3, [r7, #4]
  67 002e 2422     		movs	r2, #36
  68 0030 83F83D20 		strb	r2, [r3, #61]
 499:Drivers/STM32F4xx_HAL_Driver/Src/stm32f4xx_hal_i2c.c **** 
 500:Drivers/STM32F4xx_HAL_Driver/Src/stm32f4xx_hal_i2c.c ****   /* Disable the selected I2C peripheral */
 501:Drivers/STM32F4xx_HAL_Driver/Src/stm32f4xx_hal_i2c.c ****   __HAL_I2C_DISABLE(hi2c);
  69              		.loc 1 501 3
  70 0034 7B68     		ldr	r3, [r7, #4]
ARM GAS  C:\Users\Halil\AppData\Local\Temp\ccvukMBT.s 			page 11


  71 0036 1B68     		ldr	r3, [r3]
  72 0038 1A68     		ldr	r2, [r3]
  73 003a 7B68     		ldr	r3, [r7, #4]
  74 003c 1B68     		ldr	r3, [r3]
  75 003e 22F00102 		bic	r2, r2, #1
  76 0042 1A60     		str	r2, [r3]
 502:Drivers/STM32F4xx_HAL_Driver/Src/stm32f4xx_hal_i2c.c **** 
 503:Drivers/STM32F4xx_HAL_Driver/Src/stm32f4xx_hal_i2c.c ****   /*Reset I2C*/
 504:Drivers/STM32F4xx_HAL_Driver/Src/stm32f4xx_hal_i2c.c ****   hi2c->Instance->CR1 |= I2C_CR1_SWRST;
  77              		.loc 1 504 7
  78 0044 7B68     		ldr	r3, [r7, #4]
  79 0046 1B68     		ldr	r3, [r3]
  80              		.loc 1 504 17
  81 0048 1A68     		ldr	r2, [r3]
  82              		.loc 1 504 7
  83 004a 7B68     		ldr	r3, [r7, #4]
  84 004c 1B68     		ldr	r3, [r3]
  85              		.loc 1 504 23
  86 004e 42F40042 		orr	r2, r2, #32768
  87 0052 1A60     		str	r2, [r3]
 505:Drivers/STM32F4xx_HAL_Driver/Src/stm32f4xx_hal_i2c.c ****   hi2c->Instance->CR1 &= ~I2C_CR1_SWRST;
  88              		.loc 1 505 7
  89 0054 7B68     		ldr	r3, [r7, #4]
  90 0056 1B68     		ldr	r3, [r3]
  91              		.loc 1 505 17
  92 0058 1A68     		ldr	r2, [r3]
  93              		.loc 1 505 7
  94 005a 7B68     		ldr	r3, [r7, #4]
  95 005c 1B68     		ldr	r3, [r3]
  96              		.loc 1 505 23
  97 005e 22F40042 		bic	r2, r2, #32768
  98 0062 1A60     		str	r2, [r3]
 506:Drivers/STM32F4xx_HAL_Driver/Src/stm32f4xx_hal_i2c.c **** 
 507:Drivers/STM32F4xx_HAL_Driver/Src/stm32f4xx_hal_i2c.c ****   /* Get PCLK1 frequency */
 508:Drivers/STM32F4xx_HAL_Driver/Src/stm32f4xx_hal_i2c.c ****   pclk1 = HAL_RCC_GetPCLK1Freq();
  99              		.loc 1 508 11
 100 0064 FFF7FEFF 		bl	HAL_RCC_GetPCLK1Freq
 101 0068 F860     		str	r0, [r7, #12]
 509:Drivers/STM32F4xx_HAL_Driver/Src/stm32f4xx_hal_i2c.c **** 
 510:Drivers/STM32F4xx_HAL_Driver/Src/stm32f4xx_hal_i2c.c ****   /* Check the minimum allowed PCLK1 frequency */
 511:Drivers/STM32F4xx_HAL_Driver/Src/stm32f4xx_hal_i2c.c ****   if (I2C_MIN_PCLK_FREQ(pclk1, hi2c->Init.ClockSpeed) == 1U)
 102              		.loc 1 511 7
 103 006a 7B68     		ldr	r3, [r7, #4]
 104 006c 5B68     		ldr	r3, [r3, #4]
 105              		.loc 1 511 55
 106 006e 814A     		ldr	r2, .L20
 107 0070 9342     		cmp	r3, r2
 108 0072 07D8     		bhi	.L5
 109              		.loc 1 511 55 is_stmt 0 discriminator 1
 110 0074 FB68     		ldr	r3, [r7, #12]
 111 0076 804A     		ldr	r2, .L20+4
 112 0078 9342     		cmp	r3, r2
 113 007a 94BF     		ite	ls
 114 007c 0123     		movls	r3, #1
 115 007e 0023     		movhi	r3, #0
 116 0080 DBB2     		uxtb	r3, r3
 117 0082 06E0     		b	.L6
ARM GAS  C:\Users\Halil\AppData\Local\Temp\ccvukMBT.s 			page 12


 118              	.L5:
 119              		.loc 1 511 55 discriminator 2
 120 0084 FB68     		ldr	r3, [r7, #12]
 121 0086 7D4A     		ldr	r2, .L20+8
 122 0088 9342     		cmp	r3, r2
 123 008a 94BF     		ite	ls
 124 008c 0123     		movls	r3, #1
 125 008e 0023     		movhi	r3, #0
 126 0090 DBB2     		uxtb	r3, r3
 127              	.L6:
 128              		.loc 1 511 6 is_stmt 1 discriminator 4
 129 0092 002B     		cmp	r3, #0
 130 0094 01D0     		beq	.L7
 512:Drivers/STM32F4xx_HAL_Driver/Src/stm32f4xx_hal_i2c.c ****   {
 513:Drivers/STM32F4xx_HAL_Driver/Src/stm32f4xx_hal_i2c.c ****     return HAL_ERROR;
 131              		.loc 1 513 12
 132 0096 0123     		movs	r3, #1
 133 0098 E7E0     		b	.L3
 134              	.L7:
 514:Drivers/STM32F4xx_HAL_Driver/Src/stm32f4xx_hal_i2c.c ****   }
 515:Drivers/STM32F4xx_HAL_Driver/Src/stm32f4xx_hal_i2c.c **** 
 516:Drivers/STM32F4xx_HAL_Driver/Src/stm32f4xx_hal_i2c.c ****   /* Calculate frequency range */
 517:Drivers/STM32F4xx_HAL_Driver/Src/stm32f4xx_hal_i2c.c ****   freqrange = I2C_FREQRANGE(pclk1);
 135              		.loc 1 517 13
 136 009a FB68     		ldr	r3, [r7, #12]
 137 009c 784A     		ldr	r2, .L20+12
 138 009e A2FB0323 		umull	r2, r3, r2, r3
 139 00a2 9B0C     		lsrs	r3, r3, #18
 140 00a4 BB60     		str	r3, [r7, #8]
 518:Drivers/STM32F4xx_HAL_Driver/Src/stm32f4xx_hal_i2c.c **** 
 519:Drivers/STM32F4xx_HAL_Driver/Src/stm32f4xx_hal_i2c.c ****   /*---------------------------- I2Cx CR2 Configuration ----------------------*/
 520:Drivers/STM32F4xx_HAL_Driver/Src/stm32f4xx_hal_i2c.c ****   /* Configure I2Cx: Frequency range */
 521:Drivers/STM32F4xx_HAL_Driver/Src/stm32f4xx_hal_i2c.c ****   MODIFY_REG(hi2c->Instance->CR2, I2C_CR2_FREQ, freqrange);
 141              		.loc 1 521 3
 142 00a6 7B68     		ldr	r3, [r7, #4]
 143 00a8 1B68     		ldr	r3, [r3]
 144 00aa 5B68     		ldr	r3, [r3, #4]
 145 00ac 23F03F01 		bic	r1, r3, #63
 146 00b0 7B68     		ldr	r3, [r7, #4]
 147 00b2 1B68     		ldr	r3, [r3]
 148 00b4 BA68     		ldr	r2, [r7, #8]
 149 00b6 0A43     		orrs	r2, r2, r1
 150 00b8 5A60     		str	r2, [r3, #4]
 522:Drivers/STM32F4xx_HAL_Driver/Src/stm32f4xx_hal_i2c.c **** 
 523:Drivers/STM32F4xx_HAL_Driver/Src/stm32f4xx_hal_i2c.c ****   /*---------------------------- I2Cx TRISE Configuration --------------------*/
 524:Drivers/STM32F4xx_HAL_Driver/Src/stm32f4xx_hal_i2c.c ****   /* Configure I2Cx: Rise Time */
 525:Drivers/STM32F4xx_HAL_Driver/Src/stm32f4xx_hal_i2c.c ****   MODIFY_REG(hi2c->Instance->TRISE, I2C_TRISE_TRISE, I2C_RISE_TIME(freqrange, hi2c->Init.ClockSpeed
 151              		.loc 1 525 3
 152 00ba 7B68     		ldr	r3, [r7, #4]
 153 00bc 1B68     		ldr	r3, [r3]
 154 00be 1B6A     		ldr	r3, [r3, #32]
 155 00c0 23F03F01 		bic	r1, r3, #63
 156 00c4 7B68     		ldr	r3, [r7, #4]
 157 00c6 5B68     		ldr	r3, [r3, #4]
 158 00c8 6A4A     		ldr	r2, .L20
 159 00ca 9342     		cmp	r3, r2
 160 00cc 02D8     		bhi	.L8
ARM GAS  C:\Users\Halil\AppData\Local\Temp\ccvukMBT.s 			page 13


 161              		.loc 1 525 3 is_stmt 0 discriminator 1
 162 00ce BB68     		ldr	r3, [r7, #8]
 163 00d0 0133     		adds	r3, r3, #1
 164 00d2 09E0     		b	.L9
 165              	.L8:
 166              		.loc 1 525 3 discriminator 2
 167 00d4 BB68     		ldr	r3, [r7, #8]
 168 00d6 4FF49672 		mov	r2, #300
 169 00da 02FB03F3 		mul	r3, r2, r3
 170 00de 694A     		ldr	r2, .L20+16
 171 00e0 A2FB0323 		umull	r2, r3, r2, r3
 172 00e4 9B09     		lsrs	r3, r3, #6
 173 00e6 0133     		adds	r3, r3, #1
 174              	.L9:
 175              		.loc 1 525 3 discriminator 4
 176 00e8 7A68     		ldr	r2, [r7, #4]
 177 00ea 1268     		ldr	r2, [r2]
 178 00ec 0B43     		orrs	r3, r3, r1
 179 00ee 1362     		str	r3, [r2, #32]
 526:Drivers/STM32F4xx_HAL_Driver/Src/stm32f4xx_hal_i2c.c **** 
 527:Drivers/STM32F4xx_HAL_Driver/Src/stm32f4xx_hal_i2c.c ****   /*---------------------------- I2Cx CCR Configuration ----------------------*/
 528:Drivers/STM32F4xx_HAL_Driver/Src/stm32f4xx_hal_i2c.c ****   /* Configure I2Cx: Speed */
 529:Drivers/STM32F4xx_HAL_Driver/Src/stm32f4xx_hal_i2c.c ****   MODIFY_REG(hi2c->Instance->CCR, (I2C_CCR_FS | I2C_CCR_DUTY | I2C_CCR_CCR), I2C_SPEED(pclk1, hi2c-
 180              		.loc 1 529 3 is_stmt 1 discriminator 4
 181 00f0 7B68     		ldr	r3, [r7, #4]
 182 00f2 1B68     		ldr	r3, [r3]
 183 00f4 DB69     		ldr	r3, [r3, #28]
 184 00f6 23F44F42 		bic	r2, r3, #52992
 185 00fa 22F0FF02 		bic	r2, r2, #255
 186 00fe 7B68     		ldr	r3, [r7, #4]
 187 0100 5B68     		ldr	r3, [r3, #4]
 188 0102 5C49     		ldr	r1, .L20
 189 0104 8B42     		cmp	r3, r1
 190 0106 19D8     		bhi	.L10
 191              		.loc 1 529 3 is_stmt 0 discriminator 1
 192 0108 FB68     		ldr	r3, [r7, #12]
 193 010a 591E     		subs	r1, r3, #1
 194 010c 7B68     		ldr	r3, [r7, #4]
 195 010e 5B68     		ldr	r3, [r3, #4]
 196 0110 5B00     		lsls	r3, r3, #1
 197 0112 B1FBF3F3 		udiv	r3, r1, r3
 198 0116 591C     		adds	r1, r3, #1
 199 0118 40F6FC73 		movw	r3, #4092
 200 011c 0B40     		ands	r3, r3, r1
 201 011e 002B     		cmp	r3, #0
 202 0120 0AD0     		beq	.L11
 203              		.loc 1 529 3 discriminator 3
 204 0122 FB68     		ldr	r3, [r7, #12]
 205 0124 591E     		subs	r1, r3, #1
 206 0126 7B68     		ldr	r3, [r7, #4]
 207 0128 5B68     		ldr	r3, [r3, #4]
 208 012a 5B00     		lsls	r3, r3, #1
 209 012c B1FBF3F3 		udiv	r3, r1, r3
 210 0130 0133     		adds	r3, r3, #1
 211 0132 C3F30B03 		ubfx	r3, r3, #0, #12
 212 0136 51E0     		b	.L13
 213              	.L11:
ARM GAS  C:\Users\Halil\AppData\Local\Temp\ccvukMBT.s 			page 14


 214              		.loc 1 529 3 discriminator 4
 215 0138 0423     		movs	r3, #4
 216 013a 4FE0     		b	.L13
 217              	.L10:
 218              		.loc 1 529 3 discriminator 2
 219 013c 7B68     		ldr	r3, [r7, #4]
 220 013e 9B68     		ldr	r3, [r3, #8]
 221 0140 002B     		cmp	r3, #0
 222 0142 11D1     		bne	.L14
 223              		.loc 1 529 3 discriminator 8
 224 0144 FB68     		ldr	r3, [r7, #12]
 225 0146 581E     		subs	r0, r3, #1
 226 0148 7B68     		ldr	r3, [r7, #4]
 227 014a 5968     		ldr	r1, [r3, #4]
 228 014c 0B46     		mov	r3, r1
 229 014e 5B00     		lsls	r3, r3, #1
 230 0150 0B44     		add	r3, r3, r1
 231 0152 B0FBF3F3 		udiv	r3, r0, r3
 232 0156 0133     		adds	r3, r3, #1
 233 0158 C3F30B03 		ubfx	r3, r3, #0, #12
 234 015c 002B     		cmp	r3, #0
 235 015e 0CBF     		ite	eq
 236 0160 0123     		moveq	r3, #1
 237 0162 0023     		movne	r3, #0
 238 0164 DBB2     		uxtb	r3, r3
 239 0166 12E0     		b	.L15
 240              	.L14:
 241              		.loc 1 529 3 discriminator 9
 242 0168 FB68     		ldr	r3, [r7, #12]
 243 016a 581E     		subs	r0, r3, #1
 244 016c 7B68     		ldr	r3, [r7, #4]
 245 016e 5968     		ldr	r1, [r3, #4]
 246 0170 0B46     		mov	r3, r1
 247 0172 9B00     		lsls	r3, r3, #2
 248 0174 0B44     		add	r3, r3, r1
 249 0176 9900     		lsls	r1, r3, #2
 250 0178 0B44     		add	r3, r3, r1
 251 017a B0FBF3F3 		udiv	r3, r0, r3
 252 017e 0133     		adds	r3, r3, #1
 253 0180 C3F30B03 		ubfx	r3, r3, #0, #12
 254 0184 002B     		cmp	r3, #0
 255 0186 0CBF     		ite	eq
 256 0188 0123     		moveq	r3, #1
 257 018a 0023     		movne	r3, #0
 258 018c DBB2     		uxtb	r3, r3
 259              	.L15:
 260              		.loc 1 529 3 discriminator 11
 261 018e 002B     		cmp	r3, #0
 262 0190 01D0     		beq	.L16
 263              		.loc 1 529 3 discriminator 12
 264 0192 0123     		movs	r3, #1
 265 0194 22E0     		b	.L13
 266              	.L16:
 267              		.loc 1 529 3 discriminator 13
 268 0196 7B68     		ldr	r3, [r7, #4]
 269 0198 9B68     		ldr	r3, [r3, #8]
 270 019a 002B     		cmp	r3, #0
ARM GAS  C:\Users\Halil\AppData\Local\Temp\ccvukMBT.s 			page 15


 271 019c 0ED1     		bne	.L18
 272              		.loc 1 529 3 discriminator 15
 273 019e FB68     		ldr	r3, [r7, #12]
 274 01a0 581E     		subs	r0, r3, #1
 275 01a2 7B68     		ldr	r3, [r7, #4]
 276 01a4 5968     		ldr	r1, [r3, #4]
 277 01a6 0B46     		mov	r3, r1
 278 01a8 5B00     		lsls	r3, r3, #1
 279 01aa 0B44     		add	r3, r3, r1
 280 01ac B0FBF3F3 		udiv	r3, r0, r3
 281 01b0 0133     		adds	r3, r3, #1
 282 01b2 C3F30B03 		ubfx	r3, r3, #0, #12
 283 01b6 43F40043 		orr	r3, r3, #32768
 284 01ba 0FE0     		b	.L13
 285              	.L18:
 286              		.loc 1 529 3 discriminator 16
 287 01bc FB68     		ldr	r3, [r7, #12]
 288 01be 581E     		subs	r0, r3, #1
 289 01c0 7B68     		ldr	r3, [r7, #4]
 290 01c2 5968     		ldr	r1, [r3, #4]
 291 01c4 0B46     		mov	r3, r1
 292 01c6 9B00     		lsls	r3, r3, #2
 293 01c8 0B44     		add	r3, r3, r1
 294 01ca 9900     		lsls	r1, r3, #2
 295 01cc 0B44     		add	r3, r3, r1
 296 01ce B0FBF3F3 		udiv	r3, r0, r3
 297 01d2 0133     		adds	r3, r3, #1
 298 01d4 C3F30B03 		ubfx	r3, r3, #0, #12
 299 01d8 43F44043 		orr	r3, r3, #49152
 300              	.L13:
 301              		.loc 1 529 3 discriminator 20
 302 01dc 7968     		ldr	r1, [r7, #4]
 303 01de 0968     		ldr	r1, [r1]
 304 01e0 1343     		orrs	r3, r3, r2
 305 01e2 CB61     		str	r3, [r1, #28]
 530:Drivers/STM32F4xx_HAL_Driver/Src/stm32f4xx_hal_i2c.c **** 
 531:Drivers/STM32F4xx_HAL_Driver/Src/stm32f4xx_hal_i2c.c ****   /*---------------------------- I2Cx CR1 Configuration ----------------------*/
 532:Drivers/STM32F4xx_HAL_Driver/Src/stm32f4xx_hal_i2c.c ****   /* Configure I2Cx: Generalcall and NoStretch mode */
 533:Drivers/STM32F4xx_HAL_Driver/Src/stm32f4xx_hal_i2c.c ****   MODIFY_REG(hi2c->Instance->CR1, (I2C_CR1_ENGC | I2C_CR1_NOSTRETCH), (hi2c->Init.GeneralCallMode |
 306              		.loc 1 533 3 is_stmt 1 discriminator 20
 307 01e4 7B68     		ldr	r3, [r7, #4]
 308 01e6 1B68     		ldr	r3, [r3]
 309 01e8 1B68     		ldr	r3, [r3]
 310 01ea 23F0C001 		bic	r1, r3, #192
 311 01ee 7B68     		ldr	r3, [r7, #4]
 312 01f0 DA69     		ldr	r2, [r3, #28]
 313 01f2 7B68     		ldr	r3, [r7, #4]
 314 01f4 1B6A     		ldr	r3, [r3, #32]
 315 01f6 1A43     		orrs	r2, r2, r3
 316 01f8 7B68     		ldr	r3, [r7, #4]
 317 01fa 1B68     		ldr	r3, [r3]
 318 01fc 0A43     		orrs	r2, r2, r1
 319 01fe 1A60     		str	r2, [r3]
 534:Drivers/STM32F4xx_HAL_Driver/Src/stm32f4xx_hal_i2c.c **** 
 535:Drivers/STM32F4xx_HAL_Driver/Src/stm32f4xx_hal_i2c.c ****   /*---------------------------- I2Cx OAR1 Configuration ---------------------*/
 536:Drivers/STM32F4xx_HAL_Driver/Src/stm32f4xx_hal_i2c.c ****   /* Configure I2Cx: Own Address1 and addressing mode */
 537:Drivers/STM32F4xx_HAL_Driver/Src/stm32f4xx_hal_i2c.c ****   MODIFY_REG(hi2c->Instance->OAR1, (I2C_OAR1_ADDMODE | I2C_OAR1_ADD8_9 | I2C_OAR1_ADD1_7 | I2C_OAR1
ARM GAS  C:\Users\Halil\AppData\Local\Temp\ccvukMBT.s 			page 16


 320              		.loc 1 537 3 discriminator 20
 321 0200 7B68     		ldr	r3, [r7, #4]
 322 0202 1B68     		ldr	r3, [r3]
 323 0204 9B68     		ldr	r3, [r3, #8]
 324 0206 23F40343 		bic	r3, r3, #33536
 325 020a 23F0FF03 		bic	r3, r3, #255
 326 020e 7A68     		ldr	r2, [r7, #4]
 327 0210 1169     		ldr	r1, [r2, #16]
 328 0212 7A68     		ldr	r2, [r7, #4]
 329 0214 D268     		ldr	r2, [r2, #12]
 330 0216 1143     		orrs	r1, r1, r2
 331 0218 7A68     		ldr	r2, [r7, #4]
 332 021a 1268     		ldr	r2, [r2]
 333 021c 0B43     		orrs	r3, r3, r1
 334 021e 9360     		str	r3, [r2, #8]
 538:Drivers/STM32F4xx_HAL_Driver/Src/stm32f4xx_hal_i2c.c **** 
 539:Drivers/STM32F4xx_HAL_Driver/Src/stm32f4xx_hal_i2c.c ****   /*---------------------------- I2Cx OAR2 Configuration ---------------------*/
 540:Drivers/STM32F4xx_HAL_Driver/Src/stm32f4xx_hal_i2c.c ****   /* Configure I2Cx: Dual mode and Own Address2 */
 541:Drivers/STM32F4xx_HAL_Driver/Src/stm32f4xx_hal_i2c.c ****   MODIFY_REG(hi2c->Instance->OAR2, (I2C_OAR2_ENDUAL | I2C_OAR2_ADD2), (hi2c->Init.DualAddressMode |
 335              		.loc 1 541 3 discriminator 20
 336 0220 7B68     		ldr	r3, [r7, #4]
 337 0222 1B68     		ldr	r3, [r3]
 338 0224 DB68     		ldr	r3, [r3, #12]
 339 0226 23F0FF01 		bic	r1, r3, #255
 340 022a 7B68     		ldr	r3, [r7, #4]
 341 022c 5A69     		ldr	r2, [r3, #20]
 342 022e 7B68     		ldr	r3, [r7, #4]
 343 0230 9B69     		ldr	r3, [r3, #24]
 344 0232 1A43     		orrs	r2, r2, r3
 345 0234 7B68     		ldr	r3, [r7, #4]
 346 0236 1B68     		ldr	r3, [r3]
 347 0238 0A43     		orrs	r2, r2, r1
 348 023a DA60     		str	r2, [r3, #12]
 542:Drivers/STM32F4xx_HAL_Driver/Src/stm32f4xx_hal_i2c.c **** 
 543:Drivers/STM32F4xx_HAL_Driver/Src/stm32f4xx_hal_i2c.c ****   /* Enable the selected I2C peripheral */
 544:Drivers/STM32F4xx_HAL_Driver/Src/stm32f4xx_hal_i2c.c ****   __HAL_I2C_ENABLE(hi2c);
 349              		.loc 1 544 3 discriminator 20
 350 023c 7B68     		ldr	r3, [r7, #4]
 351 023e 1B68     		ldr	r3, [r3]
 352 0240 1A68     		ldr	r2, [r3]
 353 0242 7B68     		ldr	r3, [r7, #4]
 354 0244 1B68     		ldr	r3, [r3]
 355 0246 42F00102 		orr	r2, r2, #1
 356 024a 1A60     		str	r2, [r3]
 545:Drivers/STM32F4xx_HAL_Driver/Src/stm32f4xx_hal_i2c.c **** 
 546:Drivers/STM32F4xx_HAL_Driver/Src/stm32f4xx_hal_i2c.c ****   hi2c->ErrorCode = HAL_I2C_ERROR_NONE;
 357              		.loc 1 546 19 discriminator 20
 358 024c 7B68     		ldr	r3, [r7, #4]
 359 024e 0022     		movs	r2, #0
 360 0250 1A64     		str	r2, [r3, #64]
 547:Drivers/STM32F4xx_HAL_Driver/Src/stm32f4xx_hal_i2c.c ****   hi2c->State = HAL_I2C_STATE_READY;
 361              		.loc 1 547 15 discriminator 20
 362 0252 7B68     		ldr	r3, [r7, #4]
 363 0254 2022     		movs	r2, #32
 364 0256 83F83D20 		strb	r2, [r3, #61]
 548:Drivers/STM32F4xx_HAL_Driver/Src/stm32f4xx_hal_i2c.c ****   hi2c->PreviousState = I2C_STATE_NONE;
 365              		.loc 1 548 23 discriminator 20
ARM GAS  C:\Users\Halil\AppData\Local\Temp\ccvukMBT.s 			page 17


 366 025a 7B68     		ldr	r3, [r7, #4]
 367 025c 0022     		movs	r2, #0
 368 025e 1A63     		str	r2, [r3, #48]
 549:Drivers/STM32F4xx_HAL_Driver/Src/stm32f4xx_hal_i2c.c ****   hi2c->Mode = HAL_I2C_MODE_NONE;
 369              		.loc 1 549 14 discriminator 20
 370 0260 7B68     		ldr	r3, [r7, #4]
 371 0262 0022     		movs	r2, #0
 372 0264 83F83E20 		strb	r2, [r3, #62]
 550:Drivers/STM32F4xx_HAL_Driver/Src/stm32f4xx_hal_i2c.c **** 
 551:Drivers/STM32F4xx_HAL_Driver/Src/stm32f4xx_hal_i2c.c ****   return HAL_OK;
 373              		.loc 1 551 10 discriminator 20
 374 0268 0023     		movs	r3, #0
 375              	.L3:
 552:Drivers/STM32F4xx_HAL_Driver/Src/stm32f4xx_hal_i2c.c **** }
 376              		.loc 1 552 1
 377 026a 1846     		mov	r0, r3
 378 026c 1037     		adds	r7, r7, #16
 379              		.cfi_def_cfa_offset 8
 380 026e BD46     		mov	sp, r7
 381              		.cfi_def_cfa_register 13
 382              		@ sp needed
 383 0270 80BD     		pop	{r7, pc}
 384              	.L21:
 385 0272 00BF     		.align	2
 386              	.L20:
 387 0274 A0860100 		.word	100000
 388 0278 7F841E00 		.word	1999999
 389 027c FF083D00 		.word	3999999
 390 0280 83DE1B43 		.word	1125899907
 391 0284 D34D6210 		.word	274877907
 392              		.cfi_endproc
 393              	.LFE239:
 395              		.section	.text.HAL_I2C_DeInit,"ax",%progbits
 396              		.align	1
 397              		.global	HAL_I2C_DeInit
 398              		.syntax unified
 399              		.thumb
 400              		.thumb_func
 402              	HAL_I2C_DeInit:
 403              	.LFB240:
 553:Drivers/STM32F4xx_HAL_Driver/Src/stm32f4xx_hal_i2c.c **** 
 554:Drivers/STM32F4xx_HAL_Driver/Src/stm32f4xx_hal_i2c.c **** /**
 555:Drivers/STM32F4xx_HAL_Driver/Src/stm32f4xx_hal_i2c.c ****   * @brief  DeInitialize the I2C peripheral.
 556:Drivers/STM32F4xx_HAL_Driver/Src/stm32f4xx_hal_i2c.c ****   * @param  hi2c Pointer to a I2C_HandleTypeDef structure that contains
 557:Drivers/STM32F4xx_HAL_Driver/Src/stm32f4xx_hal_i2c.c ****   *         the configuration information for the specified I2C.
 558:Drivers/STM32F4xx_HAL_Driver/Src/stm32f4xx_hal_i2c.c ****   * @retval HAL status
 559:Drivers/STM32F4xx_HAL_Driver/Src/stm32f4xx_hal_i2c.c ****   */
 560:Drivers/STM32F4xx_HAL_Driver/Src/stm32f4xx_hal_i2c.c **** HAL_StatusTypeDef HAL_I2C_DeInit(I2C_HandleTypeDef *hi2c)
 561:Drivers/STM32F4xx_HAL_Driver/Src/stm32f4xx_hal_i2c.c **** {
 404              		.loc 1 561 1
 405              		.cfi_startproc
 406              		@ args = 0, pretend = 0, frame = 8
 407              		@ frame_needed = 1, uses_anonymous_args = 0
 408 0000 80B5     		push	{r7, lr}
 409              		.cfi_def_cfa_offset 8
 410              		.cfi_offset 7, -8
 411              		.cfi_offset 14, -4
ARM GAS  C:\Users\Halil\AppData\Local\Temp\ccvukMBT.s 			page 18


 412 0002 82B0     		sub	sp, sp, #8
 413              		.cfi_def_cfa_offset 16
 414 0004 00AF     		add	r7, sp, #0
 415              		.cfi_def_cfa_register 7
 416 0006 7860     		str	r0, [r7, #4]
 562:Drivers/STM32F4xx_HAL_Driver/Src/stm32f4xx_hal_i2c.c ****   /* Check the I2C handle allocation */
 563:Drivers/STM32F4xx_HAL_Driver/Src/stm32f4xx_hal_i2c.c ****   if (hi2c == NULL)
 417              		.loc 1 563 6
 418 0008 7B68     		ldr	r3, [r7, #4]
 419 000a 002B     		cmp	r3, #0
 420 000c 01D1     		bne	.L23
 564:Drivers/STM32F4xx_HAL_Driver/Src/stm32f4xx_hal_i2c.c ****   {
 565:Drivers/STM32F4xx_HAL_Driver/Src/stm32f4xx_hal_i2c.c ****     return HAL_ERROR;
 421              		.loc 1 565 12
 422 000e 0123     		movs	r3, #1
 423 0010 21E0     		b	.L24
 424              	.L23:
 566:Drivers/STM32F4xx_HAL_Driver/Src/stm32f4xx_hal_i2c.c ****   }
 567:Drivers/STM32F4xx_HAL_Driver/Src/stm32f4xx_hal_i2c.c **** 
 568:Drivers/STM32F4xx_HAL_Driver/Src/stm32f4xx_hal_i2c.c ****   /* Check the parameters */
 569:Drivers/STM32F4xx_HAL_Driver/Src/stm32f4xx_hal_i2c.c ****   assert_param(IS_I2C_ALL_INSTANCE(hi2c->Instance));
 570:Drivers/STM32F4xx_HAL_Driver/Src/stm32f4xx_hal_i2c.c **** 
 571:Drivers/STM32F4xx_HAL_Driver/Src/stm32f4xx_hal_i2c.c ****   hi2c->State = HAL_I2C_STATE_BUSY;
 425              		.loc 1 571 15
 426 0012 7B68     		ldr	r3, [r7, #4]
 427 0014 2422     		movs	r2, #36
 428 0016 83F83D20 		strb	r2, [r3, #61]
 572:Drivers/STM32F4xx_HAL_Driver/Src/stm32f4xx_hal_i2c.c **** 
 573:Drivers/STM32F4xx_HAL_Driver/Src/stm32f4xx_hal_i2c.c ****   /* Disable the I2C Peripheral Clock */
 574:Drivers/STM32F4xx_HAL_Driver/Src/stm32f4xx_hal_i2c.c ****   __HAL_I2C_DISABLE(hi2c);
 429              		.loc 1 574 3
 430 001a 7B68     		ldr	r3, [r7, #4]
 431 001c 1B68     		ldr	r3, [r3]
 432 001e 1A68     		ldr	r2, [r3]
 433 0020 7B68     		ldr	r3, [r7, #4]
 434 0022 1B68     		ldr	r3, [r3]
 435 0024 22F00102 		bic	r2, r2, #1
 436 0028 1A60     		str	r2, [r3]
 575:Drivers/STM32F4xx_HAL_Driver/Src/stm32f4xx_hal_i2c.c **** 
 576:Drivers/STM32F4xx_HAL_Driver/Src/stm32f4xx_hal_i2c.c **** #if (USE_HAL_I2C_REGISTER_CALLBACKS == 1)
 577:Drivers/STM32F4xx_HAL_Driver/Src/stm32f4xx_hal_i2c.c ****   if (hi2c->MspDeInitCallback == NULL)
 578:Drivers/STM32F4xx_HAL_Driver/Src/stm32f4xx_hal_i2c.c ****   {
 579:Drivers/STM32F4xx_HAL_Driver/Src/stm32f4xx_hal_i2c.c ****     hi2c->MspDeInitCallback = HAL_I2C_MspDeInit; /* Legacy weak MspDeInit  */
 580:Drivers/STM32F4xx_HAL_Driver/Src/stm32f4xx_hal_i2c.c ****   }
 581:Drivers/STM32F4xx_HAL_Driver/Src/stm32f4xx_hal_i2c.c **** 
 582:Drivers/STM32F4xx_HAL_Driver/Src/stm32f4xx_hal_i2c.c ****   /* DeInit the low level hardware: GPIO, CLOCK, NVIC */
 583:Drivers/STM32F4xx_HAL_Driver/Src/stm32f4xx_hal_i2c.c ****   hi2c->MspDeInitCallback(hi2c);
 584:Drivers/STM32F4xx_HAL_Driver/Src/stm32f4xx_hal_i2c.c **** #else
 585:Drivers/STM32F4xx_HAL_Driver/Src/stm32f4xx_hal_i2c.c ****   /* DeInit the low level hardware: GPIO, CLOCK, NVIC */
 586:Drivers/STM32F4xx_HAL_Driver/Src/stm32f4xx_hal_i2c.c ****   HAL_I2C_MspDeInit(hi2c);
 437              		.loc 1 586 3
 438 002a 7868     		ldr	r0, [r7, #4]
 439 002c FFF7FEFF 		bl	HAL_I2C_MspDeInit
 587:Drivers/STM32F4xx_HAL_Driver/Src/stm32f4xx_hal_i2c.c **** #endif /* USE_HAL_I2C_REGISTER_CALLBACKS */
 588:Drivers/STM32F4xx_HAL_Driver/Src/stm32f4xx_hal_i2c.c **** 
 589:Drivers/STM32F4xx_HAL_Driver/Src/stm32f4xx_hal_i2c.c ****   hi2c->ErrorCode     = HAL_I2C_ERROR_NONE;
 440              		.loc 1 589 23
ARM GAS  C:\Users\Halil\AppData\Local\Temp\ccvukMBT.s 			page 19


 441 0030 7B68     		ldr	r3, [r7, #4]
 442 0032 0022     		movs	r2, #0
 443 0034 1A64     		str	r2, [r3, #64]
 590:Drivers/STM32F4xx_HAL_Driver/Src/stm32f4xx_hal_i2c.c ****   hi2c->State         = HAL_I2C_STATE_RESET;
 444              		.loc 1 590 23
 445 0036 7B68     		ldr	r3, [r7, #4]
 446 0038 0022     		movs	r2, #0
 447 003a 83F83D20 		strb	r2, [r3, #61]
 591:Drivers/STM32F4xx_HAL_Driver/Src/stm32f4xx_hal_i2c.c ****   hi2c->PreviousState = I2C_STATE_NONE;
 448              		.loc 1 591 23
 449 003e 7B68     		ldr	r3, [r7, #4]
 450 0040 0022     		movs	r2, #0
 451 0042 1A63     		str	r2, [r3, #48]
 592:Drivers/STM32F4xx_HAL_Driver/Src/stm32f4xx_hal_i2c.c ****   hi2c->Mode          = HAL_I2C_MODE_NONE;
 452              		.loc 1 592 23
 453 0044 7B68     		ldr	r3, [r7, #4]
 454 0046 0022     		movs	r2, #0
 455 0048 83F83E20 		strb	r2, [r3, #62]
 593:Drivers/STM32F4xx_HAL_Driver/Src/stm32f4xx_hal_i2c.c **** 
 594:Drivers/STM32F4xx_HAL_Driver/Src/stm32f4xx_hal_i2c.c ****   /* Release Lock */
 595:Drivers/STM32F4xx_HAL_Driver/Src/stm32f4xx_hal_i2c.c ****   __HAL_UNLOCK(hi2c);
 456              		.loc 1 595 3
 457 004c 7B68     		ldr	r3, [r7, #4]
 458 004e 0022     		movs	r2, #0
 459 0050 83F83C20 		strb	r2, [r3, #60]
 596:Drivers/STM32F4xx_HAL_Driver/Src/stm32f4xx_hal_i2c.c **** 
 597:Drivers/STM32F4xx_HAL_Driver/Src/stm32f4xx_hal_i2c.c ****   return HAL_OK;
 460              		.loc 1 597 10
 461 0054 0023     		movs	r3, #0
 462              	.L24:
 598:Drivers/STM32F4xx_HAL_Driver/Src/stm32f4xx_hal_i2c.c **** }
 463              		.loc 1 598 1
 464 0056 1846     		mov	r0, r3
 465 0058 0837     		adds	r7, r7, #8
 466              		.cfi_def_cfa_offset 8
 467 005a BD46     		mov	sp, r7
 468              		.cfi_def_cfa_register 13
 469              		@ sp needed
 470 005c 80BD     		pop	{r7, pc}
 471              		.cfi_endproc
 472              	.LFE240:
 474              		.section	.text.HAL_I2C_MspInit,"ax",%progbits
 475              		.align	1
 476              		.weak	HAL_I2C_MspInit
 477              		.syntax unified
 478              		.thumb
 479              		.thumb_func
 481              	HAL_I2C_MspInit:
 482              	.LFB241:
 599:Drivers/STM32F4xx_HAL_Driver/Src/stm32f4xx_hal_i2c.c **** 
 600:Drivers/STM32F4xx_HAL_Driver/Src/stm32f4xx_hal_i2c.c **** /**
 601:Drivers/STM32F4xx_HAL_Driver/Src/stm32f4xx_hal_i2c.c ****   * @brief  Initialize the I2C MSP.
 602:Drivers/STM32F4xx_HAL_Driver/Src/stm32f4xx_hal_i2c.c ****   * @param  hi2c Pointer to a I2C_HandleTypeDef structure that contains
 603:Drivers/STM32F4xx_HAL_Driver/Src/stm32f4xx_hal_i2c.c ****   *         the configuration information for the specified I2C.
 604:Drivers/STM32F4xx_HAL_Driver/Src/stm32f4xx_hal_i2c.c ****   * @retval None
 605:Drivers/STM32F4xx_HAL_Driver/Src/stm32f4xx_hal_i2c.c ****   */
 606:Drivers/STM32F4xx_HAL_Driver/Src/stm32f4xx_hal_i2c.c **** __weak void HAL_I2C_MspInit(I2C_HandleTypeDef *hi2c)
ARM GAS  C:\Users\Halil\AppData\Local\Temp\ccvukMBT.s 			page 20


 607:Drivers/STM32F4xx_HAL_Driver/Src/stm32f4xx_hal_i2c.c **** {
 483              		.loc 1 607 1
 484              		.cfi_startproc
 485              		@ args = 0, pretend = 0, frame = 8
 486              		@ frame_needed = 1, uses_anonymous_args = 0
 487              		@ link register save eliminated.
 488 0000 80B4     		push	{r7}
 489              		.cfi_def_cfa_offset 4
 490              		.cfi_offset 7, -4
 491 0002 83B0     		sub	sp, sp, #12
 492              		.cfi_def_cfa_offset 16
 493 0004 00AF     		add	r7, sp, #0
 494              		.cfi_def_cfa_register 7
 495 0006 7860     		str	r0, [r7, #4]
 608:Drivers/STM32F4xx_HAL_Driver/Src/stm32f4xx_hal_i2c.c ****   /* Prevent unused argument(s) compilation warning */
 609:Drivers/STM32F4xx_HAL_Driver/Src/stm32f4xx_hal_i2c.c ****   UNUSED(hi2c);
 610:Drivers/STM32F4xx_HAL_Driver/Src/stm32f4xx_hal_i2c.c **** 
 611:Drivers/STM32F4xx_HAL_Driver/Src/stm32f4xx_hal_i2c.c ****   /* NOTE : This function should not be modified, when the callback is needed,
 612:Drivers/STM32F4xx_HAL_Driver/Src/stm32f4xx_hal_i2c.c ****             the HAL_I2C_MspInit could be implemented in the user file
 613:Drivers/STM32F4xx_HAL_Driver/Src/stm32f4xx_hal_i2c.c ****    */
 614:Drivers/STM32F4xx_HAL_Driver/Src/stm32f4xx_hal_i2c.c **** }
 496              		.loc 1 614 1
 497 0008 00BF     		nop
 498 000a 0C37     		adds	r7, r7, #12
 499              		.cfi_def_cfa_offset 4
 500 000c BD46     		mov	sp, r7
 501              		.cfi_def_cfa_register 13
 502              		@ sp needed
 503 000e 5DF8047B 		ldr	r7, [sp], #4
 504              		.cfi_restore 7
 505              		.cfi_def_cfa_offset 0
 506 0012 7047     		bx	lr
 507              		.cfi_endproc
 508              	.LFE241:
 510              		.section	.text.HAL_I2C_MspDeInit,"ax",%progbits
 511              		.align	1
 512              		.weak	HAL_I2C_MspDeInit
 513              		.syntax unified
 514              		.thumb
 515              		.thumb_func
 517              	HAL_I2C_MspDeInit:
 518              	.LFB242:
 615:Drivers/STM32F4xx_HAL_Driver/Src/stm32f4xx_hal_i2c.c **** 
 616:Drivers/STM32F4xx_HAL_Driver/Src/stm32f4xx_hal_i2c.c **** /**
 617:Drivers/STM32F4xx_HAL_Driver/Src/stm32f4xx_hal_i2c.c ****   * @brief  DeInitialize the I2C MSP.
 618:Drivers/STM32F4xx_HAL_Driver/Src/stm32f4xx_hal_i2c.c ****   * @param  hi2c Pointer to a I2C_HandleTypeDef structure that contains
 619:Drivers/STM32F4xx_HAL_Driver/Src/stm32f4xx_hal_i2c.c ****   *         the configuration information for the specified I2C.
 620:Drivers/STM32F4xx_HAL_Driver/Src/stm32f4xx_hal_i2c.c ****   * @retval None
 621:Drivers/STM32F4xx_HAL_Driver/Src/stm32f4xx_hal_i2c.c ****   */
 622:Drivers/STM32F4xx_HAL_Driver/Src/stm32f4xx_hal_i2c.c **** __weak void HAL_I2C_MspDeInit(I2C_HandleTypeDef *hi2c)
 623:Drivers/STM32F4xx_HAL_Driver/Src/stm32f4xx_hal_i2c.c **** {
 519              		.loc 1 623 1
 520              		.cfi_startproc
 521              		@ args = 0, pretend = 0, frame = 8
 522              		@ frame_needed = 1, uses_anonymous_args = 0
 523              		@ link register save eliminated.
 524 0000 80B4     		push	{r7}
ARM GAS  C:\Users\Halil\AppData\Local\Temp\ccvukMBT.s 			page 21


 525              		.cfi_def_cfa_offset 4
 526              		.cfi_offset 7, -4
 527 0002 83B0     		sub	sp, sp, #12
 528              		.cfi_def_cfa_offset 16
 529 0004 00AF     		add	r7, sp, #0
 530              		.cfi_def_cfa_register 7
 531 0006 7860     		str	r0, [r7, #4]
 624:Drivers/STM32F4xx_HAL_Driver/Src/stm32f4xx_hal_i2c.c ****   /* Prevent unused argument(s) compilation warning */
 625:Drivers/STM32F4xx_HAL_Driver/Src/stm32f4xx_hal_i2c.c ****   UNUSED(hi2c);
 626:Drivers/STM32F4xx_HAL_Driver/Src/stm32f4xx_hal_i2c.c **** 
 627:Drivers/STM32F4xx_HAL_Driver/Src/stm32f4xx_hal_i2c.c ****   /* NOTE : This function should not be modified, when the callback is needed,
 628:Drivers/STM32F4xx_HAL_Driver/Src/stm32f4xx_hal_i2c.c ****             the HAL_I2C_MspDeInit could be implemented in the user file
 629:Drivers/STM32F4xx_HAL_Driver/Src/stm32f4xx_hal_i2c.c ****    */
 630:Drivers/STM32F4xx_HAL_Driver/Src/stm32f4xx_hal_i2c.c **** }
 532              		.loc 1 630 1
 533 0008 00BF     		nop
 534 000a 0C37     		adds	r7, r7, #12
 535              		.cfi_def_cfa_offset 4
 536 000c BD46     		mov	sp, r7
 537              		.cfi_def_cfa_register 13
 538              		@ sp needed
 539 000e 5DF8047B 		ldr	r7, [sp], #4
 540              		.cfi_restore 7
 541              		.cfi_def_cfa_offset 0
 542 0012 7047     		bx	lr
 543              		.cfi_endproc
 544              	.LFE242:
 546              		.section	.text.I2C_Flush_DR,"ax",%progbits
 547              		.align	1
 548              		.syntax unified
 549              		.thumb
 550              		.thumb_func
 552              	I2C_Flush_DR:
 553              	.LFB243:
 631:Drivers/STM32F4xx_HAL_Driver/Src/stm32f4xx_hal_i2c.c **** 
 632:Drivers/STM32F4xx_HAL_Driver/Src/stm32f4xx_hal_i2c.c **** #if (USE_HAL_I2C_REGISTER_CALLBACKS == 1)
 633:Drivers/STM32F4xx_HAL_Driver/Src/stm32f4xx_hal_i2c.c **** /**
 634:Drivers/STM32F4xx_HAL_Driver/Src/stm32f4xx_hal_i2c.c ****   * @brief  Register a User I2C Callback
 635:Drivers/STM32F4xx_HAL_Driver/Src/stm32f4xx_hal_i2c.c ****   *         To be used instead of the weak predefined callback
 636:Drivers/STM32F4xx_HAL_Driver/Src/stm32f4xx_hal_i2c.c ****   * @param  hi2c Pointer to a I2C_HandleTypeDef structure that contains
 637:Drivers/STM32F4xx_HAL_Driver/Src/stm32f4xx_hal_i2c.c ****   *                the configuration information for the specified I2C.
 638:Drivers/STM32F4xx_HAL_Driver/Src/stm32f4xx_hal_i2c.c ****   * @param  CallbackID ID of the callback to be registered
 639:Drivers/STM32F4xx_HAL_Driver/Src/stm32f4xx_hal_i2c.c ****   *         This parameter can be one of the following values:
 640:Drivers/STM32F4xx_HAL_Driver/Src/stm32f4xx_hal_i2c.c ****   *          @arg @ref HAL_I2C_MASTER_TX_COMPLETE_CB_ID Master Tx Transfer completed callback ID
 641:Drivers/STM32F4xx_HAL_Driver/Src/stm32f4xx_hal_i2c.c ****   *          @arg @ref HAL_I2C_MASTER_RX_COMPLETE_CB_ID Master Rx Transfer completed callback ID
 642:Drivers/STM32F4xx_HAL_Driver/Src/stm32f4xx_hal_i2c.c ****   *          @arg @ref HAL_I2C_SLAVE_TX_COMPLETE_CB_ID Slave Tx Transfer completed callback ID
 643:Drivers/STM32F4xx_HAL_Driver/Src/stm32f4xx_hal_i2c.c ****   *          @arg @ref HAL_I2C_SLAVE_RX_COMPLETE_CB_ID Slave Rx Transfer completed callback ID
 644:Drivers/STM32F4xx_HAL_Driver/Src/stm32f4xx_hal_i2c.c ****   *          @arg @ref HAL_I2C_LISTEN_COMPLETE_CB_ID Listen Complete callback ID
 645:Drivers/STM32F4xx_HAL_Driver/Src/stm32f4xx_hal_i2c.c ****   *          @arg @ref HAL_I2C_MEM_TX_COMPLETE_CB_ID Memory Tx Transfer callback ID
 646:Drivers/STM32F4xx_HAL_Driver/Src/stm32f4xx_hal_i2c.c ****   *          @arg @ref HAL_I2C_MEM_RX_COMPLETE_CB_ID Memory Rx Transfer completed callback ID
 647:Drivers/STM32F4xx_HAL_Driver/Src/stm32f4xx_hal_i2c.c ****   *          @arg @ref HAL_I2C_ERROR_CB_ID Error callback ID
 648:Drivers/STM32F4xx_HAL_Driver/Src/stm32f4xx_hal_i2c.c ****   *          @arg @ref HAL_I2C_ABORT_CB_ID Abort callback ID
 649:Drivers/STM32F4xx_HAL_Driver/Src/stm32f4xx_hal_i2c.c ****   *          @arg @ref HAL_I2C_MSPINIT_CB_ID MspInit callback ID
 650:Drivers/STM32F4xx_HAL_Driver/Src/stm32f4xx_hal_i2c.c ****   *          @arg @ref HAL_I2C_MSPDEINIT_CB_ID MspDeInit callback ID
 651:Drivers/STM32F4xx_HAL_Driver/Src/stm32f4xx_hal_i2c.c ****   * @param  pCallback pointer to the Callback function
 652:Drivers/STM32F4xx_HAL_Driver/Src/stm32f4xx_hal_i2c.c ****   * @retval HAL status
 653:Drivers/STM32F4xx_HAL_Driver/Src/stm32f4xx_hal_i2c.c ****   */
ARM GAS  C:\Users\Halil\AppData\Local\Temp\ccvukMBT.s 			page 22


 654:Drivers/STM32F4xx_HAL_Driver/Src/stm32f4xx_hal_i2c.c **** HAL_StatusTypeDef HAL_I2C_RegisterCallback(I2C_HandleTypeDef *hi2c, HAL_I2C_CallbackIDTypeDef Callb
 655:Drivers/STM32F4xx_HAL_Driver/Src/stm32f4xx_hal_i2c.c **** {
 656:Drivers/STM32F4xx_HAL_Driver/Src/stm32f4xx_hal_i2c.c ****   HAL_StatusTypeDef status = HAL_OK;
 657:Drivers/STM32F4xx_HAL_Driver/Src/stm32f4xx_hal_i2c.c **** 
 658:Drivers/STM32F4xx_HAL_Driver/Src/stm32f4xx_hal_i2c.c ****   if (pCallback == NULL)
 659:Drivers/STM32F4xx_HAL_Driver/Src/stm32f4xx_hal_i2c.c ****   {
 660:Drivers/STM32F4xx_HAL_Driver/Src/stm32f4xx_hal_i2c.c ****     /* Update the error code */
 661:Drivers/STM32F4xx_HAL_Driver/Src/stm32f4xx_hal_i2c.c ****     hi2c->ErrorCode |= HAL_I2C_ERROR_INVALID_CALLBACK;
 662:Drivers/STM32F4xx_HAL_Driver/Src/stm32f4xx_hal_i2c.c **** 
 663:Drivers/STM32F4xx_HAL_Driver/Src/stm32f4xx_hal_i2c.c ****     return HAL_ERROR;
 664:Drivers/STM32F4xx_HAL_Driver/Src/stm32f4xx_hal_i2c.c ****   }
 665:Drivers/STM32F4xx_HAL_Driver/Src/stm32f4xx_hal_i2c.c ****   /* Process locked */
 666:Drivers/STM32F4xx_HAL_Driver/Src/stm32f4xx_hal_i2c.c ****   __HAL_LOCK(hi2c);
 667:Drivers/STM32F4xx_HAL_Driver/Src/stm32f4xx_hal_i2c.c **** 
 668:Drivers/STM32F4xx_HAL_Driver/Src/stm32f4xx_hal_i2c.c ****   if (HAL_I2C_STATE_READY == hi2c->State)
 669:Drivers/STM32F4xx_HAL_Driver/Src/stm32f4xx_hal_i2c.c ****   {
 670:Drivers/STM32F4xx_HAL_Driver/Src/stm32f4xx_hal_i2c.c ****     switch (CallbackID)
 671:Drivers/STM32F4xx_HAL_Driver/Src/stm32f4xx_hal_i2c.c ****     {
 672:Drivers/STM32F4xx_HAL_Driver/Src/stm32f4xx_hal_i2c.c ****       case HAL_I2C_MASTER_TX_COMPLETE_CB_ID :
 673:Drivers/STM32F4xx_HAL_Driver/Src/stm32f4xx_hal_i2c.c ****         hi2c->MasterTxCpltCallback = pCallback;
 674:Drivers/STM32F4xx_HAL_Driver/Src/stm32f4xx_hal_i2c.c ****         break;
 675:Drivers/STM32F4xx_HAL_Driver/Src/stm32f4xx_hal_i2c.c **** 
 676:Drivers/STM32F4xx_HAL_Driver/Src/stm32f4xx_hal_i2c.c ****       case HAL_I2C_MASTER_RX_COMPLETE_CB_ID :
 677:Drivers/STM32F4xx_HAL_Driver/Src/stm32f4xx_hal_i2c.c ****         hi2c->MasterRxCpltCallback = pCallback;
 678:Drivers/STM32F4xx_HAL_Driver/Src/stm32f4xx_hal_i2c.c ****         break;
 679:Drivers/STM32F4xx_HAL_Driver/Src/stm32f4xx_hal_i2c.c **** 
 680:Drivers/STM32F4xx_HAL_Driver/Src/stm32f4xx_hal_i2c.c ****       case HAL_I2C_SLAVE_TX_COMPLETE_CB_ID :
 681:Drivers/STM32F4xx_HAL_Driver/Src/stm32f4xx_hal_i2c.c ****         hi2c->SlaveTxCpltCallback = pCallback;
 682:Drivers/STM32F4xx_HAL_Driver/Src/stm32f4xx_hal_i2c.c ****         break;
 683:Drivers/STM32F4xx_HAL_Driver/Src/stm32f4xx_hal_i2c.c **** 
 684:Drivers/STM32F4xx_HAL_Driver/Src/stm32f4xx_hal_i2c.c ****       case HAL_I2C_SLAVE_RX_COMPLETE_CB_ID :
 685:Drivers/STM32F4xx_HAL_Driver/Src/stm32f4xx_hal_i2c.c ****         hi2c->SlaveRxCpltCallback = pCallback;
 686:Drivers/STM32F4xx_HAL_Driver/Src/stm32f4xx_hal_i2c.c ****         break;
 687:Drivers/STM32F4xx_HAL_Driver/Src/stm32f4xx_hal_i2c.c **** 
 688:Drivers/STM32F4xx_HAL_Driver/Src/stm32f4xx_hal_i2c.c ****       case HAL_I2C_LISTEN_COMPLETE_CB_ID :
 689:Drivers/STM32F4xx_HAL_Driver/Src/stm32f4xx_hal_i2c.c ****         hi2c->ListenCpltCallback = pCallback;
 690:Drivers/STM32F4xx_HAL_Driver/Src/stm32f4xx_hal_i2c.c ****         break;
 691:Drivers/STM32F4xx_HAL_Driver/Src/stm32f4xx_hal_i2c.c **** 
 692:Drivers/STM32F4xx_HAL_Driver/Src/stm32f4xx_hal_i2c.c ****       case HAL_I2C_MEM_TX_COMPLETE_CB_ID :
 693:Drivers/STM32F4xx_HAL_Driver/Src/stm32f4xx_hal_i2c.c ****         hi2c->MemTxCpltCallback = pCallback;
 694:Drivers/STM32F4xx_HAL_Driver/Src/stm32f4xx_hal_i2c.c ****         break;
 695:Drivers/STM32F4xx_HAL_Driver/Src/stm32f4xx_hal_i2c.c **** 
 696:Drivers/STM32F4xx_HAL_Driver/Src/stm32f4xx_hal_i2c.c ****       case HAL_I2C_MEM_RX_COMPLETE_CB_ID :
 697:Drivers/STM32F4xx_HAL_Driver/Src/stm32f4xx_hal_i2c.c ****         hi2c->MemRxCpltCallback = pCallback;
 698:Drivers/STM32F4xx_HAL_Driver/Src/stm32f4xx_hal_i2c.c ****         break;
 699:Drivers/STM32F4xx_HAL_Driver/Src/stm32f4xx_hal_i2c.c **** 
 700:Drivers/STM32F4xx_HAL_Driver/Src/stm32f4xx_hal_i2c.c ****       case HAL_I2C_ERROR_CB_ID :
 701:Drivers/STM32F4xx_HAL_Driver/Src/stm32f4xx_hal_i2c.c ****         hi2c->ErrorCallback = pCallback;
 702:Drivers/STM32F4xx_HAL_Driver/Src/stm32f4xx_hal_i2c.c ****         break;
 703:Drivers/STM32F4xx_HAL_Driver/Src/stm32f4xx_hal_i2c.c **** 
 704:Drivers/STM32F4xx_HAL_Driver/Src/stm32f4xx_hal_i2c.c ****       case HAL_I2C_ABORT_CB_ID :
 705:Drivers/STM32F4xx_HAL_Driver/Src/stm32f4xx_hal_i2c.c ****         hi2c->AbortCpltCallback = pCallback;
 706:Drivers/STM32F4xx_HAL_Driver/Src/stm32f4xx_hal_i2c.c ****         break;
 707:Drivers/STM32F4xx_HAL_Driver/Src/stm32f4xx_hal_i2c.c **** 
 708:Drivers/STM32F4xx_HAL_Driver/Src/stm32f4xx_hal_i2c.c ****       case HAL_I2C_MSPINIT_CB_ID :
 709:Drivers/STM32F4xx_HAL_Driver/Src/stm32f4xx_hal_i2c.c ****         hi2c->MspInitCallback = pCallback;
 710:Drivers/STM32F4xx_HAL_Driver/Src/stm32f4xx_hal_i2c.c ****         break;
ARM GAS  C:\Users\Halil\AppData\Local\Temp\ccvukMBT.s 			page 23


 711:Drivers/STM32F4xx_HAL_Driver/Src/stm32f4xx_hal_i2c.c **** 
 712:Drivers/STM32F4xx_HAL_Driver/Src/stm32f4xx_hal_i2c.c ****       case HAL_I2C_MSPDEINIT_CB_ID :
 713:Drivers/STM32F4xx_HAL_Driver/Src/stm32f4xx_hal_i2c.c ****         hi2c->MspDeInitCallback = pCallback;
 714:Drivers/STM32F4xx_HAL_Driver/Src/stm32f4xx_hal_i2c.c ****         break;
 715:Drivers/STM32F4xx_HAL_Driver/Src/stm32f4xx_hal_i2c.c **** 
 716:Drivers/STM32F4xx_HAL_Driver/Src/stm32f4xx_hal_i2c.c ****       default :
 717:Drivers/STM32F4xx_HAL_Driver/Src/stm32f4xx_hal_i2c.c ****         /* Update the error code */
 718:Drivers/STM32F4xx_HAL_Driver/Src/stm32f4xx_hal_i2c.c ****         hi2c->ErrorCode |= HAL_I2C_ERROR_INVALID_CALLBACK;
 719:Drivers/STM32F4xx_HAL_Driver/Src/stm32f4xx_hal_i2c.c **** 
 720:Drivers/STM32F4xx_HAL_Driver/Src/stm32f4xx_hal_i2c.c ****         /* Return error status */
 721:Drivers/STM32F4xx_HAL_Driver/Src/stm32f4xx_hal_i2c.c ****         status =  HAL_ERROR;
 722:Drivers/STM32F4xx_HAL_Driver/Src/stm32f4xx_hal_i2c.c ****         break;
 723:Drivers/STM32F4xx_HAL_Driver/Src/stm32f4xx_hal_i2c.c ****     }
 724:Drivers/STM32F4xx_HAL_Driver/Src/stm32f4xx_hal_i2c.c ****   }
 725:Drivers/STM32F4xx_HAL_Driver/Src/stm32f4xx_hal_i2c.c ****   else if (HAL_I2C_STATE_RESET == hi2c->State)
 726:Drivers/STM32F4xx_HAL_Driver/Src/stm32f4xx_hal_i2c.c ****   {
 727:Drivers/STM32F4xx_HAL_Driver/Src/stm32f4xx_hal_i2c.c ****     switch (CallbackID)
 728:Drivers/STM32F4xx_HAL_Driver/Src/stm32f4xx_hal_i2c.c ****     {
 729:Drivers/STM32F4xx_HAL_Driver/Src/stm32f4xx_hal_i2c.c ****       case HAL_I2C_MSPINIT_CB_ID :
 730:Drivers/STM32F4xx_HAL_Driver/Src/stm32f4xx_hal_i2c.c ****         hi2c->MspInitCallback = pCallback;
 731:Drivers/STM32F4xx_HAL_Driver/Src/stm32f4xx_hal_i2c.c ****         break;
 732:Drivers/STM32F4xx_HAL_Driver/Src/stm32f4xx_hal_i2c.c **** 
 733:Drivers/STM32F4xx_HAL_Driver/Src/stm32f4xx_hal_i2c.c ****       case HAL_I2C_MSPDEINIT_CB_ID :
 734:Drivers/STM32F4xx_HAL_Driver/Src/stm32f4xx_hal_i2c.c ****         hi2c->MspDeInitCallback = pCallback;
 735:Drivers/STM32F4xx_HAL_Driver/Src/stm32f4xx_hal_i2c.c ****         break;
 736:Drivers/STM32F4xx_HAL_Driver/Src/stm32f4xx_hal_i2c.c **** 
 737:Drivers/STM32F4xx_HAL_Driver/Src/stm32f4xx_hal_i2c.c ****       default :
 738:Drivers/STM32F4xx_HAL_Driver/Src/stm32f4xx_hal_i2c.c ****         /* Update the error code */
 739:Drivers/STM32F4xx_HAL_Driver/Src/stm32f4xx_hal_i2c.c ****         hi2c->ErrorCode |= HAL_I2C_ERROR_INVALID_CALLBACK;
 740:Drivers/STM32F4xx_HAL_Driver/Src/stm32f4xx_hal_i2c.c **** 
 741:Drivers/STM32F4xx_HAL_Driver/Src/stm32f4xx_hal_i2c.c ****         /* Return error status */
 742:Drivers/STM32F4xx_HAL_Driver/Src/stm32f4xx_hal_i2c.c ****         status =  HAL_ERROR;
 743:Drivers/STM32F4xx_HAL_Driver/Src/stm32f4xx_hal_i2c.c ****         break;
 744:Drivers/STM32F4xx_HAL_Driver/Src/stm32f4xx_hal_i2c.c ****     }
 745:Drivers/STM32F4xx_HAL_Driver/Src/stm32f4xx_hal_i2c.c ****   }
 746:Drivers/STM32F4xx_HAL_Driver/Src/stm32f4xx_hal_i2c.c ****   else
 747:Drivers/STM32F4xx_HAL_Driver/Src/stm32f4xx_hal_i2c.c ****   {
 748:Drivers/STM32F4xx_HAL_Driver/Src/stm32f4xx_hal_i2c.c ****     /* Update the error code */
 749:Drivers/STM32F4xx_HAL_Driver/Src/stm32f4xx_hal_i2c.c ****     hi2c->ErrorCode |= HAL_I2C_ERROR_INVALID_CALLBACK;
 750:Drivers/STM32F4xx_HAL_Driver/Src/stm32f4xx_hal_i2c.c **** 
 751:Drivers/STM32F4xx_HAL_Driver/Src/stm32f4xx_hal_i2c.c ****     /* Return error status */
 752:Drivers/STM32F4xx_HAL_Driver/Src/stm32f4xx_hal_i2c.c ****     status =  HAL_ERROR;
 753:Drivers/STM32F4xx_HAL_Driver/Src/stm32f4xx_hal_i2c.c ****   }
 754:Drivers/STM32F4xx_HAL_Driver/Src/stm32f4xx_hal_i2c.c **** 
 755:Drivers/STM32F4xx_HAL_Driver/Src/stm32f4xx_hal_i2c.c ****   /* Release Lock */
 756:Drivers/STM32F4xx_HAL_Driver/Src/stm32f4xx_hal_i2c.c ****   __HAL_UNLOCK(hi2c);
 757:Drivers/STM32F4xx_HAL_Driver/Src/stm32f4xx_hal_i2c.c ****   return status;
 758:Drivers/STM32F4xx_HAL_Driver/Src/stm32f4xx_hal_i2c.c **** }
 759:Drivers/STM32F4xx_HAL_Driver/Src/stm32f4xx_hal_i2c.c **** 
 760:Drivers/STM32F4xx_HAL_Driver/Src/stm32f4xx_hal_i2c.c **** /**
 761:Drivers/STM32F4xx_HAL_Driver/Src/stm32f4xx_hal_i2c.c ****   * @brief  Unregister an I2C Callback
 762:Drivers/STM32F4xx_HAL_Driver/Src/stm32f4xx_hal_i2c.c ****   *         I2C callback is redirected to the weak predefined callback
 763:Drivers/STM32F4xx_HAL_Driver/Src/stm32f4xx_hal_i2c.c ****   * @param  hi2c Pointer to a I2C_HandleTypeDef structure that contains
 764:Drivers/STM32F4xx_HAL_Driver/Src/stm32f4xx_hal_i2c.c ****   *                the configuration information for the specified I2C.
 765:Drivers/STM32F4xx_HAL_Driver/Src/stm32f4xx_hal_i2c.c ****   * @param  CallbackID ID of the callback to be unregistered
 766:Drivers/STM32F4xx_HAL_Driver/Src/stm32f4xx_hal_i2c.c ****   *         This parameter can be one of the following values:
 767:Drivers/STM32F4xx_HAL_Driver/Src/stm32f4xx_hal_i2c.c ****   *         This parameter can be one of the following values:
ARM GAS  C:\Users\Halil\AppData\Local\Temp\ccvukMBT.s 			page 24


 768:Drivers/STM32F4xx_HAL_Driver/Src/stm32f4xx_hal_i2c.c ****   *          @arg @ref HAL_I2C_MASTER_TX_COMPLETE_CB_ID Master Tx Transfer completed callback ID
 769:Drivers/STM32F4xx_HAL_Driver/Src/stm32f4xx_hal_i2c.c ****   *          @arg @ref HAL_I2C_MASTER_RX_COMPLETE_CB_ID Master Rx Transfer completed callback ID
 770:Drivers/STM32F4xx_HAL_Driver/Src/stm32f4xx_hal_i2c.c ****   *          @arg @ref HAL_I2C_SLAVE_TX_COMPLETE_CB_ID Slave Tx Transfer completed callback ID
 771:Drivers/STM32F4xx_HAL_Driver/Src/stm32f4xx_hal_i2c.c ****   *          @arg @ref HAL_I2C_SLAVE_RX_COMPLETE_CB_ID Slave Rx Transfer completed callback ID
 772:Drivers/STM32F4xx_HAL_Driver/Src/stm32f4xx_hal_i2c.c ****   *          @arg @ref HAL_I2C_LISTEN_COMPLETE_CB_ID Listen Complete callback ID
 773:Drivers/STM32F4xx_HAL_Driver/Src/stm32f4xx_hal_i2c.c ****   *          @arg @ref HAL_I2C_MEM_TX_COMPLETE_CB_ID Memory Tx Transfer callback ID
 774:Drivers/STM32F4xx_HAL_Driver/Src/stm32f4xx_hal_i2c.c ****   *          @arg @ref HAL_I2C_MEM_RX_COMPLETE_CB_ID Memory Rx Transfer completed callback ID
 775:Drivers/STM32F4xx_HAL_Driver/Src/stm32f4xx_hal_i2c.c ****   *          @arg @ref HAL_I2C_ERROR_CB_ID Error callback ID
 776:Drivers/STM32F4xx_HAL_Driver/Src/stm32f4xx_hal_i2c.c ****   *          @arg @ref HAL_I2C_ABORT_CB_ID Abort callback ID
 777:Drivers/STM32F4xx_HAL_Driver/Src/stm32f4xx_hal_i2c.c ****   *          @arg @ref HAL_I2C_MSPINIT_CB_ID MspInit callback ID
 778:Drivers/STM32F4xx_HAL_Driver/Src/stm32f4xx_hal_i2c.c ****   *          @arg @ref HAL_I2C_MSPDEINIT_CB_ID MspDeInit callback ID
 779:Drivers/STM32F4xx_HAL_Driver/Src/stm32f4xx_hal_i2c.c ****   * @retval HAL status
 780:Drivers/STM32F4xx_HAL_Driver/Src/stm32f4xx_hal_i2c.c ****   */
 781:Drivers/STM32F4xx_HAL_Driver/Src/stm32f4xx_hal_i2c.c **** HAL_StatusTypeDef HAL_I2C_UnRegisterCallback(I2C_HandleTypeDef *hi2c, HAL_I2C_CallbackIDTypeDef Cal
 782:Drivers/STM32F4xx_HAL_Driver/Src/stm32f4xx_hal_i2c.c **** {
 783:Drivers/STM32F4xx_HAL_Driver/Src/stm32f4xx_hal_i2c.c ****   HAL_StatusTypeDef status = HAL_OK;
 784:Drivers/STM32F4xx_HAL_Driver/Src/stm32f4xx_hal_i2c.c **** 
 785:Drivers/STM32F4xx_HAL_Driver/Src/stm32f4xx_hal_i2c.c ****   /* Process locked */
 786:Drivers/STM32F4xx_HAL_Driver/Src/stm32f4xx_hal_i2c.c ****   __HAL_LOCK(hi2c);
 787:Drivers/STM32F4xx_HAL_Driver/Src/stm32f4xx_hal_i2c.c **** 
 788:Drivers/STM32F4xx_HAL_Driver/Src/stm32f4xx_hal_i2c.c ****   if (HAL_I2C_STATE_READY == hi2c->State)
 789:Drivers/STM32F4xx_HAL_Driver/Src/stm32f4xx_hal_i2c.c ****   {
 790:Drivers/STM32F4xx_HAL_Driver/Src/stm32f4xx_hal_i2c.c ****     switch (CallbackID)
 791:Drivers/STM32F4xx_HAL_Driver/Src/stm32f4xx_hal_i2c.c ****     {
 792:Drivers/STM32F4xx_HAL_Driver/Src/stm32f4xx_hal_i2c.c ****       case HAL_I2C_MASTER_TX_COMPLETE_CB_ID :
 793:Drivers/STM32F4xx_HAL_Driver/Src/stm32f4xx_hal_i2c.c ****         hi2c->MasterTxCpltCallback = HAL_I2C_MasterTxCpltCallback; /* Legacy weak MasterTxCpltCallb
 794:Drivers/STM32F4xx_HAL_Driver/Src/stm32f4xx_hal_i2c.c ****         break;
 795:Drivers/STM32F4xx_HAL_Driver/Src/stm32f4xx_hal_i2c.c **** 
 796:Drivers/STM32F4xx_HAL_Driver/Src/stm32f4xx_hal_i2c.c ****       case HAL_I2C_MASTER_RX_COMPLETE_CB_ID :
 797:Drivers/STM32F4xx_HAL_Driver/Src/stm32f4xx_hal_i2c.c ****         hi2c->MasterRxCpltCallback = HAL_I2C_MasterRxCpltCallback; /* Legacy weak MasterRxCpltCallb
 798:Drivers/STM32F4xx_HAL_Driver/Src/stm32f4xx_hal_i2c.c ****         break;
 799:Drivers/STM32F4xx_HAL_Driver/Src/stm32f4xx_hal_i2c.c **** 
 800:Drivers/STM32F4xx_HAL_Driver/Src/stm32f4xx_hal_i2c.c ****       case HAL_I2C_SLAVE_TX_COMPLETE_CB_ID :
 801:Drivers/STM32F4xx_HAL_Driver/Src/stm32f4xx_hal_i2c.c ****         hi2c->SlaveTxCpltCallback = HAL_I2C_SlaveTxCpltCallback;   /* Legacy weak SlaveTxCpltCallba
 802:Drivers/STM32F4xx_HAL_Driver/Src/stm32f4xx_hal_i2c.c ****         break;
 803:Drivers/STM32F4xx_HAL_Driver/Src/stm32f4xx_hal_i2c.c **** 
 804:Drivers/STM32F4xx_HAL_Driver/Src/stm32f4xx_hal_i2c.c ****       case HAL_I2C_SLAVE_RX_COMPLETE_CB_ID :
 805:Drivers/STM32F4xx_HAL_Driver/Src/stm32f4xx_hal_i2c.c ****         hi2c->SlaveRxCpltCallback = HAL_I2C_SlaveRxCpltCallback;   /* Legacy weak SlaveRxCpltCallba
 806:Drivers/STM32F4xx_HAL_Driver/Src/stm32f4xx_hal_i2c.c ****         break;
 807:Drivers/STM32F4xx_HAL_Driver/Src/stm32f4xx_hal_i2c.c **** 
 808:Drivers/STM32F4xx_HAL_Driver/Src/stm32f4xx_hal_i2c.c ****       case HAL_I2C_LISTEN_COMPLETE_CB_ID :
 809:Drivers/STM32F4xx_HAL_Driver/Src/stm32f4xx_hal_i2c.c ****         hi2c->ListenCpltCallback = HAL_I2C_ListenCpltCallback;     /* Legacy weak ListenCpltCallbac
 810:Drivers/STM32F4xx_HAL_Driver/Src/stm32f4xx_hal_i2c.c ****         break;
 811:Drivers/STM32F4xx_HAL_Driver/Src/stm32f4xx_hal_i2c.c **** 
 812:Drivers/STM32F4xx_HAL_Driver/Src/stm32f4xx_hal_i2c.c ****       case HAL_I2C_MEM_TX_COMPLETE_CB_ID :
 813:Drivers/STM32F4xx_HAL_Driver/Src/stm32f4xx_hal_i2c.c ****         hi2c->MemTxCpltCallback = HAL_I2C_MemTxCpltCallback;       /* Legacy weak MemTxCpltCallback
 814:Drivers/STM32F4xx_HAL_Driver/Src/stm32f4xx_hal_i2c.c ****         break;
 815:Drivers/STM32F4xx_HAL_Driver/Src/stm32f4xx_hal_i2c.c **** 
 816:Drivers/STM32F4xx_HAL_Driver/Src/stm32f4xx_hal_i2c.c ****       case HAL_I2C_MEM_RX_COMPLETE_CB_ID :
 817:Drivers/STM32F4xx_HAL_Driver/Src/stm32f4xx_hal_i2c.c ****         hi2c->MemRxCpltCallback = HAL_I2C_MemRxCpltCallback;       /* Legacy weak MemRxCpltCallback
 818:Drivers/STM32F4xx_HAL_Driver/Src/stm32f4xx_hal_i2c.c ****         break;
 819:Drivers/STM32F4xx_HAL_Driver/Src/stm32f4xx_hal_i2c.c **** 
 820:Drivers/STM32F4xx_HAL_Driver/Src/stm32f4xx_hal_i2c.c ****       case HAL_I2C_ERROR_CB_ID :
 821:Drivers/STM32F4xx_HAL_Driver/Src/stm32f4xx_hal_i2c.c ****         hi2c->ErrorCallback = HAL_I2C_ErrorCallback;               /* Legacy weak ErrorCallback    
 822:Drivers/STM32F4xx_HAL_Driver/Src/stm32f4xx_hal_i2c.c ****         break;
 823:Drivers/STM32F4xx_HAL_Driver/Src/stm32f4xx_hal_i2c.c **** 
 824:Drivers/STM32F4xx_HAL_Driver/Src/stm32f4xx_hal_i2c.c ****       case HAL_I2C_ABORT_CB_ID :
ARM GAS  C:\Users\Halil\AppData\Local\Temp\ccvukMBT.s 			page 25


 825:Drivers/STM32F4xx_HAL_Driver/Src/stm32f4xx_hal_i2c.c ****         hi2c->AbortCpltCallback = HAL_I2C_AbortCpltCallback;       /* Legacy weak AbortCpltCallback
 826:Drivers/STM32F4xx_HAL_Driver/Src/stm32f4xx_hal_i2c.c ****         break;
 827:Drivers/STM32F4xx_HAL_Driver/Src/stm32f4xx_hal_i2c.c **** 
 828:Drivers/STM32F4xx_HAL_Driver/Src/stm32f4xx_hal_i2c.c ****       case HAL_I2C_MSPINIT_CB_ID :
 829:Drivers/STM32F4xx_HAL_Driver/Src/stm32f4xx_hal_i2c.c ****         hi2c->MspInitCallback = HAL_I2C_MspInit;                   /* Legacy weak MspInit          
 830:Drivers/STM32F4xx_HAL_Driver/Src/stm32f4xx_hal_i2c.c ****         break;
 831:Drivers/STM32F4xx_HAL_Driver/Src/stm32f4xx_hal_i2c.c **** 
 832:Drivers/STM32F4xx_HAL_Driver/Src/stm32f4xx_hal_i2c.c ****       case HAL_I2C_MSPDEINIT_CB_ID :
 833:Drivers/STM32F4xx_HAL_Driver/Src/stm32f4xx_hal_i2c.c ****         hi2c->MspDeInitCallback = HAL_I2C_MspDeInit;               /* Legacy weak MspDeInit        
 834:Drivers/STM32F4xx_HAL_Driver/Src/stm32f4xx_hal_i2c.c ****         break;
 835:Drivers/STM32F4xx_HAL_Driver/Src/stm32f4xx_hal_i2c.c **** 
 836:Drivers/STM32F4xx_HAL_Driver/Src/stm32f4xx_hal_i2c.c ****       default :
 837:Drivers/STM32F4xx_HAL_Driver/Src/stm32f4xx_hal_i2c.c ****         /* Update the error code */
 838:Drivers/STM32F4xx_HAL_Driver/Src/stm32f4xx_hal_i2c.c ****         hi2c->ErrorCode |= HAL_I2C_ERROR_INVALID_CALLBACK;
 839:Drivers/STM32F4xx_HAL_Driver/Src/stm32f4xx_hal_i2c.c **** 
 840:Drivers/STM32F4xx_HAL_Driver/Src/stm32f4xx_hal_i2c.c ****         /* Return error status */
 841:Drivers/STM32F4xx_HAL_Driver/Src/stm32f4xx_hal_i2c.c ****         status =  HAL_ERROR;
 842:Drivers/STM32F4xx_HAL_Driver/Src/stm32f4xx_hal_i2c.c ****         break;
 843:Drivers/STM32F4xx_HAL_Driver/Src/stm32f4xx_hal_i2c.c ****     }
 844:Drivers/STM32F4xx_HAL_Driver/Src/stm32f4xx_hal_i2c.c ****   }
 845:Drivers/STM32F4xx_HAL_Driver/Src/stm32f4xx_hal_i2c.c ****   else if (HAL_I2C_STATE_RESET == hi2c->State)
 846:Drivers/STM32F4xx_HAL_Driver/Src/stm32f4xx_hal_i2c.c ****   {
 847:Drivers/STM32F4xx_HAL_Driver/Src/stm32f4xx_hal_i2c.c ****     switch (CallbackID)
 848:Drivers/STM32F4xx_HAL_Driver/Src/stm32f4xx_hal_i2c.c ****     {
 849:Drivers/STM32F4xx_HAL_Driver/Src/stm32f4xx_hal_i2c.c ****       case HAL_I2C_MSPINIT_CB_ID :
 850:Drivers/STM32F4xx_HAL_Driver/Src/stm32f4xx_hal_i2c.c ****         hi2c->MspInitCallback = HAL_I2C_MspInit;                   /* Legacy weak MspInit          
 851:Drivers/STM32F4xx_HAL_Driver/Src/stm32f4xx_hal_i2c.c ****         break;
 852:Drivers/STM32F4xx_HAL_Driver/Src/stm32f4xx_hal_i2c.c **** 
 853:Drivers/STM32F4xx_HAL_Driver/Src/stm32f4xx_hal_i2c.c ****       case HAL_I2C_MSPDEINIT_CB_ID :
 854:Drivers/STM32F4xx_HAL_Driver/Src/stm32f4xx_hal_i2c.c ****         hi2c->MspDeInitCallback = HAL_I2C_MspDeInit;               /* Legacy weak MspDeInit        
 855:Drivers/STM32F4xx_HAL_Driver/Src/stm32f4xx_hal_i2c.c ****         break;
 856:Drivers/STM32F4xx_HAL_Driver/Src/stm32f4xx_hal_i2c.c **** 
 857:Drivers/STM32F4xx_HAL_Driver/Src/stm32f4xx_hal_i2c.c ****       default :
 858:Drivers/STM32F4xx_HAL_Driver/Src/stm32f4xx_hal_i2c.c ****         /* Update the error code */
 859:Drivers/STM32F4xx_HAL_Driver/Src/stm32f4xx_hal_i2c.c ****         hi2c->ErrorCode |= HAL_I2C_ERROR_INVALID_CALLBACK;
 860:Drivers/STM32F4xx_HAL_Driver/Src/stm32f4xx_hal_i2c.c **** 
 861:Drivers/STM32F4xx_HAL_Driver/Src/stm32f4xx_hal_i2c.c ****         /* Return error status */
 862:Drivers/STM32F4xx_HAL_Driver/Src/stm32f4xx_hal_i2c.c ****         status =  HAL_ERROR;
 863:Drivers/STM32F4xx_HAL_Driver/Src/stm32f4xx_hal_i2c.c ****         break;
 864:Drivers/STM32F4xx_HAL_Driver/Src/stm32f4xx_hal_i2c.c ****     }
 865:Drivers/STM32F4xx_HAL_Driver/Src/stm32f4xx_hal_i2c.c ****   }
 866:Drivers/STM32F4xx_HAL_Driver/Src/stm32f4xx_hal_i2c.c ****   else
 867:Drivers/STM32F4xx_HAL_Driver/Src/stm32f4xx_hal_i2c.c ****   {
 868:Drivers/STM32F4xx_HAL_Driver/Src/stm32f4xx_hal_i2c.c ****     /* Update the error code */
 869:Drivers/STM32F4xx_HAL_Driver/Src/stm32f4xx_hal_i2c.c ****     hi2c->ErrorCode |= HAL_I2C_ERROR_INVALID_CALLBACK;
 870:Drivers/STM32F4xx_HAL_Driver/Src/stm32f4xx_hal_i2c.c **** 
 871:Drivers/STM32F4xx_HAL_Driver/Src/stm32f4xx_hal_i2c.c ****     /* Return error status */
 872:Drivers/STM32F4xx_HAL_Driver/Src/stm32f4xx_hal_i2c.c ****     status =  HAL_ERROR;
 873:Drivers/STM32F4xx_HAL_Driver/Src/stm32f4xx_hal_i2c.c ****   }
 874:Drivers/STM32F4xx_HAL_Driver/Src/stm32f4xx_hal_i2c.c **** 
 875:Drivers/STM32F4xx_HAL_Driver/Src/stm32f4xx_hal_i2c.c ****   /* Release Lock */
 876:Drivers/STM32F4xx_HAL_Driver/Src/stm32f4xx_hal_i2c.c ****   __HAL_UNLOCK(hi2c);
 877:Drivers/STM32F4xx_HAL_Driver/Src/stm32f4xx_hal_i2c.c ****   return status;
 878:Drivers/STM32F4xx_HAL_Driver/Src/stm32f4xx_hal_i2c.c **** }
 879:Drivers/STM32F4xx_HAL_Driver/Src/stm32f4xx_hal_i2c.c **** 
 880:Drivers/STM32F4xx_HAL_Driver/Src/stm32f4xx_hal_i2c.c **** /**
 881:Drivers/STM32F4xx_HAL_Driver/Src/stm32f4xx_hal_i2c.c ****   * @brief  Register the Slave Address Match I2C Callback
ARM GAS  C:\Users\Halil\AppData\Local\Temp\ccvukMBT.s 			page 26


 882:Drivers/STM32F4xx_HAL_Driver/Src/stm32f4xx_hal_i2c.c ****   *         To be used instead of the weak HAL_I2C_AddrCallback() predefined callback
 883:Drivers/STM32F4xx_HAL_Driver/Src/stm32f4xx_hal_i2c.c ****   * @param  hi2c Pointer to a I2C_HandleTypeDef structure that contains
 884:Drivers/STM32F4xx_HAL_Driver/Src/stm32f4xx_hal_i2c.c ****   *                the configuration information for the specified I2C.
 885:Drivers/STM32F4xx_HAL_Driver/Src/stm32f4xx_hal_i2c.c ****   * @param  pCallback pointer to the Address Match Callback function
 886:Drivers/STM32F4xx_HAL_Driver/Src/stm32f4xx_hal_i2c.c ****   * @retval HAL status
 887:Drivers/STM32F4xx_HAL_Driver/Src/stm32f4xx_hal_i2c.c ****   */
 888:Drivers/STM32F4xx_HAL_Driver/Src/stm32f4xx_hal_i2c.c **** HAL_StatusTypeDef HAL_I2C_RegisterAddrCallback(I2C_HandleTypeDef *hi2c, pI2C_AddrCallbackTypeDef pC
 889:Drivers/STM32F4xx_HAL_Driver/Src/stm32f4xx_hal_i2c.c **** {
 890:Drivers/STM32F4xx_HAL_Driver/Src/stm32f4xx_hal_i2c.c ****   HAL_StatusTypeDef status = HAL_OK;
 891:Drivers/STM32F4xx_HAL_Driver/Src/stm32f4xx_hal_i2c.c **** 
 892:Drivers/STM32F4xx_HAL_Driver/Src/stm32f4xx_hal_i2c.c ****   if (pCallback == NULL)
 893:Drivers/STM32F4xx_HAL_Driver/Src/stm32f4xx_hal_i2c.c ****   {
 894:Drivers/STM32F4xx_HAL_Driver/Src/stm32f4xx_hal_i2c.c ****     /* Update the error code */
 895:Drivers/STM32F4xx_HAL_Driver/Src/stm32f4xx_hal_i2c.c ****     hi2c->ErrorCode |= HAL_I2C_ERROR_INVALID_CALLBACK;
 896:Drivers/STM32F4xx_HAL_Driver/Src/stm32f4xx_hal_i2c.c **** 
 897:Drivers/STM32F4xx_HAL_Driver/Src/stm32f4xx_hal_i2c.c ****     return HAL_ERROR;
 898:Drivers/STM32F4xx_HAL_Driver/Src/stm32f4xx_hal_i2c.c ****   }
 899:Drivers/STM32F4xx_HAL_Driver/Src/stm32f4xx_hal_i2c.c ****   /* Process locked */
 900:Drivers/STM32F4xx_HAL_Driver/Src/stm32f4xx_hal_i2c.c ****   __HAL_LOCK(hi2c);
 901:Drivers/STM32F4xx_HAL_Driver/Src/stm32f4xx_hal_i2c.c **** 
 902:Drivers/STM32F4xx_HAL_Driver/Src/stm32f4xx_hal_i2c.c ****   if (HAL_I2C_STATE_READY == hi2c->State)
 903:Drivers/STM32F4xx_HAL_Driver/Src/stm32f4xx_hal_i2c.c ****   {
 904:Drivers/STM32F4xx_HAL_Driver/Src/stm32f4xx_hal_i2c.c ****     hi2c->AddrCallback = pCallback;
 905:Drivers/STM32F4xx_HAL_Driver/Src/stm32f4xx_hal_i2c.c ****   }
 906:Drivers/STM32F4xx_HAL_Driver/Src/stm32f4xx_hal_i2c.c ****   else
 907:Drivers/STM32F4xx_HAL_Driver/Src/stm32f4xx_hal_i2c.c ****   {
 908:Drivers/STM32F4xx_HAL_Driver/Src/stm32f4xx_hal_i2c.c ****     /* Update the error code */
 909:Drivers/STM32F4xx_HAL_Driver/Src/stm32f4xx_hal_i2c.c ****     hi2c->ErrorCode |= HAL_I2C_ERROR_INVALID_CALLBACK;
 910:Drivers/STM32F4xx_HAL_Driver/Src/stm32f4xx_hal_i2c.c **** 
 911:Drivers/STM32F4xx_HAL_Driver/Src/stm32f4xx_hal_i2c.c ****     /* Return error status */
 912:Drivers/STM32F4xx_HAL_Driver/Src/stm32f4xx_hal_i2c.c ****     status =  HAL_ERROR;
 913:Drivers/STM32F4xx_HAL_Driver/Src/stm32f4xx_hal_i2c.c ****   }
 914:Drivers/STM32F4xx_HAL_Driver/Src/stm32f4xx_hal_i2c.c **** 
 915:Drivers/STM32F4xx_HAL_Driver/Src/stm32f4xx_hal_i2c.c ****   /* Release Lock */
 916:Drivers/STM32F4xx_HAL_Driver/Src/stm32f4xx_hal_i2c.c ****   __HAL_UNLOCK(hi2c);
 917:Drivers/STM32F4xx_HAL_Driver/Src/stm32f4xx_hal_i2c.c ****   return status;
 918:Drivers/STM32F4xx_HAL_Driver/Src/stm32f4xx_hal_i2c.c **** }
 919:Drivers/STM32F4xx_HAL_Driver/Src/stm32f4xx_hal_i2c.c **** 
 920:Drivers/STM32F4xx_HAL_Driver/Src/stm32f4xx_hal_i2c.c **** /**
 921:Drivers/STM32F4xx_HAL_Driver/Src/stm32f4xx_hal_i2c.c ****   * @brief  UnRegister the Slave Address Match I2C Callback
 922:Drivers/STM32F4xx_HAL_Driver/Src/stm32f4xx_hal_i2c.c ****   *         Info Ready I2C Callback is redirected to the weak HAL_I2C_AddrCallback() predefined cal
 923:Drivers/STM32F4xx_HAL_Driver/Src/stm32f4xx_hal_i2c.c ****   * @param  hi2c Pointer to a I2C_HandleTypeDef structure that contains
 924:Drivers/STM32F4xx_HAL_Driver/Src/stm32f4xx_hal_i2c.c ****   *                the configuration information for the specified I2C.
 925:Drivers/STM32F4xx_HAL_Driver/Src/stm32f4xx_hal_i2c.c ****   * @retval HAL status
 926:Drivers/STM32F4xx_HAL_Driver/Src/stm32f4xx_hal_i2c.c ****   */
 927:Drivers/STM32F4xx_HAL_Driver/Src/stm32f4xx_hal_i2c.c **** HAL_StatusTypeDef HAL_I2C_UnRegisterAddrCallback(I2C_HandleTypeDef *hi2c)
 928:Drivers/STM32F4xx_HAL_Driver/Src/stm32f4xx_hal_i2c.c **** {
 929:Drivers/STM32F4xx_HAL_Driver/Src/stm32f4xx_hal_i2c.c ****   HAL_StatusTypeDef status = HAL_OK;
 930:Drivers/STM32F4xx_HAL_Driver/Src/stm32f4xx_hal_i2c.c **** 
 931:Drivers/STM32F4xx_HAL_Driver/Src/stm32f4xx_hal_i2c.c ****   /* Process locked */
 932:Drivers/STM32F4xx_HAL_Driver/Src/stm32f4xx_hal_i2c.c ****   __HAL_LOCK(hi2c);
 933:Drivers/STM32F4xx_HAL_Driver/Src/stm32f4xx_hal_i2c.c **** 
 934:Drivers/STM32F4xx_HAL_Driver/Src/stm32f4xx_hal_i2c.c ****   if (HAL_I2C_STATE_READY == hi2c->State)
 935:Drivers/STM32F4xx_HAL_Driver/Src/stm32f4xx_hal_i2c.c ****   {
 936:Drivers/STM32F4xx_HAL_Driver/Src/stm32f4xx_hal_i2c.c ****     hi2c->AddrCallback = HAL_I2C_AddrCallback; /* Legacy weak AddrCallback  */
 937:Drivers/STM32F4xx_HAL_Driver/Src/stm32f4xx_hal_i2c.c ****   }
 938:Drivers/STM32F4xx_HAL_Driver/Src/stm32f4xx_hal_i2c.c ****   else
ARM GAS  C:\Users\Halil\AppData\Local\Temp\ccvukMBT.s 			page 27


 939:Drivers/STM32F4xx_HAL_Driver/Src/stm32f4xx_hal_i2c.c ****   {
 940:Drivers/STM32F4xx_HAL_Driver/Src/stm32f4xx_hal_i2c.c ****     /* Update the error code */
 941:Drivers/STM32F4xx_HAL_Driver/Src/stm32f4xx_hal_i2c.c ****     hi2c->ErrorCode |= HAL_I2C_ERROR_INVALID_CALLBACK;
 942:Drivers/STM32F4xx_HAL_Driver/Src/stm32f4xx_hal_i2c.c **** 
 943:Drivers/STM32F4xx_HAL_Driver/Src/stm32f4xx_hal_i2c.c ****     /* Return error status */
 944:Drivers/STM32F4xx_HAL_Driver/Src/stm32f4xx_hal_i2c.c ****     status =  HAL_ERROR;
 945:Drivers/STM32F4xx_HAL_Driver/Src/stm32f4xx_hal_i2c.c ****   }
 946:Drivers/STM32F4xx_HAL_Driver/Src/stm32f4xx_hal_i2c.c **** 
 947:Drivers/STM32F4xx_HAL_Driver/Src/stm32f4xx_hal_i2c.c ****   /* Release Lock */
 948:Drivers/STM32F4xx_HAL_Driver/Src/stm32f4xx_hal_i2c.c ****   __HAL_UNLOCK(hi2c);
 949:Drivers/STM32F4xx_HAL_Driver/Src/stm32f4xx_hal_i2c.c ****   return status;
 950:Drivers/STM32F4xx_HAL_Driver/Src/stm32f4xx_hal_i2c.c **** }
 951:Drivers/STM32F4xx_HAL_Driver/Src/stm32f4xx_hal_i2c.c **** 
 952:Drivers/STM32F4xx_HAL_Driver/Src/stm32f4xx_hal_i2c.c **** #endif /* USE_HAL_I2C_REGISTER_CALLBACKS */
 953:Drivers/STM32F4xx_HAL_Driver/Src/stm32f4xx_hal_i2c.c **** 
 954:Drivers/STM32F4xx_HAL_Driver/Src/stm32f4xx_hal_i2c.c **** /**
 955:Drivers/STM32F4xx_HAL_Driver/Src/stm32f4xx_hal_i2c.c ****   * @brief  I2C data register flush process.
 956:Drivers/STM32F4xx_HAL_Driver/Src/stm32f4xx_hal_i2c.c ****   * @param  hi2c I2C handle.
 957:Drivers/STM32F4xx_HAL_Driver/Src/stm32f4xx_hal_i2c.c ****   * @retval None
 958:Drivers/STM32F4xx_HAL_Driver/Src/stm32f4xx_hal_i2c.c ****   */
 959:Drivers/STM32F4xx_HAL_Driver/Src/stm32f4xx_hal_i2c.c **** static void I2C_Flush_DR(I2C_HandleTypeDef *hi2c)
 960:Drivers/STM32F4xx_HAL_Driver/Src/stm32f4xx_hal_i2c.c **** {
 554              		.loc 1 960 1
 555              		.cfi_startproc
 556              		@ args = 0, pretend = 0, frame = 8
 557              		@ frame_needed = 1, uses_anonymous_args = 0
 558              		@ link register save eliminated.
 559 0000 80B4     		push	{r7}
 560              		.cfi_def_cfa_offset 4
 561              		.cfi_offset 7, -4
 562 0002 83B0     		sub	sp, sp, #12
 563              		.cfi_def_cfa_offset 16
 564 0004 00AF     		add	r7, sp, #0
 565              		.cfi_def_cfa_register 7
 566 0006 7860     		str	r0, [r7, #4]
 961:Drivers/STM32F4xx_HAL_Driver/Src/stm32f4xx_hal_i2c.c ****   /* Write a dummy data in DR to clear TXE flag */
 962:Drivers/STM32F4xx_HAL_Driver/Src/stm32f4xx_hal_i2c.c ****   if (__HAL_I2C_GET_FLAG(hi2c, I2C_FLAG_TXE) != RESET)
 567              		.loc 1 962 7
 568 0008 7B68     		ldr	r3, [r7, #4]
 569 000a 1B68     		ldr	r3, [r3]
 570 000c 5B69     		ldr	r3, [r3, #20]
 571 000e 03F08003 		and	r3, r3, #128
 572              		.loc 1 962 6
 573 0012 802B     		cmp	r3, #128
 574 0014 03D1     		bne	.L29
 963:Drivers/STM32F4xx_HAL_Driver/Src/stm32f4xx_hal_i2c.c ****   {
 964:Drivers/STM32F4xx_HAL_Driver/Src/stm32f4xx_hal_i2c.c ****     hi2c->Instance->DR = 0x00U;
 575              		.loc 1 964 9
 576 0016 7B68     		ldr	r3, [r7, #4]
 577 0018 1B68     		ldr	r3, [r3]
 578              		.loc 1 964 24
 579 001a 0022     		movs	r2, #0
 580 001c 1A61     		str	r2, [r3, #16]
 581              	.L29:
 965:Drivers/STM32F4xx_HAL_Driver/Src/stm32f4xx_hal_i2c.c ****   }
 966:Drivers/STM32F4xx_HAL_Driver/Src/stm32f4xx_hal_i2c.c **** }
 582              		.loc 1 966 1
ARM GAS  C:\Users\Halil\AppData\Local\Temp\ccvukMBT.s 			page 28


 583 001e 00BF     		nop
 584 0020 0C37     		adds	r7, r7, #12
 585              		.cfi_def_cfa_offset 4
 586 0022 BD46     		mov	sp, r7
 587              		.cfi_def_cfa_register 13
 588              		@ sp needed
 589 0024 5DF8047B 		ldr	r7, [sp], #4
 590              		.cfi_restore 7
 591              		.cfi_def_cfa_offset 0
 592 0028 7047     		bx	lr
 593              		.cfi_endproc
 594              	.LFE243:
 596              		.section	.text.HAL_I2C_Master_Transmit,"ax",%progbits
 597              		.align	1
 598              		.global	HAL_I2C_Master_Transmit
 599              		.syntax unified
 600              		.thumb
 601              		.thumb_func
 603              	HAL_I2C_Master_Transmit:
 604              	.LFB244:
 967:Drivers/STM32F4xx_HAL_Driver/Src/stm32f4xx_hal_i2c.c **** 
 968:Drivers/STM32F4xx_HAL_Driver/Src/stm32f4xx_hal_i2c.c **** /**
 969:Drivers/STM32F4xx_HAL_Driver/Src/stm32f4xx_hal_i2c.c ****   * @}
 970:Drivers/STM32F4xx_HAL_Driver/Src/stm32f4xx_hal_i2c.c ****   */
 971:Drivers/STM32F4xx_HAL_Driver/Src/stm32f4xx_hal_i2c.c **** 
 972:Drivers/STM32F4xx_HAL_Driver/Src/stm32f4xx_hal_i2c.c **** /** @defgroup I2C_Exported_Functions_Group2 Input and Output operation functions
 973:Drivers/STM32F4xx_HAL_Driver/Src/stm32f4xx_hal_i2c.c ****  *  @brief   Data transfers functions
 974:Drivers/STM32F4xx_HAL_Driver/Src/stm32f4xx_hal_i2c.c ****  *
 975:Drivers/STM32F4xx_HAL_Driver/Src/stm32f4xx_hal_i2c.c **** @verbatim
 976:Drivers/STM32F4xx_HAL_Driver/Src/stm32f4xx_hal_i2c.c ****  ===============================================================================
 977:Drivers/STM32F4xx_HAL_Driver/Src/stm32f4xx_hal_i2c.c ****                       ##### IO operation functions #####
 978:Drivers/STM32F4xx_HAL_Driver/Src/stm32f4xx_hal_i2c.c ****  ===============================================================================
 979:Drivers/STM32F4xx_HAL_Driver/Src/stm32f4xx_hal_i2c.c ****     [..]
 980:Drivers/STM32F4xx_HAL_Driver/Src/stm32f4xx_hal_i2c.c ****     This subsection provides a set of functions allowing to manage the I2C data
 981:Drivers/STM32F4xx_HAL_Driver/Src/stm32f4xx_hal_i2c.c ****     transfers.
 982:Drivers/STM32F4xx_HAL_Driver/Src/stm32f4xx_hal_i2c.c **** 
 983:Drivers/STM32F4xx_HAL_Driver/Src/stm32f4xx_hal_i2c.c ****     (#) There are two modes of transfer:
 984:Drivers/STM32F4xx_HAL_Driver/Src/stm32f4xx_hal_i2c.c ****        (++) Blocking mode : The communication is performed in the polling mode.
 985:Drivers/STM32F4xx_HAL_Driver/Src/stm32f4xx_hal_i2c.c ****             The status of all data processing is returned by the same function
 986:Drivers/STM32F4xx_HAL_Driver/Src/stm32f4xx_hal_i2c.c ****             after finishing transfer.
 987:Drivers/STM32F4xx_HAL_Driver/Src/stm32f4xx_hal_i2c.c ****        (++) No-Blocking mode : The communication is performed using Interrupts
 988:Drivers/STM32F4xx_HAL_Driver/Src/stm32f4xx_hal_i2c.c ****             or DMA. These functions return the status of the transfer startup.
 989:Drivers/STM32F4xx_HAL_Driver/Src/stm32f4xx_hal_i2c.c ****             The end of the data processing will be indicated through the
 990:Drivers/STM32F4xx_HAL_Driver/Src/stm32f4xx_hal_i2c.c ****             dedicated I2C IRQ when using Interrupt mode or the DMA IRQ when
 991:Drivers/STM32F4xx_HAL_Driver/Src/stm32f4xx_hal_i2c.c ****             using DMA mode.
 992:Drivers/STM32F4xx_HAL_Driver/Src/stm32f4xx_hal_i2c.c **** 
 993:Drivers/STM32F4xx_HAL_Driver/Src/stm32f4xx_hal_i2c.c ****     (#) Blocking mode functions are :
 994:Drivers/STM32F4xx_HAL_Driver/Src/stm32f4xx_hal_i2c.c ****         (++) HAL_I2C_Master_Transmit()
 995:Drivers/STM32F4xx_HAL_Driver/Src/stm32f4xx_hal_i2c.c ****         (++) HAL_I2C_Master_Receive()
 996:Drivers/STM32F4xx_HAL_Driver/Src/stm32f4xx_hal_i2c.c ****         (++) HAL_I2C_Slave_Transmit()
 997:Drivers/STM32F4xx_HAL_Driver/Src/stm32f4xx_hal_i2c.c ****         (++) HAL_I2C_Slave_Receive()
 998:Drivers/STM32F4xx_HAL_Driver/Src/stm32f4xx_hal_i2c.c ****         (++) HAL_I2C_Mem_Write()
 999:Drivers/STM32F4xx_HAL_Driver/Src/stm32f4xx_hal_i2c.c ****         (++) HAL_I2C_Mem_Read()
1000:Drivers/STM32F4xx_HAL_Driver/Src/stm32f4xx_hal_i2c.c ****         (++) HAL_I2C_IsDeviceReady()
1001:Drivers/STM32F4xx_HAL_Driver/Src/stm32f4xx_hal_i2c.c **** 
1002:Drivers/STM32F4xx_HAL_Driver/Src/stm32f4xx_hal_i2c.c ****     (#) No-Blocking mode functions with Interrupt are :
1003:Drivers/STM32F4xx_HAL_Driver/Src/stm32f4xx_hal_i2c.c ****         (++) HAL_I2C_Master_Transmit_IT()
ARM GAS  C:\Users\Halil\AppData\Local\Temp\ccvukMBT.s 			page 29


1004:Drivers/STM32F4xx_HAL_Driver/Src/stm32f4xx_hal_i2c.c ****         (++) HAL_I2C_Master_Receive_IT()
1005:Drivers/STM32F4xx_HAL_Driver/Src/stm32f4xx_hal_i2c.c ****         (++) HAL_I2C_Slave_Transmit_IT()
1006:Drivers/STM32F4xx_HAL_Driver/Src/stm32f4xx_hal_i2c.c ****         (++) HAL_I2C_Slave_Receive_IT()
1007:Drivers/STM32F4xx_HAL_Driver/Src/stm32f4xx_hal_i2c.c ****         (++) HAL_I2C_Mem_Write_IT()
1008:Drivers/STM32F4xx_HAL_Driver/Src/stm32f4xx_hal_i2c.c ****         (++) HAL_I2C_Mem_Read_IT()
1009:Drivers/STM32F4xx_HAL_Driver/Src/stm32f4xx_hal_i2c.c ****         (++) HAL_I2C_Master_Seq_Transmit_IT()
1010:Drivers/STM32F4xx_HAL_Driver/Src/stm32f4xx_hal_i2c.c ****         (++) HAL_I2C_Master_Seq_Receive_IT()
1011:Drivers/STM32F4xx_HAL_Driver/Src/stm32f4xx_hal_i2c.c ****         (++) HAL_I2C_Slave_Seq_Transmit_IT()
1012:Drivers/STM32F4xx_HAL_Driver/Src/stm32f4xx_hal_i2c.c ****         (++) HAL_I2C_Slave_Seq_Receive_IT()
1013:Drivers/STM32F4xx_HAL_Driver/Src/stm32f4xx_hal_i2c.c ****         (++) HAL_I2C_EnableListen_IT()
1014:Drivers/STM32F4xx_HAL_Driver/Src/stm32f4xx_hal_i2c.c ****         (++) HAL_I2C_DisableListen_IT()
1015:Drivers/STM32F4xx_HAL_Driver/Src/stm32f4xx_hal_i2c.c ****         (++) HAL_I2C_Master_Abort_IT()
1016:Drivers/STM32F4xx_HAL_Driver/Src/stm32f4xx_hal_i2c.c **** 
1017:Drivers/STM32F4xx_HAL_Driver/Src/stm32f4xx_hal_i2c.c ****     (#) No-Blocking mode functions with DMA are :
1018:Drivers/STM32F4xx_HAL_Driver/Src/stm32f4xx_hal_i2c.c ****         (++) HAL_I2C_Master_Transmit_DMA()
1019:Drivers/STM32F4xx_HAL_Driver/Src/stm32f4xx_hal_i2c.c ****         (++) HAL_I2C_Master_Receive_DMA()
1020:Drivers/STM32F4xx_HAL_Driver/Src/stm32f4xx_hal_i2c.c ****         (++) HAL_I2C_Slave_Transmit_DMA()
1021:Drivers/STM32F4xx_HAL_Driver/Src/stm32f4xx_hal_i2c.c ****         (++) HAL_I2C_Slave_Receive_DMA()
1022:Drivers/STM32F4xx_HAL_Driver/Src/stm32f4xx_hal_i2c.c ****         (++) HAL_I2C_Mem_Write_DMA()
1023:Drivers/STM32F4xx_HAL_Driver/Src/stm32f4xx_hal_i2c.c ****         (++) HAL_I2C_Mem_Read_DMA()
1024:Drivers/STM32F4xx_HAL_Driver/Src/stm32f4xx_hal_i2c.c ****         (++) HAL_I2C_Master_Seq_Transmit_DMA()
1025:Drivers/STM32F4xx_HAL_Driver/Src/stm32f4xx_hal_i2c.c ****         (++) HAL_I2C_Master_Seq_Receive_DMA()
1026:Drivers/STM32F4xx_HAL_Driver/Src/stm32f4xx_hal_i2c.c ****         (++) HAL_I2C_Slave_Seq_Transmit_DMA()
1027:Drivers/STM32F4xx_HAL_Driver/Src/stm32f4xx_hal_i2c.c ****         (++) HAL_I2C_Slave_Seq_Receive_DMA()
1028:Drivers/STM32F4xx_HAL_Driver/Src/stm32f4xx_hal_i2c.c **** 
1029:Drivers/STM32F4xx_HAL_Driver/Src/stm32f4xx_hal_i2c.c ****     (#) A set of Transfer Complete Callbacks are provided in non Blocking mode:
1030:Drivers/STM32F4xx_HAL_Driver/Src/stm32f4xx_hal_i2c.c ****         (++) HAL_I2C_MasterTxCpltCallback()
1031:Drivers/STM32F4xx_HAL_Driver/Src/stm32f4xx_hal_i2c.c ****         (++) HAL_I2C_MasterRxCpltCallback()
1032:Drivers/STM32F4xx_HAL_Driver/Src/stm32f4xx_hal_i2c.c ****         (++) HAL_I2C_SlaveTxCpltCallback()
1033:Drivers/STM32F4xx_HAL_Driver/Src/stm32f4xx_hal_i2c.c ****         (++) HAL_I2C_SlaveRxCpltCallback()
1034:Drivers/STM32F4xx_HAL_Driver/Src/stm32f4xx_hal_i2c.c ****         (++) HAL_I2C_MemTxCpltCallback()
1035:Drivers/STM32F4xx_HAL_Driver/Src/stm32f4xx_hal_i2c.c ****         (++) HAL_I2C_MemRxCpltCallback()
1036:Drivers/STM32F4xx_HAL_Driver/Src/stm32f4xx_hal_i2c.c ****         (++) HAL_I2C_AddrCallback()
1037:Drivers/STM32F4xx_HAL_Driver/Src/stm32f4xx_hal_i2c.c ****         (++) HAL_I2C_ListenCpltCallback()
1038:Drivers/STM32F4xx_HAL_Driver/Src/stm32f4xx_hal_i2c.c ****         (++) HAL_I2C_ErrorCallback()
1039:Drivers/STM32F4xx_HAL_Driver/Src/stm32f4xx_hal_i2c.c ****         (++) HAL_I2C_AbortCpltCallback()
1040:Drivers/STM32F4xx_HAL_Driver/Src/stm32f4xx_hal_i2c.c **** 
1041:Drivers/STM32F4xx_HAL_Driver/Src/stm32f4xx_hal_i2c.c **** @endverbatim
1042:Drivers/STM32F4xx_HAL_Driver/Src/stm32f4xx_hal_i2c.c ****   * @{
1043:Drivers/STM32F4xx_HAL_Driver/Src/stm32f4xx_hal_i2c.c ****   */
1044:Drivers/STM32F4xx_HAL_Driver/Src/stm32f4xx_hal_i2c.c **** 
1045:Drivers/STM32F4xx_HAL_Driver/Src/stm32f4xx_hal_i2c.c **** /**
1046:Drivers/STM32F4xx_HAL_Driver/Src/stm32f4xx_hal_i2c.c ****   * @brief  Transmits in master mode an amount of data in blocking mode.
1047:Drivers/STM32F4xx_HAL_Driver/Src/stm32f4xx_hal_i2c.c ****   * @param  hi2c Pointer to a I2C_HandleTypeDef structure that contains
1048:Drivers/STM32F4xx_HAL_Driver/Src/stm32f4xx_hal_i2c.c ****   *                the configuration information for the specified I2C.
1049:Drivers/STM32F4xx_HAL_Driver/Src/stm32f4xx_hal_i2c.c ****   * @param  DevAddress Target device address: The device 7 bits address value
1050:Drivers/STM32F4xx_HAL_Driver/Src/stm32f4xx_hal_i2c.c ****   *         in datasheet must be shifted to the left before calling the interface
1051:Drivers/STM32F4xx_HAL_Driver/Src/stm32f4xx_hal_i2c.c ****   * @param  pData Pointer to data buffer
1052:Drivers/STM32F4xx_HAL_Driver/Src/stm32f4xx_hal_i2c.c ****   * @param  Size Amount of data to be sent
1053:Drivers/STM32F4xx_HAL_Driver/Src/stm32f4xx_hal_i2c.c ****   * @param  Timeout Timeout duration
1054:Drivers/STM32F4xx_HAL_Driver/Src/stm32f4xx_hal_i2c.c ****   * @retval HAL status
1055:Drivers/STM32F4xx_HAL_Driver/Src/stm32f4xx_hal_i2c.c ****   */
1056:Drivers/STM32F4xx_HAL_Driver/Src/stm32f4xx_hal_i2c.c **** HAL_StatusTypeDef HAL_I2C_Master_Transmit(I2C_HandleTypeDef *hi2c, uint16_t DevAddress, uint8_t *pD
1057:Drivers/STM32F4xx_HAL_Driver/Src/stm32f4xx_hal_i2c.c **** {
 605              		.loc 1 1057 1
 606              		.cfi_startproc
 607              		@ args = 4, pretend = 0, frame = 24
ARM GAS  C:\Users\Halil\AppData\Local\Temp\ccvukMBT.s 			page 30


 608              		@ frame_needed = 1, uses_anonymous_args = 0
 609 0000 80B5     		push	{r7, lr}
 610              		.cfi_def_cfa_offset 8
 611              		.cfi_offset 7, -8
 612              		.cfi_offset 14, -4
 613 0002 88B0     		sub	sp, sp, #32
 614              		.cfi_def_cfa_offset 40
 615 0004 02AF     		add	r7, sp, #8
 616              		.cfi_def_cfa 7, 32
 617 0006 F860     		str	r0, [r7, #12]
 618 0008 7A60     		str	r2, [r7, #4]
 619 000a 1A46     		mov	r2, r3
 620 000c 0B46     		mov	r3, r1	@ movhi
 621 000e 7B81     		strh	r3, [r7, #10]	@ movhi
 622 0010 1346     		mov	r3, r2	@ movhi
 623 0012 3B81     		strh	r3, [r7, #8]	@ movhi
1058:Drivers/STM32F4xx_HAL_Driver/Src/stm32f4xx_hal_i2c.c ****   /* Init tickstart for timeout management*/
1059:Drivers/STM32F4xx_HAL_Driver/Src/stm32f4xx_hal_i2c.c ****   uint32_t tickstart = HAL_GetTick();
 624              		.loc 1 1059 24
 625 0014 FFF7FEFF 		bl	HAL_GetTick
 626 0018 7861     		str	r0, [r7, #20]
1060:Drivers/STM32F4xx_HAL_Driver/Src/stm32f4xx_hal_i2c.c **** 
1061:Drivers/STM32F4xx_HAL_Driver/Src/stm32f4xx_hal_i2c.c ****   if (hi2c->State == HAL_I2C_STATE_READY)
 627              		.loc 1 1061 11
 628 001a FB68     		ldr	r3, [r7, #12]
 629 001c 93F83D30 		ldrb	r3, [r3, #61]
 630 0020 DBB2     		uxtb	r3, r3
 631              		.loc 1 1061 6
 632 0022 202B     		cmp	r3, #32
 633 0024 40F0E080 		bne	.L31
1062:Drivers/STM32F4xx_HAL_Driver/Src/stm32f4xx_hal_i2c.c ****   {
1063:Drivers/STM32F4xx_HAL_Driver/Src/stm32f4xx_hal_i2c.c ****     /* Wait until BUSY flag is reset */
1064:Drivers/STM32F4xx_HAL_Driver/Src/stm32f4xx_hal_i2c.c ****     if (I2C_WaitOnFlagUntilTimeout(hi2c, I2C_FLAG_BUSY, SET, I2C_TIMEOUT_BUSY_FLAG, tickstart) != H
 634              		.loc 1 1064 9
 635 0028 7B69     		ldr	r3, [r7, #20]
 636 002a 0093     		str	r3, [sp]
 637 002c 1923     		movs	r3, #25
 638 002e 0122     		movs	r2, #1
 639 0030 7049     		ldr	r1, .L43
 640 0032 F868     		ldr	r0, [r7, #12]
 641 0034 FFF7FEFF 		bl	I2C_WaitOnFlagUntilTimeout
 642 0038 0346     		mov	r3, r0
 643              		.loc 1 1064 8
 644 003a 002B     		cmp	r3, #0
 645 003c 01D0     		beq	.L32
1065:Drivers/STM32F4xx_HAL_Driver/Src/stm32f4xx_hal_i2c.c ****     {
1066:Drivers/STM32F4xx_HAL_Driver/Src/stm32f4xx_hal_i2c.c ****       return HAL_BUSY;
 646              		.loc 1 1066 14
 647 003e 0223     		movs	r3, #2
 648 0040 D3E0     		b	.L33
 649              	.L32:
1067:Drivers/STM32F4xx_HAL_Driver/Src/stm32f4xx_hal_i2c.c ****     }
1068:Drivers/STM32F4xx_HAL_Driver/Src/stm32f4xx_hal_i2c.c **** 
1069:Drivers/STM32F4xx_HAL_Driver/Src/stm32f4xx_hal_i2c.c ****     /* Process Locked */
1070:Drivers/STM32F4xx_HAL_Driver/Src/stm32f4xx_hal_i2c.c ****     __HAL_LOCK(hi2c);
 650              		.loc 1 1070 5
 651 0042 FB68     		ldr	r3, [r7, #12]
ARM GAS  C:\Users\Halil\AppData\Local\Temp\ccvukMBT.s 			page 31


 652 0044 93F83C30 		ldrb	r3, [r3, #60]	@ zero_extendqisi2
 653 0048 012B     		cmp	r3, #1
 654 004a 01D1     		bne	.L34
 655              		.loc 1 1070 5 is_stmt 0 discriminator 1
 656 004c 0223     		movs	r3, #2
 657 004e CCE0     		b	.L33
 658              	.L34:
 659              		.loc 1 1070 5 discriminator 2
 660 0050 FB68     		ldr	r3, [r7, #12]
 661 0052 0122     		movs	r2, #1
 662 0054 83F83C20 		strb	r2, [r3, #60]
1071:Drivers/STM32F4xx_HAL_Driver/Src/stm32f4xx_hal_i2c.c **** 
1072:Drivers/STM32F4xx_HAL_Driver/Src/stm32f4xx_hal_i2c.c ****     /* Check if the I2C is already enabled */
1073:Drivers/STM32F4xx_HAL_Driver/Src/stm32f4xx_hal_i2c.c ****     if ((hi2c->Instance->CR1 & I2C_CR1_PE) != I2C_CR1_PE)
 663              		.loc 1 1073 14 is_stmt 1 discriminator 2
 664 0058 FB68     		ldr	r3, [r7, #12]
 665 005a 1B68     		ldr	r3, [r3]
 666              		.loc 1 1073 24 discriminator 2
 667 005c 1B68     		ldr	r3, [r3]
 668              		.loc 1 1073 30 discriminator 2
 669 005e 03F00103 		and	r3, r3, #1
 670              		.loc 1 1073 8 discriminator 2
 671 0062 012B     		cmp	r3, #1
 672 0064 07D0     		beq	.L35
1074:Drivers/STM32F4xx_HAL_Driver/Src/stm32f4xx_hal_i2c.c ****     {
1075:Drivers/STM32F4xx_HAL_Driver/Src/stm32f4xx_hal_i2c.c ****       /* Enable I2C peripheral */
1076:Drivers/STM32F4xx_HAL_Driver/Src/stm32f4xx_hal_i2c.c ****       __HAL_I2C_ENABLE(hi2c);
 673              		.loc 1 1076 7
 674 0066 FB68     		ldr	r3, [r7, #12]
 675 0068 1B68     		ldr	r3, [r3]
 676 006a 1A68     		ldr	r2, [r3]
 677 006c FB68     		ldr	r3, [r7, #12]
 678 006e 1B68     		ldr	r3, [r3]
 679 0070 42F00102 		orr	r2, r2, #1
 680 0074 1A60     		str	r2, [r3]
 681              	.L35:
1077:Drivers/STM32F4xx_HAL_Driver/Src/stm32f4xx_hal_i2c.c ****     }
1078:Drivers/STM32F4xx_HAL_Driver/Src/stm32f4xx_hal_i2c.c **** 
1079:Drivers/STM32F4xx_HAL_Driver/Src/stm32f4xx_hal_i2c.c ****     /* Disable Pos */
1080:Drivers/STM32F4xx_HAL_Driver/Src/stm32f4xx_hal_i2c.c ****     CLEAR_BIT(hi2c->Instance->CR1, I2C_CR1_POS);
 682              		.loc 1 1080 5
 683 0076 FB68     		ldr	r3, [r7, #12]
 684 0078 1B68     		ldr	r3, [r3]
 685 007a 1A68     		ldr	r2, [r3]
 686 007c FB68     		ldr	r3, [r7, #12]
 687 007e 1B68     		ldr	r3, [r3]
 688 0080 22F40062 		bic	r2, r2, #2048
 689 0084 1A60     		str	r2, [r3]
1081:Drivers/STM32F4xx_HAL_Driver/Src/stm32f4xx_hal_i2c.c **** 
1082:Drivers/STM32F4xx_HAL_Driver/Src/stm32f4xx_hal_i2c.c ****     hi2c->State       = HAL_I2C_STATE_BUSY_TX;
 690              		.loc 1 1082 23
 691 0086 FB68     		ldr	r3, [r7, #12]
 692 0088 2122     		movs	r2, #33
 693 008a 83F83D20 		strb	r2, [r3, #61]
1083:Drivers/STM32F4xx_HAL_Driver/Src/stm32f4xx_hal_i2c.c ****     hi2c->Mode        = HAL_I2C_MODE_MASTER;
 694              		.loc 1 1083 23
 695 008e FB68     		ldr	r3, [r7, #12]
ARM GAS  C:\Users\Halil\AppData\Local\Temp\ccvukMBT.s 			page 32


 696 0090 1022     		movs	r2, #16
 697 0092 83F83E20 		strb	r2, [r3, #62]
1084:Drivers/STM32F4xx_HAL_Driver/Src/stm32f4xx_hal_i2c.c ****     hi2c->ErrorCode   = HAL_I2C_ERROR_NONE;
 698              		.loc 1 1084 23
 699 0096 FB68     		ldr	r3, [r7, #12]
 700 0098 0022     		movs	r2, #0
 701 009a 1A64     		str	r2, [r3, #64]
1085:Drivers/STM32F4xx_HAL_Driver/Src/stm32f4xx_hal_i2c.c **** 
1086:Drivers/STM32F4xx_HAL_Driver/Src/stm32f4xx_hal_i2c.c ****     /* Prepare transfer parameters */
1087:Drivers/STM32F4xx_HAL_Driver/Src/stm32f4xx_hal_i2c.c ****     hi2c->pBuffPtr    = pData;
 702              		.loc 1 1087 23
 703 009c FB68     		ldr	r3, [r7, #12]
 704 009e 7A68     		ldr	r2, [r7, #4]
 705 00a0 5A62     		str	r2, [r3, #36]
1088:Drivers/STM32F4xx_HAL_Driver/Src/stm32f4xx_hal_i2c.c ****     hi2c->XferCount   = Size;
 706              		.loc 1 1088 23
 707 00a2 FB68     		ldr	r3, [r7, #12]
 708 00a4 3A89     		ldrh	r2, [r7, #8]	@ movhi
 709 00a6 5A85     		strh	r2, [r3, #42]	@ movhi
1089:Drivers/STM32F4xx_HAL_Driver/Src/stm32f4xx_hal_i2c.c ****     hi2c->XferSize    = hi2c->XferCount;
 710              		.loc 1 1089 29
 711 00a8 FB68     		ldr	r3, [r7, #12]
 712 00aa 5B8D     		ldrh	r3, [r3, #42]	@ movhi
 713 00ac 9AB2     		uxth	r2, r3
 714              		.loc 1 1089 23
 715 00ae FB68     		ldr	r3, [r7, #12]
 716 00b0 1A85     		strh	r2, [r3, #40]	@ movhi
1090:Drivers/STM32F4xx_HAL_Driver/Src/stm32f4xx_hal_i2c.c ****     hi2c->XferOptions = I2C_NO_OPTION_FRAME;
 717              		.loc 1 1090 23
 718 00b2 FB68     		ldr	r3, [r7, #12]
 719 00b4 504A     		ldr	r2, .L43+4
 720 00b6 DA62     		str	r2, [r3, #44]
1091:Drivers/STM32F4xx_HAL_Driver/Src/stm32f4xx_hal_i2c.c **** 
1092:Drivers/STM32F4xx_HAL_Driver/Src/stm32f4xx_hal_i2c.c ****     /* Send Slave Address */
1093:Drivers/STM32F4xx_HAL_Driver/Src/stm32f4xx_hal_i2c.c ****     if (I2C_MasterRequestWrite(hi2c, DevAddress, Timeout, tickstart) != HAL_OK)
 721              		.loc 1 1093 9
 722 00b8 7989     		ldrh	r1, [r7, #10]
 723 00ba 7B69     		ldr	r3, [r7, #20]
 724 00bc 3A6A     		ldr	r2, [r7, #32]
 725 00be F868     		ldr	r0, [r7, #12]
 726 00c0 FFF7FEFF 		bl	I2C_MasterRequestWrite
 727 00c4 0346     		mov	r3, r0
 728              		.loc 1 1093 8
 729 00c6 002B     		cmp	r3, #0
 730 00c8 01D0     		beq	.L36
1094:Drivers/STM32F4xx_HAL_Driver/Src/stm32f4xx_hal_i2c.c ****     {
1095:Drivers/STM32F4xx_HAL_Driver/Src/stm32f4xx_hal_i2c.c ****       return HAL_ERROR;
 731              		.loc 1 1095 14
 732 00ca 0123     		movs	r3, #1
 733 00cc 8DE0     		b	.L33
 734              	.L36:
 735              	.LBB2:
1096:Drivers/STM32F4xx_HAL_Driver/Src/stm32f4xx_hal_i2c.c ****     }
1097:Drivers/STM32F4xx_HAL_Driver/Src/stm32f4xx_hal_i2c.c **** 
1098:Drivers/STM32F4xx_HAL_Driver/Src/stm32f4xx_hal_i2c.c ****     /* Clear ADDR flag */
1099:Drivers/STM32F4xx_HAL_Driver/Src/stm32f4xx_hal_i2c.c ****     __HAL_I2C_CLEAR_ADDRFLAG(hi2c);
 736              		.loc 1 1099 5
ARM GAS  C:\Users\Halil\AppData\Local\Temp\ccvukMBT.s 			page 33


 737 00ce 0023     		movs	r3, #0
 738 00d0 3B61     		str	r3, [r7, #16]
 739 00d2 FB68     		ldr	r3, [r7, #12]
 740 00d4 1B68     		ldr	r3, [r3]
 741 00d6 5B69     		ldr	r3, [r3, #20]
 742 00d8 3B61     		str	r3, [r7, #16]
 743 00da FB68     		ldr	r3, [r7, #12]
 744 00dc 1B68     		ldr	r3, [r3]
 745 00de 9B69     		ldr	r3, [r3, #24]
 746 00e0 3B61     		str	r3, [r7, #16]
 747 00e2 3B69     		ldr	r3, [r7, #16]
 748              	.LBE2:
1100:Drivers/STM32F4xx_HAL_Driver/Src/stm32f4xx_hal_i2c.c **** 
1101:Drivers/STM32F4xx_HAL_Driver/Src/stm32f4xx_hal_i2c.c ****     while (hi2c->XferSize > 0U)
 749              		.loc 1 1101 11
 750 00e4 66E0     		b	.L37
 751              	.L42:
1102:Drivers/STM32F4xx_HAL_Driver/Src/stm32f4xx_hal_i2c.c ****     {
1103:Drivers/STM32F4xx_HAL_Driver/Src/stm32f4xx_hal_i2c.c ****       /* Wait until TXE flag is set */
1104:Drivers/STM32F4xx_HAL_Driver/Src/stm32f4xx_hal_i2c.c ****       if (I2C_WaitOnTXEFlagUntilTimeout(hi2c, Timeout, tickstart) != HAL_OK)
 752              		.loc 1 1104 11
 753 00e6 7A69     		ldr	r2, [r7, #20]
 754 00e8 396A     		ldr	r1, [r7, #32]
 755 00ea F868     		ldr	r0, [r7, #12]
 756 00ec FFF7FEFF 		bl	I2C_WaitOnTXEFlagUntilTimeout
 757 00f0 0346     		mov	r3, r0
 758              		.loc 1 1104 10
 759 00f2 002B     		cmp	r3, #0
 760 00f4 0DD0     		beq	.L38
1105:Drivers/STM32F4xx_HAL_Driver/Src/stm32f4xx_hal_i2c.c ****       {
1106:Drivers/STM32F4xx_HAL_Driver/Src/stm32f4xx_hal_i2c.c ****         if (hi2c->ErrorCode == HAL_I2C_ERROR_AF)
 761              		.loc 1 1106 17
 762 00f6 FB68     		ldr	r3, [r7, #12]
 763 00f8 1B6C     		ldr	r3, [r3, #64]
 764              		.loc 1 1106 12
 765 00fa 042B     		cmp	r3, #4
 766 00fc 07D1     		bne	.L39
1107:Drivers/STM32F4xx_HAL_Driver/Src/stm32f4xx_hal_i2c.c ****         {
1108:Drivers/STM32F4xx_HAL_Driver/Src/stm32f4xx_hal_i2c.c ****           /* Generate Stop */
1109:Drivers/STM32F4xx_HAL_Driver/Src/stm32f4xx_hal_i2c.c ****           SET_BIT(hi2c->Instance->CR1, I2C_CR1_STOP);
 767              		.loc 1 1109 11
 768 00fe FB68     		ldr	r3, [r7, #12]
 769 0100 1B68     		ldr	r3, [r3]
 770 0102 1A68     		ldr	r2, [r3]
 771 0104 FB68     		ldr	r3, [r7, #12]
 772 0106 1B68     		ldr	r3, [r3]
 773 0108 42F40072 		orr	r2, r2, #512
 774 010c 1A60     		str	r2, [r3]
 775              	.L39:
1110:Drivers/STM32F4xx_HAL_Driver/Src/stm32f4xx_hal_i2c.c ****         }
1111:Drivers/STM32F4xx_HAL_Driver/Src/stm32f4xx_hal_i2c.c ****         return HAL_ERROR;
 776              		.loc 1 1111 16
 777 010e 0123     		movs	r3, #1
 778 0110 6BE0     		b	.L33
 779              	.L38:
1112:Drivers/STM32F4xx_HAL_Driver/Src/stm32f4xx_hal_i2c.c ****       }
1113:Drivers/STM32F4xx_HAL_Driver/Src/stm32f4xx_hal_i2c.c **** 
ARM GAS  C:\Users\Halil\AppData\Local\Temp\ccvukMBT.s 			page 34


1114:Drivers/STM32F4xx_HAL_Driver/Src/stm32f4xx_hal_i2c.c ****       /* Write data to DR */
1115:Drivers/STM32F4xx_HAL_Driver/Src/stm32f4xx_hal_i2c.c ****       hi2c->Instance->DR = *hi2c->pBuffPtr;
 780              		.loc 1 1115 33
 781 0112 FB68     		ldr	r3, [r7, #12]
 782 0114 5B6A     		ldr	r3, [r3, #36]
 783              		.loc 1 1115 28
 784 0116 1A78     		ldrb	r2, [r3]	@ zero_extendqisi2
 785              		.loc 1 1115 11
 786 0118 FB68     		ldr	r3, [r7, #12]
 787 011a 1B68     		ldr	r3, [r3]
 788              		.loc 1 1115 26
 789 011c 1A61     		str	r2, [r3, #16]
1116:Drivers/STM32F4xx_HAL_Driver/Src/stm32f4xx_hal_i2c.c **** 
1117:Drivers/STM32F4xx_HAL_Driver/Src/stm32f4xx_hal_i2c.c ****       /* Increment Buffer pointer */
1118:Drivers/STM32F4xx_HAL_Driver/Src/stm32f4xx_hal_i2c.c ****       hi2c->pBuffPtr++;
 790              		.loc 1 1118 11
 791 011e FB68     		ldr	r3, [r7, #12]
 792 0120 5B6A     		ldr	r3, [r3, #36]
 793              		.loc 1 1118 21
 794 0122 5A1C     		adds	r2, r3, #1
 795 0124 FB68     		ldr	r3, [r7, #12]
 796 0126 5A62     		str	r2, [r3, #36]
1119:Drivers/STM32F4xx_HAL_Driver/Src/stm32f4xx_hal_i2c.c **** 
1120:Drivers/STM32F4xx_HAL_Driver/Src/stm32f4xx_hal_i2c.c ****       /* Update counter */
1121:Drivers/STM32F4xx_HAL_Driver/Src/stm32f4xx_hal_i2c.c ****       hi2c->XferCount--;
 797              		.loc 1 1121 11
 798 0128 FB68     		ldr	r3, [r7, #12]
 799 012a 5B8D     		ldrh	r3, [r3, #42]	@ movhi
 800 012c 9BB2     		uxth	r3, r3
 801              		.loc 1 1121 22
 802 012e 013B     		subs	r3, r3, #1
 803 0130 9AB2     		uxth	r2, r3
 804 0132 FB68     		ldr	r3, [r7, #12]
 805 0134 5A85     		strh	r2, [r3, #42]	@ movhi
1122:Drivers/STM32F4xx_HAL_Driver/Src/stm32f4xx_hal_i2c.c ****       hi2c->XferSize--;
 806              		.loc 1 1122 11
 807 0136 FB68     		ldr	r3, [r7, #12]
 808 0138 1B8D     		ldrh	r3, [r3, #40]
 809              		.loc 1 1122 21
 810 013a 013B     		subs	r3, r3, #1
 811 013c 9AB2     		uxth	r2, r3
 812 013e FB68     		ldr	r3, [r7, #12]
 813 0140 1A85     		strh	r2, [r3, #40]	@ movhi
1123:Drivers/STM32F4xx_HAL_Driver/Src/stm32f4xx_hal_i2c.c **** 
1124:Drivers/STM32F4xx_HAL_Driver/Src/stm32f4xx_hal_i2c.c ****       if ((__HAL_I2C_GET_FLAG(hi2c, I2C_FLAG_BTF) == SET) && (hi2c->XferSize != 0U))
 814              		.loc 1 1124 12
 815 0142 FB68     		ldr	r3, [r7, #12]
 816 0144 1B68     		ldr	r3, [r3]
 817 0146 5B69     		ldr	r3, [r3, #20]
 818 0148 03F00403 		and	r3, r3, #4
 819              		.loc 1 1124 10
 820 014c 042B     		cmp	r3, #4
 821 014e 1BD1     		bne	.L40
 822              		.loc 1 1124 67 discriminator 1
 823 0150 FB68     		ldr	r3, [r7, #12]
 824 0152 1B8D     		ldrh	r3, [r3, #40]
 825              		.loc 1 1124 59 discriminator 1
ARM GAS  C:\Users\Halil\AppData\Local\Temp\ccvukMBT.s 			page 35


 826 0154 002B     		cmp	r3, #0
 827 0156 17D0     		beq	.L40
1125:Drivers/STM32F4xx_HAL_Driver/Src/stm32f4xx_hal_i2c.c ****       {
1126:Drivers/STM32F4xx_HAL_Driver/Src/stm32f4xx_hal_i2c.c ****         /* Write data to DR */
1127:Drivers/STM32F4xx_HAL_Driver/Src/stm32f4xx_hal_i2c.c ****         hi2c->Instance->DR = *hi2c->pBuffPtr;
 828              		.loc 1 1127 35
 829 0158 FB68     		ldr	r3, [r7, #12]
 830 015a 5B6A     		ldr	r3, [r3, #36]
 831              		.loc 1 1127 30
 832 015c 1A78     		ldrb	r2, [r3]	@ zero_extendqisi2
 833              		.loc 1 1127 13
 834 015e FB68     		ldr	r3, [r7, #12]
 835 0160 1B68     		ldr	r3, [r3]
 836              		.loc 1 1127 28
 837 0162 1A61     		str	r2, [r3, #16]
1128:Drivers/STM32F4xx_HAL_Driver/Src/stm32f4xx_hal_i2c.c **** 
1129:Drivers/STM32F4xx_HAL_Driver/Src/stm32f4xx_hal_i2c.c ****         /* Increment Buffer pointer */
1130:Drivers/STM32F4xx_HAL_Driver/Src/stm32f4xx_hal_i2c.c ****         hi2c->pBuffPtr++;
 838              		.loc 1 1130 13
 839 0164 FB68     		ldr	r3, [r7, #12]
 840 0166 5B6A     		ldr	r3, [r3, #36]
 841              		.loc 1 1130 23
 842 0168 5A1C     		adds	r2, r3, #1
 843 016a FB68     		ldr	r3, [r7, #12]
 844 016c 5A62     		str	r2, [r3, #36]
1131:Drivers/STM32F4xx_HAL_Driver/Src/stm32f4xx_hal_i2c.c **** 
1132:Drivers/STM32F4xx_HAL_Driver/Src/stm32f4xx_hal_i2c.c ****         /* Update counter */
1133:Drivers/STM32F4xx_HAL_Driver/Src/stm32f4xx_hal_i2c.c ****         hi2c->XferCount--;
 845              		.loc 1 1133 13
 846 016e FB68     		ldr	r3, [r7, #12]
 847 0170 5B8D     		ldrh	r3, [r3, #42]	@ movhi
 848 0172 9BB2     		uxth	r3, r3
 849              		.loc 1 1133 24
 850 0174 013B     		subs	r3, r3, #1
 851 0176 9AB2     		uxth	r2, r3
 852 0178 FB68     		ldr	r3, [r7, #12]
 853 017a 5A85     		strh	r2, [r3, #42]	@ movhi
1134:Drivers/STM32F4xx_HAL_Driver/Src/stm32f4xx_hal_i2c.c ****         hi2c->XferSize--;
 854              		.loc 1 1134 13
 855 017c FB68     		ldr	r3, [r7, #12]
 856 017e 1B8D     		ldrh	r3, [r3, #40]
 857              		.loc 1 1134 23
 858 0180 013B     		subs	r3, r3, #1
 859 0182 9AB2     		uxth	r2, r3
 860 0184 FB68     		ldr	r3, [r7, #12]
 861 0186 1A85     		strh	r2, [r3, #40]	@ movhi
 862              	.L40:
1135:Drivers/STM32F4xx_HAL_Driver/Src/stm32f4xx_hal_i2c.c ****       }
1136:Drivers/STM32F4xx_HAL_Driver/Src/stm32f4xx_hal_i2c.c **** 
1137:Drivers/STM32F4xx_HAL_Driver/Src/stm32f4xx_hal_i2c.c ****       /* Wait until BTF flag is set */
1138:Drivers/STM32F4xx_HAL_Driver/Src/stm32f4xx_hal_i2c.c ****       if (I2C_WaitOnBTFFlagUntilTimeout(hi2c, Timeout, tickstart) != HAL_OK)
 863              		.loc 1 1138 11
 864 0188 7A69     		ldr	r2, [r7, #20]
 865 018a 396A     		ldr	r1, [r7, #32]
 866 018c F868     		ldr	r0, [r7, #12]
 867 018e FFF7FEFF 		bl	I2C_WaitOnBTFFlagUntilTimeout
 868 0192 0346     		mov	r3, r0
ARM GAS  C:\Users\Halil\AppData\Local\Temp\ccvukMBT.s 			page 36


 869              		.loc 1 1138 10
 870 0194 002B     		cmp	r3, #0
 871 0196 0DD0     		beq	.L37
1139:Drivers/STM32F4xx_HAL_Driver/Src/stm32f4xx_hal_i2c.c ****       {
1140:Drivers/STM32F4xx_HAL_Driver/Src/stm32f4xx_hal_i2c.c ****         if (hi2c->ErrorCode == HAL_I2C_ERROR_AF)
 872              		.loc 1 1140 17
 873 0198 FB68     		ldr	r3, [r7, #12]
 874 019a 1B6C     		ldr	r3, [r3, #64]
 875              		.loc 1 1140 12
 876 019c 042B     		cmp	r3, #4
 877 019e 07D1     		bne	.L41
1141:Drivers/STM32F4xx_HAL_Driver/Src/stm32f4xx_hal_i2c.c ****         {
1142:Drivers/STM32F4xx_HAL_Driver/Src/stm32f4xx_hal_i2c.c ****           /* Generate Stop */
1143:Drivers/STM32F4xx_HAL_Driver/Src/stm32f4xx_hal_i2c.c ****           SET_BIT(hi2c->Instance->CR1, I2C_CR1_STOP);
 878              		.loc 1 1143 11
 879 01a0 FB68     		ldr	r3, [r7, #12]
 880 01a2 1B68     		ldr	r3, [r3]
 881 01a4 1A68     		ldr	r2, [r3]
 882 01a6 FB68     		ldr	r3, [r7, #12]
 883 01a8 1B68     		ldr	r3, [r3]
 884 01aa 42F40072 		orr	r2, r2, #512
 885 01ae 1A60     		str	r2, [r3]
 886              	.L41:
1144:Drivers/STM32F4xx_HAL_Driver/Src/stm32f4xx_hal_i2c.c ****         }
1145:Drivers/STM32F4xx_HAL_Driver/Src/stm32f4xx_hal_i2c.c ****         return HAL_ERROR;
 887              		.loc 1 1145 16
 888 01b0 0123     		movs	r3, #1
 889 01b2 1AE0     		b	.L33
 890              	.L37:
1101:Drivers/STM32F4xx_HAL_Driver/Src/stm32f4xx_hal_i2c.c ****     {
 891              		.loc 1 1101 16
 892 01b4 FB68     		ldr	r3, [r7, #12]
 893 01b6 1B8D     		ldrh	r3, [r3, #40]
1101:Drivers/STM32F4xx_HAL_Driver/Src/stm32f4xx_hal_i2c.c ****     {
 894              		.loc 1 1101 27
 895 01b8 002B     		cmp	r3, #0
 896 01ba 94D1     		bne	.L42
1146:Drivers/STM32F4xx_HAL_Driver/Src/stm32f4xx_hal_i2c.c ****       }
1147:Drivers/STM32F4xx_HAL_Driver/Src/stm32f4xx_hal_i2c.c ****     }
1148:Drivers/STM32F4xx_HAL_Driver/Src/stm32f4xx_hal_i2c.c **** 
1149:Drivers/STM32F4xx_HAL_Driver/Src/stm32f4xx_hal_i2c.c ****     /* Generate Stop */
1150:Drivers/STM32F4xx_HAL_Driver/Src/stm32f4xx_hal_i2c.c ****     SET_BIT(hi2c->Instance->CR1, I2C_CR1_STOP);
 897              		.loc 1 1150 5
 898 01bc FB68     		ldr	r3, [r7, #12]
 899 01be 1B68     		ldr	r3, [r3]
 900 01c0 1A68     		ldr	r2, [r3]
 901 01c2 FB68     		ldr	r3, [r7, #12]
 902 01c4 1B68     		ldr	r3, [r3]
 903 01c6 42F40072 		orr	r2, r2, #512
 904 01ca 1A60     		str	r2, [r3]
1151:Drivers/STM32F4xx_HAL_Driver/Src/stm32f4xx_hal_i2c.c **** 
1152:Drivers/STM32F4xx_HAL_Driver/Src/stm32f4xx_hal_i2c.c ****     hi2c->State = HAL_I2C_STATE_READY;
 905              		.loc 1 1152 17
 906 01cc FB68     		ldr	r3, [r7, #12]
 907 01ce 2022     		movs	r2, #32
 908 01d0 83F83D20 		strb	r2, [r3, #61]
1153:Drivers/STM32F4xx_HAL_Driver/Src/stm32f4xx_hal_i2c.c ****     hi2c->Mode = HAL_I2C_MODE_NONE;
ARM GAS  C:\Users\Halil\AppData\Local\Temp\ccvukMBT.s 			page 37


 909              		.loc 1 1153 16
 910 01d4 FB68     		ldr	r3, [r7, #12]
 911 01d6 0022     		movs	r2, #0
 912 01d8 83F83E20 		strb	r2, [r3, #62]
1154:Drivers/STM32F4xx_HAL_Driver/Src/stm32f4xx_hal_i2c.c **** 
1155:Drivers/STM32F4xx_HAL_Driver/Src/stm32f4xx_hal_i2c.c ****     /* Process Unlocked */
1156:Drivers/STM32F4xx_HAL_Driver/Src/stm32f4xx_hal_i2c.c ****     __HAL_UNLOCK(hi2c);
 913              		.loc 1 1156 5
 914 01dc FB68     		ldr	r3, [r7, #12]
 915 01de 0022     		movs	r2, #0
 916 01e0 83F83C20 		strb	r2, [r3, #60]
1157:Drivers/STM32F4xx_HAL_Driver/Src/stm32f4xx_hal_i2c.c **** 
1158:Drivers/STM32F4xx_HAL_Driver/Src/stm32f4xx_hal_i2c.c ****     return HAL_OK;
 917              		.loc 1 1158 12
 918 01e4 0023     		movs	r3, #0
 919 01e6 00E0     		b	.L33
 920              	.L31:
1159:Drivers/STM32F4xx_HAL_Driver/Src/stm32f4xx_hal_i2c.c ****   }
1160:Drivers/STM32F4xx_HAL_Driver/Src/stm32f4xx_hal_i2c.c ****   else
1161:Drivers/STM32F4xx_HAL_Driver/Src/stm32f4xx_hal_i2c.c ****   {
1162:Drivers/STM32F4xx_HAL_Driver/Src/stm32f4xx_hal_i2c.c ****     return HAL_BUSY;
 921              		.loc 1 1162 12
 922 01e8 0223     		movs	r3, #2
 923              	.L33:
1163:Drivers/STM32F4xx_HAL_Driver/Src/stm32f4xx_hal_i2c.c ****   }
1164:Drivers/STM32F4xx_HAL_Driver/Src/stm32f4xx_hal_i2c.c **** }
 924              		.loc 1 1164 1
 925 01ea 1846     		mov	r0, r3
 926 01ec 1837     		adds	r7, r7, #24
 927              		.cfi_def_cfa_offset 8
 928 01ee BD46     		mov	sp, r7
 929              		.cfi_def_cfa_register 13
 930              		@ sp needed
 931 01f0 80BD     		pop	{r7, pc}
 932              	.L44:
 933 01f2 00BF     		.align	2
 934              	.L43:
 935 01f4 02001000 		.word	1048578
 936 01f8 0000FFFF 		.word	-65536
 937              		.cfi_endproc
 938              	.LFE244:
 940              		.section	.text.HAL_I2C_Master_Receive,"ax",%progbits
 941              		.align	1
 942              		.global	HAL_I2C_Master_Receive
 943              		.syntax unified
 944              		.thumb
 945              		.thumb_func
 947              	HAL_I2C_Master_Receive:
 948              	.LFB245:
1165:Drivers/STM32F4xx_HAL_Driver/Src/stm32f4xx_hal_i2c.c **** 
1166:Drivers/STM32F4xx_HAL_Driver/Src/stm32f4xx_hal_i2c.c **** /**
1167:Drivers/STM32F4xx_HAL_Driver/Src/stm32f4xx_hal_i2c.c ****   * @brief  Receives in master mode an amount of data in blocking mode.
1168:Drivers/STM32F4xx_HAL_Driver/Src/stm32f4xx_hal_i2c.c ****   * @param  hi2c Pointer to a I2C_HandleTypeDef structure that contains
1169:Drivers/STM32F4xx_HAL_Driver/Src/stm32f4xx_hal_i2c.c ****   *                the configuration information for the specified I2C.
1170:Drivers/STM32F4xx_HAL_Driver/Src/stm32f4xx_hal_i2c.c ****   * @param  DevAddress Target device address: The device 7 bits address value
1171:Drivers/STM32F4xx_HAL_Driver/Src/stm32f4xx_hal_i2c.c ****   *         in datasheet must be shifted to the left before calling the interface
1172:Drivers/STM32F4xx_HAL_Driver/Src/stm32f4xx_hal_i2c.c ****   * @param  pData Pointer to data buffer
ARM GAS  C:\Users\Halil\AppData\Local\Temp\ccvukMBT.s 			page 38


1173:Drivers/STM32F4xx_HAL_Driver/Src/stm32f4xx_hal_i2c.c ****   * @param  Size Amount of data to be sent
1174:Drivers/STM32F4xx_HAL_Driver/Src/stm32f4xx_hal_i2c.c ****   * @param  Timeout Timeout duration
1175:Drivers/STM32F4xx_HAL_Driver/Src/stm32f4xx_hal_i2c.c ****   * @retval HAL status
1176:Drivers/STM32F4xx_HAL_Driver/Src/stm32f4xx_hal_i2c.c ****   */
1177:Drivers/STM32F4xx_HAL_Driver/Src/stm32f4xx_hal_i2c.c **** HAL_StatusTypeDef HAL_I2C_Master_Receive(I2C_HandleTypeDef *hi2c, uint16_t DevAddress, uint8_t *pDa
1178:Drivers/STM32F4xx_HAL_Driver/Src/stm32f4xx_hal_i2c.c **** {
 949              		.loc 1 1178 1
 950              		.cfi_startproc
 951              		@ args = 4, pretend = 0, frame = 40
 952              		@ frame_needed = 1, uses_anonymous_args = 0
 953 0000 80B5     		push	{r7, lr}
 954              		.cfi_def_cfa_offset 8
 955              		.cfi_offset 7, -8
 956              		.cfi_offset 14, -4
 957 0002 8CB0     		sub	sp, sp, #48
 958              		.cfi_def_cfa_offset 56
 959 0004 02AF     		add	r7, sp, #8
 960              		.cfi_def_cfa 7, 48
 961 0006 F860     		str	r0, [r7, #12]
 962 0008 7A60     		str	r2, [r7, #4]
 963 000a 1A46     		mov	r2, r3
 964 000c 0B46     		mov	r3, r1	@ movhi
 965 000e 7B81     		strh	r3, [r7, #10]	@ movhi
 966 0010 1346     		mov	r3, r2	@ movhi
 967 0012 3B81     		strh	r3, [r7, #8]	@ movhi
1179:Drivers/STM32F4xx_HAL_Driver/Src/stm32f4xx_hal_i2c.c ****   /* Init tickstart for timeout management*/
1180:Drivers/STM32F4xx_HAL_Driver/Src/stm32f4xx_hal_i2c.c ****   uint32_t tickstart = HAL_GetTick();
 968              		.loc 1 1180 24
 969 0014 FFF7FEFF 		bl	HAL_GetTick
 970 0018 7862     		str	r0, [r7, #36]
1181:Drivers/STM32F4xx_HAL_Driver/Src/stm32f4xx_hal_i2c.c **** 
1182:Drivers/STM32F4xx_HAL_Driver/Src/stm32f4xx_hal_i2c.c ****   if (hi2c->State == HAL_I2C_STATE_READY)
 971              		.loc 1 1182 11
 972 001a FB68     		ldr	r3, [r7, #12]
 973 001c 93F83D30 		ldrb	r3, [r3, #61]
 974 0020 DBB2     		uxtb	r3, r3
 975              		.loc 1 1182 6
 976 0022 202B     		cmp	r3, #32
 977 0024 40F01782 		bne	.L46
1183:Drivers/STM32F4xx_HAL_Driver/Src/stm32f4xx_hal_i2c.c ****   {
1184:Drivers/STM32F4xx_HAL_Driver/Src/stm32f4xx_hal_i2c.c ****     /* Wait until BUSY flag is reset */
1185:Drivers/STM32F4xx_HAL_Driver/Src/stm32f4xx_hal_i2c.c ****     if (I2C_WaitOnFlagUntilTimeout(hi2c, I2C_FLAG_BUSY, SET, I2C_TIMEOUT_BUSY_FLAG, tickstart) != H
 978              		.loc 1 1185 9
 979 0028 7B6A     		ldr	r3, [r7, #36]
 980 002a 0093     		str	r3, [sp]
 981 002c 1923     		movs	r3, #25
 982 002e 0122     		movs	r2, #1
 983 0030 7C49     		ldr	r1, .L68
 984 0032 F868     		ldr	r0, [r7, #12]
 985 0034 FFF7FEFF 		bl	I2C_WaitOnFlagUntilTimeout
 986 0038 0346     		mov	r3, r0
 987              		.loc 1 1185 8
 988 003a 002B     		cmp	r3, #0
 989 003c 01D0     		beq	.L47
1186:Drivers/STM32F4xx_HAL_Driver/Src/stm32f4xx_hal_i2c.c ****     {
1187:Drivers/STM32F4xx_HAL_Driver/Src/stm32f4xx_hal_i2c.c ****       return HAL_BUSY;
 990              		.loc 1 1187 14
ARM GAS  C:\Users\Halil\AppData\Local\Temp\ccvukMBT.s 			page 39


 991 003e 0223     		movs	r3, #2
 992 0040 0AE2     		b	.L48
 993              	.L47:
1188:Drivers/STM32F4xx_HAL_Driver/Src/stm32f4xx_hal_i2c.c ****     }
1189:Drivers/STM32F4xx_HAL_Driver/Src/stm32f4xx_hal_i2c.c **** 
1190:Drivers/STM32F4xx_HAL_Driver/Src/stm32f4xx_hal_i2c.c ****     /* Process Locked */
1191:Drivers/STM32F4xx_HAL_Driver/Src/stm32f4xx_hal_i2c.c ****     __HAL_LOCK(hi2c);
 994              		.loc 1 1191 5
 995 0042 FB68     		ldr	r3, [r7, #12]
 996 0044 93F83C30 		ldrb	r3, [r3, #60]	@ zero_extendqisi2
 997 0048 012B     		cmp	r3, #1
 998 004a 01D1     		bne	.L49
 999              		.loc 1 1191 5 is_stmt 0 discriminator 1
 1000 004c 0223     		movs	r3, #2
 1001 004e 03E2     		b	.L48
 1002              	.L49:
 1003              		.loc 1 1191 5 discriminator 2
 1004 0050 FB68     		ldr	r3, [r7, #12]
 1005 0052 0122     		movs	r2, #1
 1006 0054 83F83C20 		strb	r2, [r3, #60]
1192:Drivers/STM32F4xx_HAL_Driver/Src/stm32f4xx_hal_i2c.c **** 
1193:Drivers/STM32F4xx_HAL_Driver/Src/stm32f4xx_hal_i2c.c ****     /* Check if the I2C is already enabled */
1194:Drivers/STM32F4xx_HAL_Driver/Src/stm32f4xx_hal_i2c.c ****     if ((hi2c->Instance->CR1 & I2C_CR1_PE) != I2C_CR1_PE)
 1007              		.loc 1 1194 14 is_stmt 1 discriminator 2
 1008 0058 FB68     		ldr	r3, [r7, #12]
 1009 005a 1B68     		ldr	r3, [r3]
 1010              		.loc 1 1194 24 discriminator 2
 1011 005c 1B68     		ldr	r3, [r3]
 1012              		.loc 1 1194 30 discriminator 2
 1013 005e 03F00103 		and	r3, r3, #1
 1014              		.loc 1 1194 8 discriminator 2
 1015 0062 012B     		cmp	r3, #1
 1016 0064 07D0     		beq	.L50
1195:Drivers/STM32F4xx_HAL_Driver/Src/stm32f4xx_hal_i2c.c ****     {
1196:Drivers/STM32F4xx_HAL_Driver/Src/stm32f4xx_hal_i2c.c ****       /* Enable I2C peripheral */
1197:Drivers/STM32F4xx_HAL_Driver/Src/stm32f4xx_hal_i2c.c ****       __HAL_I2C_ENABLE(hi2c);
 1017              		.loc 1 1197 7
 1018 0066 FB68     		ldr	r3, [r7, #12]
 1019 0068 1B68     		ldr	r3, [r3]
 1020 006a 1A68     		ldr	r2, [r3]
 1021 006c FB68     		ldr	r3, [r7, #12]
 1022 006e 1B68     		ldr	r3, [r3]
 1023 0070 42F00102 		orr	r2, r2, #1
 1024 0074 1A60     		str	r2, [r3]
 1025              	.L50:
1198:Drivers/STM32F4xx_HAL_Driver/Src/stm32f4xx_hal_i2c.c ****     }
1199:Drivers/STM32F4xx_HAL_Driver/Src/stm32f4xx_hal_i2c.c **** 
1200:Drivers/STM32F4xx_HAL_Driver/Src/stm32f4xx_hal_i2c.c ****     /* Disable Pos */
1201:Drivers/STM32F4xx_HAL_Driver/Src/stm32f4xx_hal_i2c.c ****     CLEAR_BIT(hi2c->Instance->CR1, I2C_CR1_POS);
 1026              		.loc 1 1201 5
 1027 0076 FB68     		ldr	r3, [r7, #12]
 1028 0078 1B68     		ldr	r3, [r3]
 1029 007a 1A68     		ldr	r2, [r3]
 1030 007c FB68     		ldr	r3, [r7, #12]
 1031 007e 1B68     		ldr	r3, [r3]
 1032 0080 22F40062 		bic	r2, r2, #2048
 1033 0084 1A60     		str	r2, [r3]
ARM GAS  C:\Users\Halil\AppData\Local\Temp\ccvukMBT.s 			page 40


1202:Drivers/STM32F4xx_HAL_Driver/Src/stm32f4xx_hal_i2c.c **** 
1203:Drivers/STM32F4xx_HAL_Driver/Src/stm32f4xx_hal_i2c.c ****     hi2c->State       = HAL_I2C_STATE_BUSY_RX;
 1034              		.loc 1 1203 23
 1035 0086 FB68     		ldr	r3, [r7, #12]
 1036 0088 2222     		movs	r2, #34
 1037 008a 83F83D20 		strb	r2, [r3, #61]
1204:Drivers/STM32F4xx_HAL_Driver/Src/stm32f4xx_hal_i2c.c ****     hi2c->Mode        = HAL_I2C_MODE_MASTER;
 1038              		.loc 1 1204 23
 1039 008e FB68     		ldr	r3, [r7, #12]
 1040 0090 1022     		movs	r2, #16
 1041 0092 83F83E20 		strb	r2, [r3, #62]
1205:Drivers/STM32F4xx_HAL_Driver/Src/stm32f4xx_hal_i2c.c ****     hi2c->ErrorCode   = HAL_I2C_ERROR_NONE;
 1042              		.loc 1 1205 23
 1043 0096 FB68     		ldr	r3, [r7, #12]
 1044 0098 0022     		movs	r2, #0
 1045 009a 1A64     		str	r2, [r3, #64]
1206:Drivers/STM32F4xx_HAL_Driver/Src/stm32f4xx_hal_i2c.c **** 
1207:Drivers/STM32F4xx_HAL_Driver/Src/stm32f4xx_hal_i2c.c ****     /* Prepare transfer parameters */
1208:Drivers/STM32F4xx_HAL_Driver/Src/stm32f4xx_hal_i2c.c ****     hi2c->pBuffPtr    = pData;
 1046              		.loc 1 1208 23
 1047 009c FB68     		ldr	r3, [r7, #12]
 1048 009e 7A68     		ldr	r2, [r7, #4]
 1049 00a0 5A62     		str	r2, [r3, #36]
1209:Drivers/STM32F4xx_HAL_Driver/Src/stm32f4xx_hal_i2c.c ****     hi2c->XferCount   = Size;
 1050              		.loc 1 1209 23
 1051 00a2 FB68     		ldr	r3, [r7, #12]
 1052 00a4 3A89     		ldrh	r2, [r7, #8]	@ movhi
 1053 00a6 5A85     		strh	r2, [r3, #42]	@ movhi
1210:Drivers/STM32F4xx_HAL_Driver/Src/stm32f4xx_hal_i2c.c ****     hi2c->XferSize    = hi2c->XferCount;
 1054              		.loc 1 1210 29
 1055 00a8 FB68     		ldr	r3, [r7, #12]
 1056 00aa 5B8D     		ldrh	r3, [r3, #42]	@ movhi
 1057 00ac 9AB2     		uxth	r2, r3
 1058              		.loc 1 1210 23
 1059 00ae FB68     		ldr	r3, [r7, #12]
 1060 00b0 1A85     		strh	r2, [r3, #40]	@ movhi
1211:Drivers/STM32F4xx_HAL_Driver/Src/stm32f4xx_hal_i2c.c ****     hi2c->XferOptions = I2C_NO_OPTION_FRAME;
 1061              		.loc 1 1211 23
 1062 00b2 FB68     		ldr	r3, [r7, #12]
 1063 00b4 5C4A     		ldr	r2, .L68+4
 1064 00b6 DA62     		str	r2, [r3, #44]
1212:Drivers/STM32F4xx_HAL_Driver/Src/stm32f4xx_hal_i2c.c **** 
1213:Drivers/STM32F4xx_HAL_Driver/Src/stm32f4xx_hal_i2c.c ****     /* Send Slave Address */
1214:Drivers/STM32F4xx_HAL_Driver/Src/stm32f4xx_hal_i2c.c ****     if (I2C_MasterRequestRead(hi2c, DevAddress, Timeout, tickstart) != HAL_OK)
 1065              		.loc 1 1214 9
 1066 00b8 7989     		ldrh	r1, [r7, #10]
 1067 00ba 7B6A     		ldr	r3, [r7, #36]
 1068 00bc 3A6B     		ldr	r2, [r7, #48]
 1069 00be F868     		ldr	r0, [r7, #12]
 1070 00c0 FFF7FEFF 		bl	I2C_MasterRequestRead
 1071 00c4 0346     		mov	r3, r0
 1072              		.loc 1 1214 8
 1073 00c6 002B     		cmp	r3, #0
 1074 00c8 01D0     		beq	.L51
1215:Drivers/STM32F4xx_HAL_Driver/Src/stm32f4xx_hal_i2c.c ****     {
1216:Drivers/STM32F4xx_HAL_Driver/Src/stm32f4xx_hal_i2c.c ****       return HAL_ERROR;
 1075              		.loc 1 1216 14
ARM GAS  C:\Users\Halil\AppData\Local\Temp\ccvukMBT.s 			page 41


 1076 00ca 0123     		movs	r3, #1
 1077 00cc C4E1     		b	.L48
 1078              	.L51:
1217:Drivers/STM32F4xx_HAL_Driver/Src/stm32f4xx_hal_i2c.c ****     }
1218:Drivers/STM32F4xx_HAL_Driver/Src/stm32f4xx_hal_i2c.c **** 
1219:Drivers/STM32F4xx_HAL_Driver/Src/stm32f4xx_hal_i2c.c ****     if (hi2c->XferSize == 0U)
 1079              		.loc 1 1219 13
 1080 00ce FB68     		ldr	r3, [r7, #12]
 1081 00d0 1B8D     		ldrh	r3, [r3, #40]
 1082              		.loc 1 1219 8
 1083 00d2 002B     		cmp	r3, #0
 1084 00d4 13D1     		bne	.L52
 1085              	.LBB3:
1220:Drivers/STM32F4xx_HAL_Driver/Src/stm32f4xx_hal_i2c.c ****     {
1221:Drivers/STM32F4xx_HAL_Driver/Src/stm32f4xx_hal_i2c.c ****       /* Clear ADDR flag */
1222:Drivers/STM32F4xx_HAL_Driver/Src/stm32f4xx_hal_i2c.c ****       __HAL_I2C_CLEAR_ADDRFLAG(hi2c);
 1086              		.loc 1 1222 7
 1087 00d6 0023     		movs	r3, #0
 1088 00d8 3B62     		str	r3, [r7, #32]
 1089 00da FB68     		ldr	r3, [r7, #12]
 1090 00dc 1B68     		ldr	r3, [r3]
 1091 00de 5B69     		ldr	r3, [r3, #20]
 1092 00e0 3B62     		str	r3, [r7, #32]
 1093 00e2 FB68     		ldr	r3, [r7, #12]
 1094 00e4 1B68     		ldr	r3, [r3]
 1095 00e6 9B69     		ldr	r3, [r3, #24]
 1096 00e8 3B62     		str	r3, [r7, #32]
 1097 00ea 3B6A     		ldr	r3, [r7, #32]
 1098              	.LBE3:
1223:Drivers/STM32F4xx_HAL_Driver/Src/stm32f4xx_hal_i2c.c **** 
1224:Drivers/STM32F4xx_HAL_Driver/Src/stm32f4xx_hal_i2c.c ****       /* Generate Stop */
1225:Drivers/STM32F4xx_HAL_Driver/Src/stm32f4xx_hal_i2c.c ****       SET_BIT(hi2c->Instance->CR1, I2C_CR1_STOP);
 1099              		.loc 1 1225 7
 1100 00ec FB68     		ldr	r3, [r7, #12]
 1101 00ee 1B68     		ldr	r3, [r3]
 1102 00f0 1A68     		ldr	r2, [r3]
 1103 00f2 FB68     		ldr	r3, [r7, #12]
 1104 00f4 1B68     		ldr	r3, [r3]
 1105 00f6 42F40072 		orr	r2, r2, #512
 1106 00fa 1A60     		str	r2, [r3]
 1107 00fc 98E1     		b	.L56
 1108              	.L52:
1226:Drivers/STM32F4xx_HAL_Driver/Src/stm32f4xx_hal_i2c.c ****     }
1227:Drivers/STM32F4xx_HAL_Driver/Src/stm32f4xx_hal_i2c.c ****     else if (hi2c->XferSize == 1U)
 1109              		.loc 1 1227 18
 1110 00fe FB68     		ldr	r3, [r7, #12]
 1111 0100 1B8D     		ldrh	r3, [r3, #40]
 1112              		.loc 1 1227 13
 1113 0102 012B     		cmp	r3, #1
 1114 0104 1BD1     		bne	.L54
1228:Drivers/STM32F4xx_HAL_Driver/Src/stm32f4xx_hal_i2c.c ****     {
1229:Drivers/STM32F4xx_HAL_Driver/Src/stm32f4xx_hal_i2c.c ****       /* Disable Acknowledge */
1230:Drivers/STM32F4xx_HAL_Driver/Src/stm32f4xx_hal_i2c.c ****       CLEAR_BIT(hi2c->Instance->CR1, I2C_CR1_ACK);
 1115              		.loc 1 1230 7
 1116 0106 FB68     		ldr	r3, [r7, #12]
 1117 0108 1B68     		ldr	r3, [r3]
 1118 010a 1A68     		ldr	r2, [r3]
ARM GAS  C:\Users\Halil\AppData\Local\Temp\ccvukMBT.s 			page 42


 1119 010c FB68     		ldr	r3, [r7, #12]
 1120 010e 1B68     		ldr	r3, [r3]
 1121 0110 22F48062 		bic	r2, r2, #1024
 1122 0114 1A60     		str	r2, [r3]
 1123              	.LBB4:
1231:Drivers/STM32F4xx_HAL_Driver/Src/stm32f4xx_hal_i2c.c **** 
1232:Drivers/STM32F4xx_HAL_Driver/Src/stm32f4xx_hal_i2c.c ****       /* Clear ADDR flag */
1233:Drivers/STM32F4xx_HAL_Driver/Src/stm32f4xx_hal_i2c.c ****       __HAL_I2C_CLEAR_ADDRFLAG(hi2c);
 1124              		.loc 1 1233 7
 1125 0116 0023     		movs	r3, #0
 1126 0118 FB61     		str	r3, [r7, #28]
 1127 011a FB68     		ldr	r3, [r7, #12]
 1128 011c 1B68     		ldr	r3, [r3]
 1129 011e 5B69     		ldr	r3, [r3, #20]
 1130 0120 FB61     		str	r3, [r7, #28]
 1131 0122 FB68     		ldr	r3, [r7, #12]
 1132 0124 1B68     		ldr	r3, [r3]
 1133 0126 9B69     		ldr	r3, [r3, #24]
 1134 0128 FB61     		str	r3, [r7, #28]
 1135 012a FB69     		ldr	r3, [r7, #28]
 1136              	.LBE4:
1234:Drivers/STM32F4xx_HAL_Driver/Src/stm32f4xx_hal_i2c.c **** 
1235:Drivers/STM32F4xx_HAL_Driver/Src/stm32f4xx_hal_i2c.c ****       /* Generate Stop */
1236:Drivers/STM32F4xx_HAL_Driver/Src/stm32f4xx_hal_i2c.c ****       SET_BIT(hi2c->Instance->CR1, I2C_CR1_STOP);
 1137              		.loc 1 1236 7
 1138 012c FB68     		ldr	r3, [r7, #12]
 1139 012e 1B68     		ldr	r3, [r3]
 1140 0130 1A68     		ldr	r2, [r3]
 1141 0132 FB68     		ldr	r3, [r7, #12]
 1142 0134 1B68     		ldr	r3, [r3]
 1143 0136 42F40072 		orr	r2, r2, #512
 1144 013a 1A60     		str	r2, [r3]
 1145 013c 78E1     		b	.L56
 1146              	.L54:
1237:Drivers/STM32F4xx_HAL_Driver/Src/stm32f4xx_hal_i2c.c ****     }
1238:Drivers/STM32F4xx_HAL_Driver/Src/stm32f4xx_hal_i2c.c ****     else if (hi2c->XferSize == 2U)
 1147              		.loc 1 1238 18
 1148 013e FB68     		ldr	r3, [r7, #12]
 1149 0140 1B8D     		ldrh	r3, [r3, #40]
 1150              		.loc 1 1238 13
 1151 0142 022B     		cmp	r3, #2
 1152 0144 1BD1     		bne	.L55
1239:Drivers/STM32F4xx_HAL_Driver/Src/stm32f4xx_hal_i2c.c ****     {
1240:Drivers/STM32F4xx_HAL_Driver/Src/stm32f4xx_hal_i2c.c ****       /* Disable Acknowledge */
1241:Drivers/STM32F4xx_HAL_Driver/Src/stm32f4xx_hal_i2c.c ****       CLEAR_BIT(hi2c->Instance->CR1, I2C_CR1_ACK);
 1153              		.loc 1 1241 7
 1154 0146 FB68     		ldr	r3, [r7, #12]
 1155 0148 1B68     		ldr	r3, [r3]
 1156 014a 1A68     		ldr	r2, [r3]
 1157 014c FB68     		ldr	r3, [r7, #12]
 1158 014e 1B68     		ldr	r3, [r3]
 1159 0150 22F48062 		bic	r2, r2, #1024
 1160 0154 1A60     		str	r2, [r3]
1242:Drivers/STM32F4xx_HAL_Driver/Src/stm32f4xx_hal_i2c.c **** 
1243:Drivers/STM32F4xx_HAL_Driver/Src/stm32f4xx_hal_i2c.c ****       /* Enable Pos */
1244:Drivers/STM32F4xx_HAL_Driver/Src/stm32f4xx_hal_i2c.c ****       SET_BIT(hi2c->Instance->CR1, I2C_CR1_POS);
 1161              		.loc 1 1244 7
ARM GAS  C:\Users\Halil\AppData\Local\Temp\ccvukMBT.s 			page 43


 1162 0156 FB68     		ldr	r3, [r7, #12]
 1163 0158 1B68     		ldr	r3, [r3]
 1164 015a 1A68     		ldr	r2, [r3]
 1165 015c FB68     		ldr	r3, [r7, #12]
 1166 015e 1B68     		ldr	r3, [r3]
 1167 0160 42F40062 		orr	r2, r2, #2048
 1168 0164 1A60     		str	r2, [r3]
 1169              	.LBB5:
1245:Drivers/STM32F4xx_HAL_Driver/Src/stm32f4xx_hal_i2c.c **** 
1246:Drivers/STM32F4xx_HAL_Driver/Src/stm32f4xx_hal_i2c.c ****       /* Clear ADDR flag */
1247:Drivers/STM32F4xx_HAL_Driver/Src/stm32f4xx_hal_i2c.c ****       __HAL_I2C_CLEAR_ADDRFLAG(hi2c);
 1170              		.loc 1 1247 7
 1171 0166 0023     		movs	r3, #0
 1172 0168 BB61     		str	r3, [r7, #24]
 1173 016a FB68     		ldr	r3, [r7, #12]
 1174 016c 1B68     		ldr	r3, [r3]
 1175 016e 5B69     		ldr	r3, [r3, #20]
 1176 0170 BB61     		str	r3, [r7, #24]
 1177 0172 FB68     		ldr	r3, [r7, #12]
 1178 0174 1B68     		ldr	r3, [r3]
 1179 0176 9B69     		ldr	r3, [r3, #24]
 1180 0178 BB61     		str	r3, [r7, #24]
 1181 017a BB69     		ldr	r3, [r7, #24]
 1182              	.LBE5:
 1183 017c 58E1     		b	.L56
 1184              	.L55:
1248:Drivers/STM32F4xx_HAL_Driver/Src/stm32f4xx_hal_i2c.c ****     }
1249:Drivers/STM32F4xx_HAL_Driver/Src/stm32f4xx_hal_i2c.c ****     else
1250:Drivers/STM32F4xx_HAL_Driver/Src/stm32f4xx_hal_i2c.c ****     {
1251:Drivers/STM32F4xx_HAL_Driver/Src/stm32f4xx_hal_i2c.c ****       /* Enable Acknowledge */
1252:Drivers/STM32F4xx_HAL_Driver/Src/stm32f4xx_hal_i2c.c ****       SET_BIT(hi2c->Instance->CR1, I2C_CR1_ACK);
 1185              		.loc 1 1252 7
 1186 017e FB68     		ldr	r3, [r7, #12]
 1187 0180 1B68     		ldr	r3, [r3]
 1188 0182 1A68     		ldr	r2, [r3]
 1189 0184 FB68     		ldr	r3, [r7, #12]
 1190 0186 1B68     		ldr	r3, [r3]
 1191 0188 42F48062 		orr	r2, r2, #1024
 1192 018c 1A60     		str	r2, [r3]
 1193              	.LBB6:
1253:Drivers/STM32F4xx_HAL_Driver/Src/stm32f4xx_hal_i2c.c **** 
1254:Drivers/STM32F4xx_HAL_Driver/Src/stm32f4xx_hal_i2c.c ****       /* Clear ADDR flag */
1255:Drivers/STM32F4xx_HAL_Driver/Src/stm32f4xx_hal_i2c.c ****       __HAL_I2C_CLEAR_ADDRFLAG(hi2c);
 1194              		.loc 1 1255 7
 1195 018e 0023     		movs	r3, #0
 1196 0190 7B61     		str	r3, [r7, #20]
 1197 0192 FB68     		ldr	r3, [r7, #12]
 1198 0194 1B68     		ldr	r3, [r3]
 1199 0196 5B69     		ldr	r3, [r3, #20]
 1200 0198 7B61     		str	r3, [r7, #20]
 1201 019a FB68     		ldr	r3, [r7, #12]
 1202 019c 1B68     		ldr	r3, [r3]
 1203 019e 9B69     		ldr	r3, [r3, #24]
 1204 01a0 7B61     		str	r3, [r7, #20]
 1205 01a2 7B69     		ldr	r3, [r7, #20]
 1206              	.LBE6:
1256:Drivers/STM32F4xx_HAL_Driver/Src/stm32f4xx_hal_i2c.c ****     }
ARM GAS  C:\Users\Halil\AppData\Local\Temp\ccvukMBT.s 			page 44


1257:Drivers/STM32F4xx_HAL_Driver/Src/stm32f4xx_hal_i2c.c **** 
1258:Drivers/STM32F4xx_HAL_Driver/Src/stm32f4xx_hal_i2c.c ****     while (hi2c->XferSize > 0U)
 1207              		.loc 1 1258 11
 1208 01a4 44E1     		b	.L56
 1209              	.L67:
1259:Drivers/STM32F4xx_HAL_Driver/Src/stm32f4xx_hal_i2c.c ****     {
1260:Drivers/STM32F4xx_HAL_Driver/Src/stm32f4xx_hal_i2c.c ****       if (hi2c->XferSize <= 3U)
 1210              		.loc 1 1260 15
 1211 01a6 FB68     		ldr	r3, [r7, #12]
 1212 01a8 1B8D     		ldrh	r3, [r3, #40]
 1213              		.loc 1 1260 10
 1214 01aa 032B     		cmp	r3, #3
 1215 01ac 00F2F180 		bhi	.L57
1261:Drivers/STM32F4xx_HAL_Driver/Src/stm32f4xx_hal_i2c.c ****       {
1262:Drivers/STM32F4xx_HAL_Driver/Src/stm32f4xx_hal_i2c.c ****         /* One byte */
1263:Drivers/STM32F4xx_HAL_Driver/Src/stm32f4xx_hal_i2c.c ****         if (hi2c->XferSize == 1U)
 1216              		.loc 1 1263 17
 1217 01b0 FB68     		ldr	r3, [r7, #12]
 1218 01b2 1B8D     		ldrh	r3, [r3, #40]
 1219              		.loc 1 1263 12
 1220 01b4 012B     		cmp	r3, #1
 1221 01b6 23D1     		bne	.L58
1264:Drivers/STM32F4xx_HAL_Driver/Src/stm32f4xx_hal_i2c.c ****         {
1265:Drivers/STM32F4xx_HAL_Driver/Src/stm32f4xx_hal_i2c.c ****           /* Wait until RXNE flag is set */
1266:Drivers/STM32F4xx_HAL_Driver/Src/stm32f4xx_hal_i2c.c ****           if (I2C_WaitOnRXNEFlagUntilTimeout(hi2c, Timeout, tickstart) != HAL_OK)
 1222              		.loc 1 1266 15
 1223 01b8 7A6A     		ldr	r2, [r7, #36]
 1224 01ba 396B     		ldr	r1, [r7, #48]
 1225 01bc F868     		ldr	r0, [r7, #12]
 1226 01be FFF7FEFF 		bl	I2C_WaitOnRXNEFlagUntilTimeout
 1227 01c2 0346     		mov	r3, r0
 1228              		.loc 1 1266 14
 1229 01c4 002B     		cmp	r3, #0
 1230 01c6 01D0     		beq	.L59
1267:Drivers/STM32F4xx_HAL_Driver/Src/stm32f4xx_hal_i2c.c ****           {
1268:Drivers/STM32F4xx_HAL_Driver/Src/stm32f4xx_hal_i2c.c ****             return HAL_ERROR;
 1231              		.loc 1 1268 20
 1232 01c8 0123     		movs	r3, #1
 1233 01ca 45E1     		b	.L48
 1234              	.L59:
1269:Drivers/STM32F4xx_HAL_Driver/Src/stm32f4xx_hal_i2c.c ****           }
1270:Drivers/STM32F4xx_HAL_Driver/Src/stm32f4xx_hal_i2c.c **** 
1271:Drivers/STM32F4xx_HAL_Driver/Src/stm32f4xx_hal_i2c.c ****           /* Read data from DR */
1272:Drivers/STM32F4xx_HAL_Driver/Src/stm32f4xx_hal_i2c.c ****           *hi2c->pBuffPtr = (uint8_t)hi2c->Instance->DR;
 1235              		.loc 1 1272 42
 1236 01cc FB68     		ldr	r3, [r7, #12]
 1237 01ce 1B68     		ldr	r3, [r3]
 1238              		.loc 1 1272 52
 1239 01d0 1A69     		ldr	r2, [r3, #16]
 1240              		.loc 1 1272 16
 1241 01d2 FB68     		ldr	r3, [r7, #12]
 1242 01d4 5B6A     		ldr	r3, [r3, #36]
 1243              		.loc 1 1272 29
 1244 01d6 D2B2     		uxtb	r2, r2
 1245              		.loc 1 1272 27
 1246 01d8 1A70     		strb	r2, [r3]
1273:Drivers/STM32F4xx_HAL_Driver/Src/stm32f4xx_hal_i2c.c **** 
ARM GAS  C:\Users\Halil\AppData\Local\Temp\ccvukMBT.s 			page 45


1274:Drivers/STM32F4xx_HAL_Driver/Src/stm32f4xx_hal_i2c.c ****           /* Increment Buffer pointer */
1275:Drivers/STM32F4xx_HAL_Driver/Src/stm32f4xx_hal_i2c.c ****           hi2c->pBuffPtr++;
 1247              		.loc 1 1275 15
 1248 01da FB68     		ldr	r3, [r7, #12]
 1249 01dc 5B6A     		ldr	r3, [r3, #36]
 1250              		.loc 1 1275 25
 1251 01de 5A1C     		adds	r2, r3, #1
 1252 01e0 FB68     		ldr	r3, [r7, #12]
 1253 01e2 5A62     		str	r2, [r3, #36]
1276:Drivers/STM32F4xx_HAL_Driver/Src/stm32f4xx_hal_i2c.c **** 
1277:Drivers/STM32F4xx_HAL_Driver/Src/stm32f4xx_hal_i2c.c ****           /* Update counter */
1278:Drivers/STM32F4xx_HAL_Driver/Src/stm32f4xx_hal_i2c.c ****           hi2c->XferSize--;
 1254              		.loc 1 1278 15
 1255 01e4 FB68     		ldr	r3, [r7, #12]
 1256 01e6 1B8D     		ldrh	r3, [r3, #40]
 1257              		.loc 1 1278 25
 1258 01e8 013B     		subs	r3, r3, #1
 1259 01ea 9AB2     		uxth	r2, r3
 1260 01ec FB68     		ldr	r3, [r7, #12]
 1261 01ee 1A85     		strh	r2, [r3, #40]	@ movhi
1279:Drivers/STM32F4xx_HAL_Driver/Src/stm32f4xx_hal_i2c.c ****           hi2c->XferCount--;
 1262              		.loc 1 1279 15
 1263 01f0 FB68     		ldr	r3, [r7, #12]
 1264 01f2 5B8D     		ldrh	r3, [r3, #42]	@ movhi
 1265 01f4 9BB2     		uxth	r3, r3
 1266              		.loc 1 1279 26
 1267 01f6 013B     		subs	r3, r3, #1
 1268 01f8 9AB2     		uxth	r2, r3
 1269 01fa FB68     		ldr	r3, [r7, #12]
 1270 01fc 5A85     		strh	r2, [r3, #42]	@ movhi
 1271 01fe 17E1     		b	.L56
 1272              	.L58:
1280:Drivers/STM32F4xx_HAL_Driver/Src/stm32f4xx_hal_i2c.c ****         }
1281:Drivers/STM32F4xx_HAL_Driver/Src/stm32f4xx_hal_i2c.c ****         /* Two bytes */
1282:Drivers/STM32F4xx_HAL_Driver/Src/stm32f4xx_hal_i2c.c ****         else if (hi2c->XferSize == 2U)
 1273              		.loc 1 1282 22
 1274 0200 FB68     		ldr	r3, [r7, #12]
 1275 0202 1B8D     		ldrh	r3, [r3, #40]
 1276              		.loc 1 1282 17
 1277 0204 022B     		cmp	r3, #2
 1278 0206 4ED1     		bne	.L61
1283:Drivers/STM32F4xx_HAL_Driver/Src/stm32f4xx_hal_i2c.c ****         {
1284:Drivers/STM32F4xx_HAL_Driver/Src/stm32f4xx_hal_i2c.c ****           /* Wait until BTF flag is set */
1285:Drivers/STM32F4xx_HAL_Driver/Src/stm32f4xx_hal_i2c.c ****           if (I2C_WaitOnFlagUntilTimeout(hi2c, I2C_FLAG_BTF, RESET, Timeout, tickstart) != HAL_OK)
 1279              		.loc 1 1285 15
 1280 0208 7B6A     		ldr	r3, [r7, #36]
 1281 020a 0093     		str	r3, [sp]
 1282 020c 3B6B     		ldr	r3, [r7, #48]
 1283 020e 0022     		movs	r2, #0
 1284 0210 0649     		ldr	r1, .L68+8
 1285 0212 F868     		ldr	r0, [r7, #12]
 1286 0214 FFF7FEFF 		bl	I2C_WaitOnFlagUntilTimeout
 1287 0218 0346     		mov	r3, r0
 1288              		.loc 1 1285 14
 1289 021a 002B     		cmp	r3, #0
 1290 021c 08D0     		beq	.L62
1286:Drivers/STM32F4xx_HAL_Driver/Src/stm32f4xx_hal_i2c.c ****           {
ARM GAS  C:\Users\Halil\AppData\Local\Temp\ccvukMBT.s 			page 46


1287:Drivers/STM32F4xx_HAL_Driver/Src/stm32f4xx_hal_i2c.c ****             return HAL_ERROR;
 1291              		.loc 1 1287 20
 1292 021e 0123     		movs	r3, #1
 1293 0220 1AE1     		b	.L48
 1294              	.L69:
 1295 0222 00BF     		.align	2
 1296              	.L68:
 1297 0224 02001000 		.word	1048578
 1298 0228 0000FFFF 		.word	-65536
 1299 022c 04000100 		.word	65540
 1300              	.L62:
1288:Drivers/STM32F4xx_HAL_Driver/Src/stm32f4xx_hal_i2c.c ****           }
1289:Drivers/STM32F4xx_HAL_Driver/Src/stm32f4xx_hal_i2c.c **** 
1290:Drivers/STM32F4xx_HAL_Driver/Src/stm32f4xx_hal_i2c.c ****           /* Generate Stop */
1291:Drivers/STM32F4xx_HAL_Driver/Src/stm32f4xx_hal_i2c.c ****           SET_BIT(hi2c->Instance->CR1, I2C_CR1_STOP);
 1301              		.loc 1 1291 11
 1302 0230 FB68     		ldr	r3, [r7, #12]
 1303 0232 1B68     		ldr	r3, [r3]
 1304 0234 1A68     		ldr	r2, [r3]
 1305 0236 FB68     		ldr	r3, [r7, #12]
 1306 0238 1B68     		ldr	r3, [r3]
 1307 023a 42F40072 		orr	r2, r2, #512
 1308 023e 1A60     		str	r2, [r3]
1292:Drivers/STM32F4xx_HAL_Driver/Src/stm32f4xx_hal_i2c.c **** 
1293:Drivers/STM32F4xx_HAL_Driver/Src/stm32f4xx_hal_i2c.c ****           /* Read data from DR */
1294:Drivers/STM32F4xx_HAL_Driver/Src/stm32f4xx_hal_i2c.c ****           *hi2c->pBuffPtr = (uint8_t)hi2c->Instance->DR;
 1309              		.loc 1 1294 42
 1310 0240 FB68     		ldr	r3, [r7, #12]
 1311 0242 1B68     		ldr	r3, [r3]
 1312              		.loc 1 1294 52
 1313 0244 1A69     		ldr	r2, [r3, #16]
 1314              		.loc 1 1294 16
 1315 0246 FB68     		ldr	r3, [r7, #12]
 1316 0248 5B6A     		ldr	r3, [r3, #36]
 1317              		.loc 1 1294 29
 1318 024a D2B2     		uxtb	r2, r2
 1319              		.loc 1 1294 27
 1320 024c 1A70     		strb	r2, [r3]
1295:Drivers/STM32F4xx_HAL_Driver/Src/stm32f4xx_hal_i2c.c **** 
1296:Drivers/STM32F4xx_HAL_Driver/Src/stm32f4xx_hal_i2c.c ****           /* Increment Buffer pointer */
1297:Drivers/STM32F4xx_HAL_Driver/Src/stm32f4xx_hal_i2c.c ****           hi2c->pBuffPtr++;
 1321              		.loc 1 1297 15
 1322 024e FB68     		ldr	r3, [r7, #12]
 1323 0250 5B6A     		ldr	r3, [r3, #36]
 1324              		.loc 1 1297 25
 1325 0252 5A1C     		adds	r2, r3, #1
 1326 0254 FB68     		ldr	r3, [r7, #12]
 1327 0256 5A62     		str	r2, [r3, #36]
1298:Drivers/STM32F4xx_HAL_Driver/Src/stm32f4xx_hal_i2c.c **** 
1299:Drivers/STM32F4xx_HAL_Driver/Src/stm32f4xx_hal_i2c.c ****           /* Update counter */
1300:Drivers/STM32F4xx_HAL_Driver/Src/stm32f4xx_hal_i2c.c ****           hi2c->XferSize--;
 1328              		.loc 1 1300 15
 1329 0258 FB68     		ldr	r3, [r7, #12]
 1330 025a 1B8D     		ldrh	r3, [r3, #40]
 1331              		.loc 1 1300 25
 1332 025c 013B     		subs	r3, r3, #1
 1333 025e 9AB2     		uxth	r2, r3
ARM GAS  C:\Users\Halil\AppData\Local\Temp\ccvukMBT.s 			page 47


 1334 0260 FB68     		ldr	r3, [r7, #12]
 1335 0262 1A85     		strh	r2, [r3, #40]	@ movhi
1301:Drivers/STM32F4xx_HAL_Driver/Src/stm32f4xx_hal_i2c.c ****           hi2c->XferCount--;
 1336              		.loc 1 1301 15
 1337 0264 FB68     		ldr	r3, [r7, #12]
 1338 0266 5B8D     		ldrh	r3, [r3, #42]	@ movhi
 1339 0268 9BB2     		uxth	r3, r3
 1340              		.loc 1 1301 26
 1341 026a 013B     		subs	r3, r3, #1
 1342 026c 9AB2     		uxth	r2, r3
 1343 026e FB68     		ldr	r3, [r7, #12]
 1344 0270 5A85     		strh	r2, [r3, #42]	@ movhi
1302:Drivers/STM32F4xx_HAL_Driver/Src/stm32f4xx_hal_i2c.c **** 
1303:Drivers/STM32F4xx_HAL_Driver/Src/stm32f4xx_hal_i2c.c ****           /* Read data from DR */
1304:Drivers/STM32F4xx_HAL_Driver/Src/stm32f4xx_hal_i2c.c ****           *hi2c->pBuffPtr = (uint8_t)hi2c->Instance->DR;
 1345              		.loc 1 1304 42
 1346 0272 FB68     		ldr	r3, [r7, #12]
 1347 0274 1B68     		ldr	r3, [r3]
 1348              		.loc 1 1304 52
 1349 0276 1A69     		ldr	r2, [r3, #16]
 1350              		.loc 1 1304 16
 1351 0278 FB68     		ldr	r3, [r7, #12]
 1352 027a 5B6A     		ldr	r3, [r3, #36]
 1353              		.loc 1 1304 29
 1354 027c D2B2     		uxtb	r2, r2
 1355              		.loc 1 1304 27
 1356 027e 1A70     		strb	r2, [r3]
1305:Drivers/STM32F4xx_HAL_Driver/Src/stm32f4xx_hal_i2c.c **** 
1306:Drivers/STM32F4xx_HAL_Driver/Src/stm32f4xx_hal_i2c.c ****           /* Increment Buffer pointer */
1307:Drivers/STM32F4xx_HAL_Driver/Src/stm32f4xx_hal_i2c.c ****           hi2c->pBuffPtr++;
 1357              		.loc 1 1307 15
 1358 0280 FB68     		ldr	r3, [r7, #12]
 1359 0282 5B6A     		ldr	r3, [r3, #36]
 1360              		.loc 1 1307 25
 1361 0284 5A1C     		adds	r2, r3, #1
 1362 0286 FB68     		ldr	r3, [r7, #12]
 1363 0288 5A62     		str	r2, [r3, #36]
1308:Drivers/STM32F4xx_HAL_Driver/Src/stm32f4xx_hal_i2c.c **** 
1309:Drivers/STM32F4xx_HAL_Driver/Src/stm32f4xx_hal_i2c.c ****           /* Update counter */
1310:Drivers/STM32F4xx_HAL_Driver/Src/stm32f4xx_hal_i2c.c ****           hi2c->XferSize--;
 1364              		.loc 1 1310 15
 1365 028a FB68     		ldr	r3, [r7, #12]
 1366 028c 1B8D     		ldrh	r3, [r3, #40]
 1367              		.loc 1 1310 25
 1368 028e 013B     		subs	r3, r3, #1
 1369 0290 9AB2     		uxth	r2, r3
 1370 0292 FB68     		ldr	r3, [r7, #12]
 1371 0294 1A85     		strh	r2, [r3, #40]	@ movhi
1311:Drivers/STM32F4xx_HAL_Driver/Src/stm32f4xx_hal_i2c.c ****           hi2c->XferCount--;
 1372              		.loc 1 1311 15
 1373 0296 FB68     		ldr	r3, [r7, #12]
 1374 0298 5B8D     		ldrh	r3, [r3, #42]	@ movhi
 1375 029a 9BB2     		uxth	r3, r3
 1376              		.loc 1 1311 26
 1377 029c 013B     		subs	r3, r3, #1
 1378 029e 9AB2     		uxth	r2, r3
 1379 02a0 FB68     		ldr	r3, [r7, #12]
ARM GAS  C:\Users\Halil\AppData\Local\Temp\ccvukMBT.s 			page 48


 1380 02a2 5A85     		strh	r2, [r3, #42]	@ movhi
 1381 02a4 C4E0     		b	.L56
 1382              	.L61:
1312:Drivers/STM32F4xx_HAL_Driver/Src/stm32f4xx_hal_i2c.c ****         }
1313:Drivers/STM32F4xx_HAL_Driver/Src/stm32f4xx_hal_i2c.c ****         /* 3 Last bytes */
1314:Drivers/STM32F4xx_HAL_Driver/Src/stm32f4xx_hal_i2c.c ****         else
1315:Drivers/STM32F4xx_HAL_Driver/Src/stm32f4xx_hal_i2c.c ****         {
1316:Drivers/STM32F4xx_HAL_Driver/Src/stm32f4xx_hal_i2c.c ****           /* Wait until BTF flag is set */
1317:Drivers/STM32F4xx_HAL_Driver/Src/stm32f4xx_hal_i2c.c ****           if (I2C_WaitOnFlagUntilTimeout(hi2c, I2C_FLAG_BTF, RESET, Timeout, tickstart) != HAL_OK)
 1383              		.loc 1 1317 15
 1384 02a6 7B6A     		ldr	r3, [r7, #36]
 1385 02a8 0093     		str	r3, [sp]
 1386 02aa 3B6B     		ldr	r3, [r7, #48]
 1387 02ac 0022     		movs	r2, #0
 1388 02ae 6C49     		ldr	r1, .L70
 1389 02b0 F868     		ldr	r0, [r7, #12]
 1390 02b2 FFF7FEFF 		bl	I2C_WaitOnFlagUntilTimeout
 1391 02b6 0346     		mov	r3, r0
 1392              		.loc 1 1317 14
 1393 02b8 002B     		cmp	r3, #0
 1394 02ba 01D0     		beq	.L63
1318:Drivers/STM32F4xx_HAL_Driver/Src/stm32f4xx_hal_i2c.c ****           {
1319:Drivers/STM32F4xx_HAL_Driver/Src/stm32f4xx_hal_i2c.c ****             return HAL_ERROR;
 1395              		.loc 1 1319 20
 1396 02bc 0123     		movs	r3, #1
 1397 02be CBE0     		b	.L48
 1398              	.L63:
1320:Drivers/STM32F4xx_HAL_Driver/Src/stm32f4xx_hal_i2c.c ****           }
1321:Drivers/STM32F4xx_HAL_Driver/Src/stm32f4xx_hal_i2c.c **** 
1322:Drivers/STM32F4xx_HAL_Driver/Src/stm32f4xx_hal_i2c.c ****           /* Disable Acknowledge */
1323:Drivers/STM32F4xx_HAL_Driver/Src/stm32f4xx_hal_i2c.c ****           CLEAR_BIT(hi2c->Instance->CR1, I2C_CR1_ACK);
 1399              		.loc 1 1323 11
 1400 02c0 FB68     		ldr	r3, [r7, #12]
 1401 02c2 1B68     		ldr	r3, [r3]
 1402 02c4 1A68     		ldr	r2, [r3]
 1403 02c6 FB68     		ldr	r3, [r7, #12]
 1404 02c8 1B68     		ldr	r3, [r3]
 1405 02ca 22F48062 		bic	r2, r2, #1024
 1406 02ce 1A60     		str	r2, [r3]
1324:Drivers/STM32F4xx_HAL_Driver/Src/stm32f4xx_hal_i2c.c **** 
1325:Drivers/STM32F4xx_HAL_Driver/Src/stm32f4xx_hal_i2c.c ****           /* Read data from DR */
1326:Drivers/STM32F4xx_HAL_Driver/Src/stm32f4xx_hal_i2c.c ****           *hi2c->pBuffPtr = (uint8_t)hi2c->Instance->DR;
 1407              		.loc 1 1326 42
 1408 02d0 FB68     		ldr	r3, [r7, #12]
 1409 02d2 1B68     		ldr	r3, [r3]
 1410              		.loc 1 1326 52
 1411 02d4 1A69     		ldr	r2, [r3, #16]
 1412              		.loc 1 1326 16
 1413 02d6 FB68     		ldr	r3, [r7, #12]
 1414 02d8 5B6A     		ldr	r3, [r3, #36]
 1415              		.loc 1 1326 29
 1416 02da D2B2     		uxtb	r2, r2
 1417              		.loc 1 1326 27
 1418 02dc 1A70     		strb	r2, [r3]
1327:Drivers/STM32F4xx_HAL_Driver/Src/stm32f4xx_hal_i2c.c **** 
1328:Drivers/STM32F4xx_HAL_Driver/Src/stm32f4xx_hal_i2c.c ****           /* Increment Buffer pointer */
1329:Drivers/STM32F4xx_HAL_Driver/Src/stm32f4xx_hal_i2c.c ****           hi2c->pBuffPtr++;
ARM GAS  C:\Users\Halil\AppData\Local\Temp\ccvukMBT.s 			page 49


 1419              		.loc 1 1329 15
 1420 02de FB68     		ldr	r3, [r7, #12]
 1421 02e0 5B6A     		ldr	r3, [r3, #36]
 1422              		.loc 1 1329 25
 1423 02e2 5A1C     		adds	r2, r3, #1
 1424 02e4 FB68     		ldr	r3, [r7, #12]
 1425 02e6 5A62     		str	r2, [r3, #36]
1330:Drivers/STM32F4xx_HAL_Driver/Src/stm32f4xx_hal_i2c.c **** 
1331:Drivers/STM32F4xx_HAL_Driver/Src/stm32f4xx_hal_i2c.c ****           /* Update counter */
1332:Drivers/STM32F4xx_HAL_Driver/Src/stm32f4xx_hal_i2c.c ****           hi2c->XferSize--;
 1426              		.loc 1 1332 15
 1427 02e8 FB68     		ldr	r3, [r7, #12]
 1428 02ea 1B8D     		ldrh	r3, [r3, #40]
 1429              		.loc 1 1332 25
 1430 02ec 013B     		subs	r3, r3, #1
 1431 02ee 9AB2     		uxth	r2, r3
 1432 02f0 FB68     		ldr	r3, [r7, #12]
 1433 02f2 1A85     		strh	r2, [r3, #40]	@ movhi
1333:Drivers/STM32F4xx_HAL_Driver/Src/stm32f4xx_hal_i2c.c ****           hi2c->XferCount--;
 1434              		.loc 1 1333 15
 1435 02f4 FB68     		ldr	r3, [r7, #12]
 1436 02f6 5B8D     		ldrh	r3, [r3, #42]	@ movhi
 1437 02f8 9BB2     		uxth	r3, r3
 1438              		.loc 1 1333 26
 1439 02fa 013B     		subs	r3, r3, #1
 1440 02fc 9AB2     		uxth	r2, r3
 1441 02fe FB68     		ldr	r3, [r7, #12]
 1442 0300 5A85     		strh	r2, [r3, #42]	@ movhi
1334:Drivers/STM32F4xx_HAL_Driver/Src/stm32f4xx_hal_i2c.c **** 
1335:Drivers/STM32F4xx_HAL_Driver/Src/stm32f4xx_hal_i2c.c ****           /* Wait until BTF flag is set */
1336:Drivers/STM32F4xx_HAL_Driver/Src/stm32f4xx_hal_i2c.c ****           if (I2C_WaitOnFlagUntilTimeout(hi2c, I2C_FLAG_BTF, RESET, Timeout, tickstart) != HAL_OK)
 1443              		.loc 1 1336 15
 1444 0302 7B6A     		ldr	r3, [r7, #36]
 1445 0304 0093     		str	r3, [sp]
 1446 0306 3B6B     		ldr	r3, [r7, #48]
 1447 0308 0022     		movs	r2, #0
 1448 030a 5549     		ldr	r1, .L70
 1449 030c F868     		ldr	r0, [r7, #12]
 1450 030e FFF7FEFF 		bl	I2C_WaitOnFlagUntilTimeout
 1451 0312 0346     		mov	r3, r0
 1452              		.loc 1 1336 14
 1453 0314 002B     		cmp	r3, #0
 1454 0316 01D0     		beq	.L64
1337:Drivers/STM32F4xx_HAL_Driver/Src/stm32f4xx_hal_i2c.c ****           {
1338:Drivers/STM32F4xx_HAL_Driver/Src/stm32f4xx_hal_i2c.c ****             return HAL_ERROR;
 1455              		.loc 1 1338 20
 1456 0318 0123     		movs	r3, #1
 1457 031a 9DE0     		b	.L48
 1458              	.L64:
1339:Drivers/STM32F4xx_HAL_Driver/Src/stm32f4xx_hal_i2c.c ****           }
1340:Drivers/STM32F4xx_HAL_Driver/Src/stm32f4xx_hal_i2c.c **** 
1341:Drivers/STM32F4xx_HAL_Driver/Src/stm32f4xx_hal_i2c.c ****           /* Generate Stop */
1342:Drivers/STM32F4xx_HAL_Driver/Src/stm32f4xx_hal_i2c.c ****           SET_BIT(hi2c->Instance->CR1, I2C_CR1_STOP);
 1459              		.loc 1 1342 11
 1460 031c FB68     		ldr	r3, [r7, #12]
 1461 031e 1B68     		ldr	r3, [r3]
 1462 0320 1A68     		ldr	r2, [r3]
ARM GAS  C:\Users\Halil\AppData\Local\Temp\ccvukMBT.s 			page 50


 1463 0322 FB68     		ldr	r3, [r7, #12]
 1464 0324 1B68     		ldr	r3, [r3]
 1465 0326 42F40072 		orr	r2, r2, #512
 1466 032a 1A60     		str	r2, [r3]
1343:Drivers/STM32F4xx_HAL_Driver/Src/stm32f4xx_hal_i2c.c **** 
1344:Drivers/STM32F4xx_HAL_Driver/Src/stm32f4xx_hal_i2c.c ****           /* Read data from DR */
1345:Drivers/STM32F4xx_HAL_Driver/Src/stm32f4xx_hal_i2c.c ****           *hi2c->pBuffPtr = (uint8_t)hi2c->Instance->DR;
 1467              		.loc 1 1345 42
 1468 032c FB68     		ldr	r3, [r7, #12]
 1469 032e 1B68     		ldr	r3, [r3]
 1470              		.loc 1 1345 52
 1471 0330 1A69     		ldr	r2, [r3, #16]
 1472              		.loc 1 1345 16
 1473 0332 FB68     		ldr	r3, [r7, #12]
 1474 0334 5B6A     		ldr	r3, [r3, #36]
 1475              		.loc 1 1345 29
 1476 0336 D2B2     		uxtb	r2, r2
 1477              		.loc 1 1345 27
 1478 0338 1A70     		strb	r2, [r3]
1346:Drivers/STM32F4xx_HAL_Driver/Src/stm32f4xx_hal_i2c.c **** 
1347:Drivers/STM32F4xx_HAL_Driver/Src/stm32f4xx_hal_i2c.c ****           /* Increment Buffer pointer */
1348:Drivers/STM32F4xx_HAL_Driver/Src/stm32f4xx_hal_i2c.c ****           hi2c->pBuffPtr++;
 1479              		.loc 1 1348 15
 1480 033a FB68     		ldr	r3, [r7, #12]
 1481 033c 5B6A     		ldr	r3, [r3, #36]
 1482              		.loc 1 1348 25
 1483 033e 5A1C     		adds	r2, r3, #1
 1484 0340 FB68     		ldr	r3, [r7, #12]
 1485 0342 5A62     		str	r2, [r3, #36]
1349:Drivers/STM32F4xx_HAL_Driver/Src/stm32f4xx_hal_i2c.c **** 
1350:Drivers/STM32F4xx_HAL_Driver/Src/stm32f4xx_hal_i2c.c ****           /* Update counter */
1351:Drivers/STM32F4xx_HAL_Driver/Src/stm32f4xx_hal_i2c.c ****           hi2c->XferSize--;
 1486              		.loc 1 1351 15
 1487 0344 FB68     		ldr	r3, [r7, #12]
 1488 0346 1B8D     		ldrh	r3, [r3, #40]
 1489              		.loc 1 1351 25
 1490 0348 013B     		subs	r3, r3, #1
 1491 034a 9AB2     		uxth	r2, r3
 1492 034c FB68     		ldr	r3, [r7, #12]
 1493 034e 1A85     		strh	r2, [r3, #40]	@ movhi
1352:Drivers/STM32F4xx_HAL_Driver/Src/stm32f4xx_hal_i2c.c ****           hi2c->XferCount--;
 1494              		.loc 1 1352 15
 1495 0350 FB68     		ldr	r3, [r7, #12]
 1496 0352 5B8D     		ldrh	r3, [r3, #42]	@ movhi
 1497 0354 9BB2     		uxth	r3, r3
 1498              		.loc 1 1352 26
 1499 0356 013B     		subs	r3, r3, #1
 1500 0358 9AB2     		uxth	r2, r3
 1501 035a FB68     		ldr	r3, [r7, #12]
 1502 035c 5A85     		strh	r2, [r3, #42]	@ movhi
1353:Drivers/STM32F4xx_HAL_Driver/Src/stm32f4xx_hal_i2c.c **** 
1354:Drivers/STM32F4xx_HAL_Driver/Src/stm32f4xx_hal_i2c.c ****           /* Read data from DR */
1355:Drivers/STM32F4xx_HAL_Driver/Src/stm32f4xx_hal_i2c.c ****           *hi2c->pBuffPtr = (uint8_t)hi2c->Instance->DR;
 1503              		.loc 1 1355 42
 1504 035e FB68     		ldr	r3, [r7, #12]
 1505 0360 1B68     		ldr	r3, [r3]
 1506              		.loc 1 1355 52
ARM GAS  C:\Users\Halil\AppData\Local\Temp\ccvukMBT.s 			page 51


 1507 0362 1A69     		ldr	r2, [r3, #16]
 1508              		.loc 1 1355 16
 1509 0364 FB68     		ldr	r3, [r7, #12]
 1510 0366 5B6A     		ldr	r3, [r3, #36]
 1511              		.loc 1 1355 29
 1512 0368 D2B2     		uxtb	r2, r2
 1513              		.loc 1 1355 27
 1514 036a 1A70     		strb	r2, [r3]
1356:Drivers/STM32F4xx_HAL_Driver/Src/stm32f4xx_hal_i2c.c **** 
1357:Drivers/STM32F4xx_HAL_Driver/Src/stm32f4xx_hal_i2c.c ****           /* Increment Buffer pointer */
1358:Drivers/STM32F4xx_HAL_Driver/Src/stm32f4xx_hal_i2c.c ****           hi2c->pBuffPtr++;
 1515              		.loc 1 1358 15
 1516 036c FB68     		ldr	r3, [r7, #12]
 1517 036e 5B6A     		ldr	r3, [r3, #36]
 1518              		.loc 1 1358 25
 1519 0370 5A1C     		adds	r2, r3, #1
 1520 0372 FB68     		ldr	r3, [r7, #12]
 1521 0374 5A62     		str	r2, [r3, #36]
1359:Drivers/STM32F4xx_HAL_Driver/Src/stm32f4xx_hal_i2c.c **** 
1360:Drivers/STM32F4xx_HAL_Driver/Src/stm32f4xx_hal_i2c.c ****           /* Update counter */
1361:Drivers/STM32F4xx_HAL_Driver/Src/stm32f4xx_hal_i2c.c ****           hi2c->XferSize--;
 1522              		.loc 1 1361 15
 1523 0376 FB68     		ldr	r3, [r7, #12]
 1524 0378 1B8D     		ldrh	r3, [r3, #40]
 1525              		.loc 1 1361 25
 1526 037a 013B     		subs	r3, r3, #1
 1527 037c 9AB2     		uxth	r2, r3
 1528 037e FB68     		ldr	r3, [r7, #12]
 1529 0380 1A85     		strh	r2, [r3, #40]	@ movhi
1362:Drivers/STM32F4xx_HAL_Driver/Src/stm32f4xx_hal_i2c.c ****           hi2c->XferCount--;
 1530              		.loc 1 1362 15
 1531 0382 FB68     		ldr	r3, [r7, #12]
 1532 0384 5B8D     		ldrh	r3, [r3, #42]	@ movhi
 1533 0386 9BB2     		uxth	r3, r3
 1534              		.loc 1 1362 26
 1535 0388 013B     		subs	r3, r3, #1
 1536 038a 9AB2     		uxth	r2, r3
 1537 038c FB68     		ldr	r3, [r7, #12]
 1538 038e 5A85     		strh	r2, [r3, #42]	@ movhi
 1539 0390 4EE0     		b	.L56
 1540              	.L57:
1363:Drivers/STM32F4xx_HAL_Driver/Src/stm32f4xx_hal_i2c.c ****         }
1364:Drivers/STM32F4xx_HAL_Driver/Src/stm32f4xx_hal_i2c.c ****       }
1365:Drivers/STM32F4xx_HAL_Driver/Src/stm32f4xx_hal_i2c.c ****       else
1366:Drivers/STM32F4xx_HAL_Driver/Src/stm32f4xx_hal_i2c.c ****       {
1367:Drivers/STM32F4xx_HAL_Driver/Src/stm32f4xx_hal_i2c.c ****         /* Wait until RXNE flag is set */
1368:Drivers/STM32F4xx_HAL_Driver/Src/stm32f4xx_hal_i2c.c ****         if (I2C_WaitOnRXNEFlagUntilTimeout(hi2c, Timeout, tickstart) != HAL_OK)
 1541              		.loc 1 1368 13
 1542 0392 7A6A     		ldr	r2, [r7, #36]
 1543 0394 396B     		ldr	r1, [r7, #48]
 1544 0396 F868     		ldr	r0, [r7, #12]
 1545 0398 FFF7FEFF 		bl	I2C_WaitOnRXNEFlagUntilTimeout
 1546 039c 0346     		mov	r3, r0
 1547              		.loc 1 1368 12
 1548 039e 002B     		cmp	r3, #0
 1549 03a0 01D0     		beq	.L65
1369:Drivers/STM32F4xx_HAL_Driver/Src/stm32f4xx_hal_i2c.c ****         {
ARM GAS  C:\Users\Halil\AppData\Local\Temp\ccvukMBT.s 			page 52


1370:Drivers/STM32F4xx_HAL_Driver/Src/stm32f4xx_hal_i2c.c ****           return HAL_ERROR;
 1550              		.loc 1 1370 18
 1551 03a2 0123     		movs	r3, #1
 1552 03a4 58E0     		b	.L48
 1553              	.L65:
1371:Drivers/STM32F4xx_HAL_Driver/Src/stm32f4xx_hal_i2c.c ****         }
1372:Drivers/STM32F4xx_HAL_Driver/Src/stm32f4xx_hal_i2c.c **** 
1373:Drivers/STM32F4xx_HAL_Driver/Src/stm32f4xx_hal_i2c.c ****         /* Read data from DR */
1374:Drivers/STM32F4xx_HAL_Driver/Src/stm32f4xx_hal_i2c.c ****         *hi2c->pBuffPtr = (uint8_t)hi2c->Instance->DR;
 1554              		.loc 1 1374 40
 1555 03a6 FB68     		ldr	r3, [r7, #12]
 1556 03a8 1B68     		ldr	r3, [r3]
 1557              		.loc 1 1374 50
 1558 03aa 1A69     		ldr	r2, [r3, #16]
 1559              		.loc 1 1374 14
 1560 03ac FB68     		ldr	r3, [r7, #12]
 1561 03ae 5B6A     		ldr	r3, [r3, #36]
 1562              		.loc 1 1374 27
 1563 03b0 D2B2     		uxtb	r2, r2
 1564              		.loc 1 1374 25
 1565 03b2 1A70     		strb	r2, [r3]
1375:Drivers/STM32F4xx_HAL_Driver/Src/stm32f4xx_hal_i2c.c **** 
1376:Drivers/STM32F4xx_HAL_Driver/Src/stm32f4xx_hal_i2c.c ****         /* Increment Buffer pointer */
1377:Drivers/STM32F4xx_HAL_Driver/Src/stm32f4xx_hal_i2c.c ****         hi2c->pBuffPtr++;
 1566              		.loc 1 1377 13
 1567 03b4 FB68     		ldr	r3, [r7, #12]
 1568 03b6 5B6A     		ldr	r3, [r3, #36]
 1569              		.loc 1 1377 23
 1570 03b8 5A1C     		adds	r2, r3, #1
 1571 03ba FB68     		ldr	r3, [r7, #12]
 1572 03bc 5A62     		str	r2, [r3, #36]
1378:Drivers/STM32F4xx_HAL_Driver/Src/stm32f4xx_hal_i2c.c **** 
1379:Drivers/STM32F4xx_HAL_Driver/Src/stm32f4xx_hal_i2c.c ****         /* Update counter */
1380:Drivers/STM32F4xx_HAL_Driver/Src/stm32f4xx_hal_i2c.c ****         hi2c->XferSize--;
 1573              		.loc 1 1380 13
 1574 03be FB68     		ldr	r3, [r7, #12]
 1575 03c0 1B8D     		ldrh	r3, [r3, #40]
 1576              		.loc 1 1380 23
 1577 03c2 013B     		subs	r3, r3, #1
 1578 03c4 9AB2     		uxth	r2, r3
 1579 03c6 FB68     		ldr	r3, [r7, #12]
 1580 03c8 1A85     		strh	r2, [r3, #40]	@ movhi
1381:Drivers/STM32F4xx_HAL_Driver/Src/stm32f4xx_hal_i2c.c ****         hi2c->XferCount--;
 1581              		.loc 1 1381 13
 1582 03ca FB68     		ldr	r3, [r7, #12]
 1583 03cc 5B8D     		ldrh	r3, [r3, #42]	@ movhi
 1584 03ce 9BB2     		uxth	r3, r3
 1585              		.loc 1 1381 24
 1586 03d0 013B     		subs	r3, r3, #1
 1587 03d2 9AB2     		uxth	r2, r3
 1588 03d4 FB68     		ldr	r3, [r7, #12]
 1589 03d6 5A85     		strh	r2, [r3, #42]	@ movhi
1382:Drivers/STM32F4xx_HAL_Driver/Src/stm32f4xx_hal_i2c.c **** 
1383:Drivers/STM32F4xx_HAL_Driver/Src/stm32f4xx_hal_i2c.c ****         if (__HAL_I2C_GET_FLAG(hi2c, I2C_FLAG_BTF) == SET)
 1590              		.loc 1 1383 13
 1591 03d8 FB68     		ldr	r3, [r7, #12]
 1592 03da 1B68     		ldr	r3, [r3]
ARM GAS  C:\Users\Halil\AppData\Local\Temp\ccvukMBT.s 			page 53


 1593 03dc 5B69     		ldr	r3, [r3, #20]
 1594 03de 03F00403 		and	r3, r3, #4
 1595              		.loc 1 1383 12
 1596 03e2 042B     		cmp	r3, #4
 1597 03e4 24D1     		bne	.L56
1384:Drivers/STM32F4xx_HAL_Driver/Src/stm32f4xx_hal_i2c.c ****         {
1385:Drivers/STM32F4xx_HAL_Driver/Src/stm32f4xx_hal_i2c.c **** 
1386:Drivers/STM32F4xx_HAL_Driver/Src/stm32f4xx_hal_i2c.c ****           if (hi2c->XferSize == 3U)
 1598              		.loc 1 1386 19
 1599 03e6 FB68     		ldr	r3, [r7, #12]
 1600 03e8 1B8D     		ldrh	r3, [r3, #40]
 1601              		.loc 1 1386 14
 1602 03ea 032B     		cmp	r3, #3
 1603 03ec 07D1     		bne	.L66
1387:Drivers/STM32F4xx_HAL_Driver/Src/stm32f4xx_hal_i2c.c ****           {
1388:Drivers/STM32F4xx_HAL_Driver/Src/stm32f4xx_hal_i2c.c ****             /* Disable Acknowledge */
1389:Drivers/STM32F4xx_HAL_Driver/Src/stm32f4xx_hal_i2c.c ****             CLEAR_BIT(hi2c->Instance->CR1, I2C_CR1_ACK);
 1604              		.loc 1 1389 13
 1605 03ee FB68     		ldr	r3, [r7, #12]
 1606 03f0 1B68     		ldr	r3, [r3]
 1607 03f2 1A68     		ldr	r2, [r3]
 1608 03f4 FB68     		ldr	r3, [r7, #12]
 1609 03f6 1B68     		ldr	r3, [r3]
 1610 03f8 22F48062 		bic	r2, r2, #1024
 1611 03fc 1A60     		str	r2, [r3]
 1612              	.L66:
1390:Drivers/STM32F4xx_HAL_Driver/Src/stm32f4xx_hal_i2c.c ****           }
1391:Drivers/STM32F4xx_HAL_Driver/Src/stm32f4xx_hal_i2c.c **** 
1392:Drivers/STM32F4xx_HAL_Driver/Src/stm32f4xx_hal_i2c.c ****           /* Read data from DR */
1393:Drivers/STM32F4xx_HAL_Driver/Src/stm32f4xx_hal_i2c.c ****           *hi2c->pBuffPtr = (uint8_t)hi2c->Instance->DR;
 1613              		.loc 1 1393 42
 1614 03fe FB68     		ldr	r3, [r7, #12]
 1615 0400 1B68     		ldr	r3, [r3]
 1616              		.loc 1 1393 52
 1617 0402 1A69     		ldr	r2, [r3, #16]
 1618              		.loc 1 1393 16
 1619 0404 FB68     		ldr	r3, [r7, #12]
 1620 0406 5B6A     		ldr	r3, [r3, #36]
 1621              		.loc 1 1393 29
 1622 0408 D2B2     		uxtb	r2, r2
 1623              		.loc 1 1393 27
 1624 040a 1A70     		strb	r2, [r3]
1394:Drivers/STM32F4xx_HAL_Driver/Src/stm32f4xx_hal_i2c.c **** 
1395:Drivers/STM32F4xx_HAL_Driver/Src/stm32f4xx_hal_i2c.c ****           /* Increment Buffer pointer */
1396:Drivers/STM32F4xx_HAL_Driver/Src/stm32f4xx_hal_i2c.c ****           hi2c->pBuffPtr++;
 1625              		.loc 1 1396 15
 1626 040c FB68     		ldr	r3, [r7, #12]
 1627 040e 5B6A     		ldr	r3, [r3, #36]
 1628              		.loc 1 1396 25
 1629 0410 5A1C     		adds	r2, r3, #1
 1630 0412 FB68     		ldr	r3, [r7, #12]
 1631 0414 5A62     		str	r2, [r3, #36]
1397:Drivers/STM32F4xx_HAL_Driver/Src/stm32f4xx_hal_i2c.c **** 
1398:Drivers/STM32F4xx_HAL_Driver/Src/stm32f4xx_hal_i2c.c ****           /* Update counter */
1399:Drivers/STM32F4xx_HAL_Driver/Src/stm32f4xx_hal_i2c.c ****           hi2c->XferSize--;
 1632              		.loc 1 1399 15
 1633 0416 FB68     		ldr	r3, [r7, #12]
ARM GAS  C:\Users\Halil\AppData\Local\Temp\ccvukMBT.s 			page 54


 1634 0418 1B8D     		ldrh	r3, [r3, #40]
 1635              		.loc 1 1399 25
 1636 041a 013B     		subs	r3, r3, #1
 1637 041c 9AB2     		uxth	r2, r3
 1638 041e FB68     		ldr	r3, [r7, #12]
 1639 0420 1A85     		strh	r2, [r3, #40]	@ movhi
1400:Drivers/STM32F4xx_HAL_Driver/Src/stm32f4xx_hal_i2c.c ****           hi2c->XferCount--;
 1640              		.loc 1 1400 15
 1641 0422 FB68     		ldr	r3, [r7, #12]
 1642 0424 5B8D     		ldrh	r3, [r3, #42]	@ movhi
 1643 0426 9BB2     		uxth	r3, r3
 1644              		.loc 1 1400 26
 1645 0428 013B     		subs	r3, r3, #1
 1646 042a 9AB2     		uxth	r2, r3
 1647 042c FB68     		ldr	r3, [r7, #12]
 1648 042e 5A85     		strh	r2, [r3, #42]	@ movhi
 1649              	.L56:
1258:Drivers/STM32F4xx_HAL_Driver/Src/stm32f4xx_hal_i2c.c ****     {
 1650              		.loc 1 1258 16
 1651 0430 FB68     		ldr	r3, [r7, #12]
 1652 0432 1B8D     		ldrh	r3, [r3, #40]
1258:Drivers/STM32F4xx_HAL_Driver/Src/stm32f4xx_hal_i2c.c ****     {
 1653              		.loc 1 1258 27
 1654 0434 002B     		cmp	r3, #0
 1655 0436 7FF4B6AE 		bne	.L67
1401:Drivers/STM32F4xx_HAL_Driver/Src/stm32f4xx_hal_i2c.c ****         }
1402:Drivers/STM32F4xx_HAL_Driver/Src/stm32f4xx_hal_i2c.c ****       }
1403:Drivers/STM32F4xx_HAL_Driver/Src/stm32f4xx_hal_i2c.c ****     }
1404:Drivers/STM32F4xx_HAL_Driver/Src/stm32f4xx_hal_i2c.c **** 
1405:Drivers/STM32F4xx_HAL_Driver/Src/stm32f4xx_hal_i2c.c ****     hi2c->State = HAL_I2C_STATE_READY;
 1656              		.loc 1 1405 17
 1657 043a FB68     		ldr	r3, [r7, #12]
 1658 043c 2022     		movs	r2, #32
 1659 043e 83F83D20 		strb	r2, [r3, #61]
1406:Drivers/STM32F4xx_HAL_Driver/Src/stm32f4xx_hal_i2c.c ****     hi2c->Mode = HAL_I2C_MODE_NONE;
 1660              		.loc 1 1406 16
 1661 0442 FB68     		ldr	r3, [r7, #12]
 1662 0444 0022     		movs	r2, #0
 1663 0446 83F83E20 		strb	r2, [r3, #62]
1407:Drivers/STM32F4xx_HAL_Driver/Src/stm32f4xx_hal_i2c.c **** 
1408:Drivers/STM32F4xx_HAL_Driver/Src/stm32f4xx_hal_i2c.c ****     /* Process Unlocked */
1409:Drivers/STM32F4xx_HAL_Driver/Src/stm32f4xx_hal_i2c.c ****     __HAL_UNLOCK(hi2c);
 1664              		.loc 1 1409 5
 1665 044a FB68     		ldr	r3, [r7, #12]
 1666 044c 0022     		movs	r2, #0
 1667 044e 83F83C20 		strb	r2, [r3, #60]
1410:Drivers/STM32F4xx_HAL_Driver/Src/stm32f4xx_hal_i2c.c **** 
1411:Drivers/STM32F4xx_HAL_Driver/Src/stm32f4xx_hal_i2c.c ****     return HAL_OK;
 1668              		.loc 1 1411 12
 1669 0452 0023     		movs	r3, #0
 1670 0454 00E0     		b	.L48
 1671              	.L46:
1412:Drivers/STM32F4xx_HAL_Driver/Src/stm32f4xx_hal_i2c.c ****   }
1413:Drivers/STM32F4xx_HAL_Driver/Src/stm32f4xx_hal_i2c.c ****   else
1414:Drivers/STM32F4xx_HAL_Driver/Src/stm32f4xx_hal_i2c.c ****   {
1415:Drivers/STM32F4xx_HAL_Driver/Src/stm32f4xx_hal_i2c.c ****     return HAL_BUSY;
 1672              		.loc 1 1415 12
ARM GAS  C:\Users\Halil\AppData\Local\Temp\ccvukMBT.s 			page 55


 1673 0456 0223     		movs	r3, #2
 1674              	.L48:
1416:Drivers/STM32F4xx_HAL_Driver/Src/stm32f4xx_hal_i2c.c ****   }
1417:Drivers/STM32F4xx_HAL_Driver/Src/stm32f4xx_hal_i2c.c **** }
 1675              		.loc 1 1417 1
 1676 0458 1846     		mov	r0, r3
 1677 045a 2837     		adds	r7, r7, #40
 1678              		.cfi_def_cfa_offset 8
 1679 045c BD46     		mov	sp, r7
 1680              		.cfi_def_cfa_register 13
 1681              		@ sp needed
 1682 045e 80BD     		pop	{r7, pc}
 1683              	.L71:
 1684              		.align	2
 1685              	.L70:
 1686 0460 04000100 		.word	65540
 1687              		.cfi_endproc
 1688              	.LFE245:
 1690              		.section	.text.HAL_I2C_Slave_Transmit,"ax",%progbits
 1691              		.align	1
 1692              		.global	HAL_I2C_Slave_Transmit
 1693              		.syntax unified
 1694              		.thumb
 1695              		.thumb_func
 1697              	HAL_I2C_Slave_Transmit:
 1698              	.LFB246:
1418:Drivers/STM32F4xx_HAL_Driver/Src/stm32f4xx_hal_i2c.c **** 
1419:Drivers/STM32F4xx_HAL_Driver/Src/stm32f4xx_hal_i2c.c **** /**
1420:Drivers/STM32F4xx_HAL_Driver/Src/stm32f4xx_hal_i2c.c ****   * @brief  Transmits in slave mode an amount of data in blocking mode.
1421:Drivers/STM32F4xx_HAL_Driver/Src/stm32f4xx_hal_i2c.c ****   * @param  hi2c Pointer to a I2C_HandleTypeDef structure that contains
1422:Drivers/STM32F4xx_HAL_Driver/Src/stm32f4xx_hal_i2c.c ****   *                the configuration information for the specified I2C.
1423:Drivers/STM32F4xx_HAL_Driver/Src/stm32f4xx_hal_i2c.c ****   * @param  pData Pointer to data buffer
1424:Drivers/STM32F4xx_HAL_Driver/Src/stm32f4xx_hal_i2c.c ****   * @param  Size Amount of data to be sent
1425:Drivers/STM32F4xx_HAL_Driver/Src/stm32f4xx_hal_i2c.c ****   * @param  Timeout Timeout duration
1426:Drivers/STM32F4xx_HAL_Driver/Src/stm32f4xx_hal_i2c.c ****   * @retval HAL status
1427:Drivers/STM32F4xx_HAL_Driver/Src/stm32f4xx_hal_i2c.c ****   */
1428:Drivers/STM32F4xx_HAL_Driver/Src/stm32f4xx_hal_i2c.c **** HAL_StatusTypeDef HAL_I2C_Slave_Transmit(I2C_HandleTypeDef *hi2c, uint8_t *pData, uint16_t Size, ui
1429:Drivers/STM32F4xx_HAL_Driver/Src/stm32f4xx_hal_i2c.c **** {
 1699              		.loc 1 1429 1
 1700              		.cfi_startproc
 1701              		@ args = 0, pretend = 0, frame = 32
 1702              		@ frame_needed = 1, uses_anonymous_args = 0
 1703 0000 80B5     		push	{r7, lr}
 1704              		.cfi_def_cfa_offset 8
 1705              		.cfi_offset 7, -8
 1706              		.cfi_offset 14, -4
 1707 0002 8AB0     		sub	sp, sp, #40
 1708              		.cfi_def_cfa_offset 48
 1709 0004 02AF     		add	r7, sp, #8
 1710              		.cfi_def_cfa 7, 40
 1711 0006 F860     		str	r0, [r7, #12]
 1712 0008 B960     		str	r1, [r7, #8]
 1713 000a 3B60     		str	r3, [r7]
 1714 000c 1346     		mov	r3, r2	@ movhi
 1715 000e FB80     		strh	r3, [r7, #6]	@ movhi
1430:Drivers/STM32F4xx_HAL_Driver/Src/stm32f4xx_hal_i2c.c ****   /* Init tickstart for timeout management*/
1431:Drivers/STM32F4xx_HAL_Driver/Src/stm32f4xx_hal_i2c.c ****   uint32_t tickstart = HAL_GetTick();
ARM GAS  C:\Users\Halil\AppData\Local\Temp\ccvukMBT.s 			page 56


 1716              		.loc 1 1431 24
 1717 0010 FFF7FEFF 		bl	HAL_GetTick
 1718 0014 F861     		str	r0, [r7, #28]
1432:Drivers/STM32F4xx_HAL_Driver/Src/stm32f4xx_hal_i2c.c **** 
1433:Drivers/STM32F4xx_HAL_Driver/Src/stm32f4xx_hal_i2c.c ****   if (hi2c->State == HAL_I2C_STATE_READY)
 1719              		.loc 1 1433 11
 1720 0016 FB68     		ldr	r3, [r7, #12]
 1721 0018 93F83D30 		ldrb	r3, [r3, #61]
 1722 001c DBB2     		uxtb	r3, r3
 1723              		.loc 1 1433 6
 1724 001e 202B     		cmp	r3, #32
 1725 0020 40F0FB80 		bne	.L73
1434:Drivers/STM32F4xx_HAL_Driver/Src/stm32f4xx_hal_i2c.c ****   {
1435:Drivers/STM32F4xx_HAL_Driver/Src/stm32f4xx_hal_i2c.c ****     if ((pData == NULL) || (Size == 0U))
 1726              		.loc 1 1435 8
 1727 0024 BB68     		ldr	r3, [r7, #8]
 1728 0026 002B     		cmp	r3, #0
 1729 0028 02D0     		beq	.L74
 1730              		.loc 1 1435 25 discriminator 1
 1731 002a FB88     		ldrh	r3, [r7, #6]
 1732 002c 002B     		cmp	r3, #0
 1733 002e 01D1     		bne	.L75
 1734              	.L74:
1436:Drivers/STM32F4xx_HAL_Driver/Src/stm32f4xx_hal_i2c.c ****     {
1437:Drivers/STM32F4xx_HAL_Driver/Src/stm32f4xx_hal_i2c.c ****       return  HAL_ERROR;
 1735              		.loc 1 1437 15
 1736 0030 0123     		movs	r3, #1
 1737 0032 F3E0     		b	.L76
 1738              	.L75:
1438:Drivers/STM32F4xx_HAL_Driver/Src/stm32f4xx_hal_i2c.c ****     }
1439:Drivers/STM32F4xx_HAL_Driver/Src/stm32f4xx_hal_i2c.c **** 
1440:Drivers/STM32F4xx_HAL_Driver/Src/stm32f4xx_hal_i2c.c ****     /* Process Locked */
1441:Drivers/STM32F4xx_HAL_Driver/Src/stm32f4xx_hal_i2c.c ****     __HAL_LOCK(hi2c);
 1739              		.loc 1 1441 5
 1740 0034 FB68     		ldr	r3, [r7, #12]
 1741 0036 93F83C30 		ldrb	r3, [r3, #60]	@ zero_extendqisi2
 1742 003a 012B     		cmp	r3, #1
 1743 003c 01D1     		bne	.L77
 1744              		.loc 1 1441 5 is_stmt 0 discriminator 1
 1745 003e 0223     		movs	r3, #2
 1746 0040 ECE0     		b	.L76
 1747              	.L77:
 1748              		.loc 1 1441 5 discriminator 2
 1749 0042 FB68     		ldr	r3, [r7, #12]
 1750 0044 0122     		movs	r2, #1
 1751 0046 83F83C20 		strb	r2, [r3, #60]
1442:Drivers/STM32F4xx_HAL_Driver/Src/stm32f4xx_hal_i2c.c **** 
1443:Drivers/STM32F4xx_HAL_Driver/Src/stm32f4xx_hal_i2c.c ****     /* Check if the I2C is already enabled */
1444:Drivers/STM32F4xx_HAL_Driver/Src/stm32f4xx_hal_i2c.c ****     if ((hi2c->Instance->CR1 & I2C_CR1_PE) != I2C_CR1_PE)
 1752              		.loc 1 1444 14 is_stmt 1 discriminator 2
 1753 004a FB68     		ldr	r3, [r7, #12]
 1754 004c 1B68     		ldr	r3, [r3]
 1755              		.loc 1 1444 24 discriminator 2
 1756 004e 1B68     		ldr	r3, [r3]
 1757              		.loc 1 1444 30 discriminator 2
 1758 0050 03F00103 		and	r3, r3, #1
 1759              		.loc 1 1444 8 discriminator 2
ARM GAS  C:\Users\Halil\AppData\Local\Temp\ccvukMBT.s 			page 57


 1760 0054 012B     		cmp	r3, #1
 1761 0056 07D0     		beq	.L78
1445:Drivers/STM32F4xx_HAL_Driver/Src/stm32f4xx_hal_i2c.c ****     {
1446:Drivers/STM32F4xx_HAL_Driver/Src/stm32f4xx_hal_i2c.c ****       /* Enable I2C peripheral */
1447:Drivers/STM32F4xx_HAL_Driver/Src/stm32f4xx_hal_i2c.c ****       __HAL_I2C_ENABLE(hi2c);
 1762              		.loc 1 1447 7
 1763 0058 FB68     		ldr	r3, [r7, #12]
 1764 005a 1B68     		ldr	r3, [r3]
 1765 005c 1A68     		ldr	r2, [r3]
 1766 005e FB68     		ldr	r3, [r7, #12]
 1767 0060 1B68     		ldr	r3, [r3]
 1768 0062 42F00102 		orr	r2, r2, #1
 1769 0066 1A60     		str	r2, [r3]
 1770              	.L78:
1448:Drivers/STM32F4xx_HAL_Driver/Src/stm32f4xx_hal_i2c.c ****     }
1449:Drivers/STM32F4xx_HAL_Driver/Src/stm32f4xx_hal_i2c.c **** 
1450:Drivers/STM32F4xx_HAL_Driver/Src/stm32f4xx_hal_i2c.c ****     /* Disable Pos */
1451:Drivers/STM32F4xx_HAL_Driver/Src/stm32f4xx_hal_i2c.c ****     CLEAR_BIT(hi2c->Instance->CR1, I2C_CR1_POS);
 1771              		.loc 1 1451 5
 1772 0068 FB68     		ldr	r3, [r7, #12]
 1773 006a 1B68     		ldr	r3, [r3]
 1774 006c 1A68     		ldr	r2, [r3]
 1775 006e FB68     		ldr	r3, [r7, #12]
 1776 0070 1B68     		ldr	r3, [r3]
 1777 0072 22F40062 		bic	r2, r2, #2048
 1778 0076 1A60     		str	r2, [r3]
1452:Drivers/STM32F4xx_HAL_Driver/Src/stm32f4xx_hal_i2c.c **** 
1453:Drivers/STM32F4xx_HAL_Driver/Src/stm32f4xx_hal_i2c.c ****     hi2c->State       = HAL_I2C_STATE_BUSY_TX;
 1779              		.loc 1 1453 23
 1780 0078 FB68     		ldr	r3, [r7, #12]
 1781 007a 2122     		movs	r2, #33
 1782 007c 83F83D20 		strb	r2, [r3, #61]
1454:Drivers/STM32F4xx_HAL_Driver/Src/stm32f4xx_hal_i2c.c ****     hi2c->Mode        = HAL_I2C_MODE_SLAVE;
 1783              		.loc 1 1454 23
 1784 0080 FB68     		ldr	r3, [r7, #12]
 1785 0082 2022     		movs	r2, #32
 1786 0084 83F83E20 		strb	r2, [r3, #62]
1455:Drivers/STM32F4xx_HAL_Driver/Src/stm32f4xx_hal_i2c.c ****     hi2c->ErrorCode   = HAL_I2C_ERROR_NONE;
 1787              		.loc 1 1455 23
 1788 0088 FB68     		ldr	r3, [r7, #12]
 1789 008a 0022     		movs	r2, #0
 1790 008c 1A64     		str	r2, [r3, #64]
1456:Drivers/STM32F4xx_HAL_Driver/Src/stm32f4xx_hal_i2c.c **** 
1457:Drivers/STM32F4xx_HAL_Driver/Src/stm32f4xx_hal_i2c.c ****     /* Prepare transfer parameters */
1458:Drivers/STM32F4xx_HAL_Driver/Src/stm32f4xx_hal_i2c.c ****     hi2c->pBuffPtr    = pData;
 1791              		.loc 1 1458 23
 1792 008e FB68     		ldr	r3, [r7, #12]
 1793 0090 BA68     		ldr	r2, [r7, #8]
 1794 0092 5A62     		str	r2, [r3, #36]
1459:Drivers/STM32F4xx_HAL_Driver/Src/stm32f4xx_hal_i2c.c ****     hi2c->XferCount   = Size;
 1795              		.loc 1 1459 23
 1796 0094 FB68     		ldr	r3, [r7, #12]
 1797 0096 FA88     		ldrh	r2, [r7, #6]	@ movhi
 1798 0098 5A85     		strh	r2, [r3, #42]	@ movhi
1460:Drivers/STM32F4xx_HAL_Driver/Src/stm32f4xx_hal_i2c.c ****     hi2c->XferSize    = hi2c->XferCount;
 1799              		.loc 1 1460 29
 1800 009a FB68     		ldr	r3, [r7, #12]
ARM GAS  C:\Users\Halil\AppData\Local\Temp\ccvukMBT.s 			page 58


 1801 009c 5B8D     		ldrh	r3, [r3, #42]	@ movhi
 1802 009e 9AB2     		uxth	r2, r3
 1803              		.loc 1 1460 23
 1804 00a0 FB68     		ldr	r3, [r7, #12]
 1805 00a2 1A85     		strh	r2, [r3, #40]	@ movhi
1461:Drivers/STM32F4xx_HAL_Driver/Src/stm32f4xx_hal_i2c.c ****     hi2c->XferOptions = I2C_NO_OPTION_FRAME;
 1806              		.loc 1 1461 23
 1807 00a4 FB68     		ldr	r3, [r7, #12]
 1808 00a6 5F4A     		ldr	r2, .L87
 1809 00a8 DA62     		str	r2, [r3, #44]
1462:Drivers/STM32F4xx_HAL_Driver/Src/stm32f4xx_hal_i2c.c **** 
1463:Drivers/STM32F4xx_HAL_Driver/Src/stm32f4xx_hal_i2c.c ****     /* Enable Address Acknowledge */
1464:Drivers/STM32F4xx_HAL_Driver/Src/stm32f4xx_hal_i2c.c ****     SET_BIT(hi2c->Instance->CR1, I2C_CR1_ACK);
 1810              		.loc 1 1464 5
 1811 00aa FB68     		ldr	r3, [r7, #12]
 1812 00ac 1B68     		ldr	r3, [r3]
 1813 00ae 1A68     		ldr	r2, [r3]
 1814 00b0 FB68     		ldr	r3, [r7, #12]
 1815 00b2 1B68     		ldr	r3, [r3]
 1816 00b4 42F48062 		orr	r2, r2, #1024
 1817 00b8 1A60     		str	r2, [r3]
1465:Drivers/STM32F4xx_HAL_Driver/Src/stm32f4xx_hal_i2c.c **** 
1466:Drivers/STM32F4xx_HAL_Driver/Src/stm32f4xx_hal_i2c.c ****     /* Wait until ADDR flag is set */
1467:Drivers/STM32F4xx_HAL_Driver/Src/stm32f4xx_hal_i2c.c ****     if (I2C_WaitOnFlagUntilTimeout(hi2c, I2C_FLAG_ADDR, RESET, Timeout, tickstart) != HAL_OK)
 1818              		.loc 1 1467 9
 1819 00ba FB69     		ldr	r3, [r7, #28]
 1820 00bc 0093     		str	r3, [sp]
 1821 00be 3B68     		ldr	r3, [r7]
 1822 00c0 0022     		movs	r2, #0
 1823 00c2 5949     		ldr	r1, .L87+4
 1824 00c4 F868     		ldr	r0, [r7, #12]
 1825 00c6 FFF7FEFF 		bl	I2C_WaitOnFlagUntilTimeout
 1826 00ca 0346     		mov	r3, r0
 1827              		.loc 1 1467 8
 1828 00cc 002B     		cmp	r3, #0
 1829 00ce 01D0     		beq	.L79
1468:Drivers/STM32F4xx_HAL_Driver/Src/stm32f4xx_hal_i2c.c ****     {
1469:Drivers/STM32F4xx_HAL_Driver/Src/stm32f4xx_hal_i2c.c ****       return HAL_ERROR;
 1830              		.loc 1 1469 14
 1831 00d0 0123     		movs	r3, #1
 1832 00d2 A3E0     		b	.L76
 1833              	.L79:
 1834              	.LBB7:
1470:Drivers/STM32F4xx_HAL_Driver/Src/stm32f4xx_hal_i2c.c ****     }
1471:Drivers/STM32F4xx_HAL_Driver/Src/stm32f4xx_hal_i2c.c **** 
1472:Drivers/STM32F4xx_HAL_Driver/Src/stm32f4xx_hal_i2c.c ****     /* Clear ADDR flag */
1473:Drivers/STM32F4xx_HAL_Driver/Src/stm32f4xx_hal_i2c.c ****     __HAL_I2C_CLEAR_ADDRFLAG(hi2c);
 1835              		.loc 1 1473 5
 1836 00d4 0023     		movs	r3, #0
 1837 00d6 BB61     		str	r3, [r7, #24]
 1838 00d8 FB68     		ldr	r3, [r7, #12]
 1839 00da 1B68     		ldr	r3, [r3]
 1840 00dc 5B69     		ldr	r3, [r3, #20]
 1841 00de BB61     		str	r3, [r7, #24]
 1842 00e0 FB68     		ldr	r3, [r7, #12]
 1843 00e2 1B68     		ldr	r3, [r3]
 1844 00e4 9B69     		ldr	r3, [r3, #24]
ARM GAS  C:\Users\Halil\AppData\Local\Temp\ccvukMBT.s 			page 59


 1845 00e6 BB61     		str	r3, [r7, #24]
 1846 00e8 BB69     		ldr	r3, [r7, #24]
 1847              	.LBE7:
1474:Drivers/STM32F4xx_HAL_Driver/Src/stm32f4xx_hal_i2c.c **** 
1475:Drivers/STM32F4xx_HAL_Driver/Src/stm32f4xx_hal_i2c.c ****     /* If 10bit addressing mode is selected */
1476:Drivers/STM32F4xx_HAL_Driver/Src/stm32f4xx_hal_i2c.c ****     if (hi2c->Init.AddressingMode == I2C_ADDRESSINGMODE_10BIT)
 1848              		.loc 1 1476 19
 1849 00ea FB68     		ldr	r3, [r7, #12]
 1850 00ec 1B69     		ldr	r3, [r3, #16]
 1851              		.loc 1 1476 8
 1852 00ee B3F5404F 		cmp	r3, #49152
 1853 00f2 65D1     		bne	.L82
1477:Drivers/STM32F4xx_HAL_Driver/Src/stm32f4xx_hal_i2c.c ****     {
1478:Drivers/STM32F4xx_HAL_Driver/Src/stm32f4xx_hal_i2c.c ****       /* Wait until ADDR flag is set */
1479:Drivers/STM32F4xx_HAL_Driver/Src/stm32f4xx_hal_i2c.c ****       if (I2C_WaitOnFlagUntilTimeout(hi2c, I2C_FLAG_ADDR, RESET, Timeout, tickstart) != HAL_OK)
 1854              		.loc 1 1479 11
 1855 00f4 FB69     		ldr	r3, [r7, #28]
 1856 00f6 0093     		str	r3, [sp]
 1857 00f8 3B68     		ldr	r3, [r7]
 1858 00fa 0022     		movs	r2, #0
 1859 00fc 4A49     		ldr	r1, .L87+4
 1860 00fe F868     		ldr	r0, [r7, #12]
 1861 0100 FFF7FEFF 		bl	I2C_WaitOnFlagUntilTimeout
 1862 0104 0346     		mov	r3, r0
 1863              		.loc 1 1479 10
 1864 0106 002B     		cmp	r3, #0
 1865 0108 01D0     		beq	.L81
1480:Drivers/STM32F4xx_HAL_Driver/Src/stm32f4xx_hal_i2c.c ****       {
1481:Drivers/STM32F4xx_HAL_Driver/Src/stm32f4xx_hal_i2c.c ****         return HAL_ERROR;
 1866              		.loc 1 1481 16
 1867 010a 0123     		movs	r3, #1
 1868 010c 86E0     		b	.L76
 1869              	.L81:
 1870              	.LBB8:
1482:Drivers/STM32F4xx_HAL_Driver/Src/stm32f4xx_hal_i2c.c ****       }
1483:Drivers/STM32F4xx_HAL_Driver/Src/stm32f4xx_hal_i2c.c **** 
1484:Drivers/STM32F4xx_HAL_Driver/Src/stm32f4xx_hal_i2c.c ****       /* Clear ADDR flag */
1485:Drivers/STM32F4xx_HAL_Driver/Src/stm32f4xx_hal_i2c.c ****       __HAL_I2C_CLEAR_ADDRFLAG(hi2c);
 1871              		.loc 1 1485 7
 1872 010e 0023     		movs	r3, #0
 1873 0110 7B61     		str	r3, [r7, #20]
 1874 0112 FB68     		ldr	r3, [r7, #12]
 1875 0114 1B68     		ldr	r3, [r3]
 1876 0116 5B69     		ldr	r3, [r3, #20]
 1877 0118 7B61     		str	r3, [r7, #20]
 1878 011a FB68     		ldr	r3, [r7, #12]
 1879 011c 1B68     		ldr	r3, [r3]
 1880 011e 9B69     		ldr	r3, [r3, #24]
 1881 0120 7B61     		str	r3, [r7, #20]
 1882 0122 7B69     		ldr	r3, [r7, #20]
 1883              	.LBE8:
1486:Drivers/STM32F4xx_HAL_Driver/Src/stm32f4xx_hal_i2c.c ****     }
1487:Drivers/STM32F4xx_HAL_Driver/Src/stm32f4xx_hal_i2c.c **** 
1488:Drivers/STM32F4xx_HAL_Driver/Src/stm32f4xx_hal_i2c.c ****     while (hi2c->XferSize > 0U)
 1884              		.loc 1 1488 11
 1885 0124 4CE0     		b	.L82
 1886              	.L85:
ARM GAS  C:\Users\Halil\AppData\Local\Temp\ccvukMBT.s 			page 60


1489:Drivers/STM32F4xx_HAL_Driver/Src/stm32f4xx_hal_i2c.c ****     {
1490:Drivers/STM32F4xx_HAL_Driver/Src/stm32f4xx_hal_i2c.c ****       /* Wait until TXE flag is set */
1491:Drivers/STM32F4xx_HAL_Driver/Src/stm32f4xx_hal_i2c.c ****       if (I2C_WaitOnTXEFlagUntilTimeout(hi2c, Timeout, tickstart) != HAL_OK)
 1887              		.loc 1 1491 11
 1888 0126 FA69     		ldr	r2, [r7, #28]
 1889 0128 3968     		ldr	r1, [r7]
 1890 012a F868     		ldr	r0, [r7, #12]
 1891 012c FFF7FEFF 		bl	I2C_WaitOnTXEFlagUntilTimeout
 1892 0130 0346     		mov	r3, r0
 1893              		.loc 1 1491 10
 1894 0132 002B     		cmp	r3, #0
 1895 0134 09D0     		beq	.L83
1492:Drivers/STM32F4xx_HAL_Driver/Src/stm32f4xx_hal_i2c.c ****       {
1493:Drivers/STM32F4xx_HAL_Driver/Src/stm32f4xx_hal_i2c.c ****         /* Disable Address Acknowledge */
1494:Drivers/STM32F4xx_HAL_Driver/Src/stm32f4xx_hal_i2c.c ****         CLEAR_BIT(hi2c->Instance->CR1, I2C_CR1_ACK);
 1896              		.loc 1 1494 9
 1897 0136 FB68     		ldr	r3, [r7, #12]
 1898 0138 1B68     		ldr	r3, [r3]
 1899 013a 1A68     		ldr	r2, [r3]
 1900 013c FB68     		ldr	r3, [r7, #12]
 1901 013e 1B68     		ldr	r3, [r3]
 1902 0140 22F48062 		bic	r2, r2, #1024
 1903 0144 1A60     		str	r2, [r3]
1495:Drivers/STM32F4xx_HAL_Driver/Src/stm32f4xx_hal_i2c.c **** 
1496:Drivers/STM32F4xx_HAL_Driver/Src/stm32f4xx_hal_i2c.c ****         return HAL_ERROR;
 1904              		.loc 1 1496 16
 1905 0146 0123     		movs	r3, #1
 1906 0148 68E0     		b	.L76
 1907              	.L83:
1497:Drivers/STM32F4xx_HAL_Driver/Src/stm32f4xx_hal_i2c.c ****       }
1498:Drivers/STM32F4xx_HAL_Driver/Src/stm32f4xx_hal_i2c.c **** 
1499:Drivers/STM32F4xx_HAL_Driver/Src/stm32f4xx_hal_i2c.c ****       /* Write data to DR */
1500:Drivers/STM32F4xx_HAL_Driver/Src/stm32f4xx_hal_i2c.c ****       hi2c->Instance->DR = *hi2c->pBuffPtr;
 1908              		.loc 1 1500 33
 1909 014a FB68     		ldr	r3, [r7, #12]
 1910 014c 5B6A     		ldr	r3, [r3, #36]
 1911              		.loc 1 1500 28
 1912 014e 1A78     		ldrb	r2, [r3]	@ zero_extendqisi2
 1913              		.loc 1 1500 11
 1914 0150 FB68     		ldr	r3, [r7, #12]
 1915 0152 1B68     		ldr	r3, [r3]
 1916              		.loc 1 1500 26
 1917 0154 1A61     		str	r2, [r3, #16]
1501:Drivers/STM32F4xx_HAL_Driver/Src/stm32f4xx_hal_i2c.c **** 
1502:Drivers/STM32F4xx_HAL_Driver/Src/stm32f4xx_hal_i2c.c ****       /* Increment Buffer pointer */
1503:Drivers/STM32F4xx_HAL_Driver/Src/stm32f4xx_hal_i2c.c ****       hi2c->pBuffPtr++;
 1918              		.loc 1 1503 11
 1919 0156 FB68     		ldr	r3, [r7, #12]
 1920 0158 5B6A     		ldr	r3, [r3, #36]
 1921              		.loc 1 1503 21
 1922 015a 5A1C     		adds	r2, r3, #1
 1923 015c FB68     		ldr	r3, [r7, #12]
 1924 015e 5A62     		str	r2, [r3, #36]
1504:Drivers/STM32F4xx_HAL_Driver/Src/stm32f4xx_hal_i2c.c **** 
1505:Drivers/STM32F4xx_HAL_Driver/Src/stm32f4xx_hal_i2c.c ****       /* Update counter */
1506:Drivers/STM32F4xx_HAL_Driver/Src/stm32f4xx_hal_i2c.c ****       hi2c->XferCount--;
 1925              		.loc 1 1506 11
ARM GAS  C:\Users\Halil\AppData\Local\Temp\ccvukMBT.s 			page 61


 1926 0160 FB68     		ldr	r3, [r7, #12]
 1927 0162 5B8D     		ldrh	r3, [r3, #42]	@ movhi
 1928 0164 9BB2     		uxth	r3, r3
 1929              		.loc 1 1506 22
 1930 0166 013B     		subs	r3, r3, #1
 1931 0168 9AB2     		uxth	r2, r3
 1932 016a FB68     		ldr	r3, [r7, #12]
 1933 016c 5A85     		strh	r2, [r3, #42]	@ movhi
1507:Drivers/STM32F4xx_HAL_Driver/Src/stm32f4xx_hal_i2c.c ****       hi2c->XferSize--;
 1934              		.loc 1 1507 11
 1935 016e FB68     		ldr	r3, [r7, #12]
 1936 0170 1B8D     		ldrh	r3, [r3, #40]
 1937              		.loc 1 1507 21
 1938 0172 013B     		subs	r3, r3, #1
 1939 0174 9AB2     		uxth	r2, r3
 1940 0176 FB68     		ldr	r3, [r7, #12]
 1941 0178 1A85     		strh	r2, [r3, #40]	@ movhi
1508:Drivers/STM32F4xx_HAL_Driver/Src/stm32f4xx_hal_i2c.c **** 
1509:Drivers/STM32F4xx_HAL_Driver/Src/stm32f4xx_hal_i2c.c ****       if ((__HAL_I2C_GET_FLAG(hi2c, I2C_FLAG_BTF) == SET) && (hi2c->XferSize != 0U))
 1942              		.loc 1 1509 12
 1943 017a FB68     		ldr	r3, [r7, #12]
 1944 017c 1B68     		ldr	r3, [r3]
 1945 017e 5B69     		ldr	r3, [r3, #20]
 1946 0180 03F00403 		and	r3, r3, #4
 1947              		.loc 1 1509 10
 1948 0184 042B     		cmp	r3, #4
 1949 0186 1BD1     		bne	.L82
 1950              		.loc 1 1509 67 discriminator 1
 1951 0188 FB68     		ldr	r3, [r7, #12]
 1952 018a 1B8D     		ldrh	r3, [r3, #40]
 1953              		.loc 1 1509 59 discriminator 1
 1954 018c 002B     		cmp	r3, #0
 1955 018e 17D0     		beq	.L82
1510:Drivers/STM32F4xx_HAL_Driver/Src/stm32f4xx_hal_i2c.c ****       {
1511:Drivers/STM32F4xx_HAL_Driver/Src/stm32f4xx_hal_i2c.c ****         /* Write data to DR */
1512:Drivers/STM32F4xx_HAL_Driver/Src/stm32f4xx_hal_i2c.c ****         hi2c->Instance->DR = *hi2c->pBuffPtr;
 1956              		.loc 1 1512 35
 1957 0190 FB68     		ldr	r3, [r7, #12]
 1958 0192 5B6A     		ldr	r3, [r3, #36]
 1959              		.loc 1 1512 30
 1960 0194 1A78     		ldrb	r2, [r3]	@ zero_extendqisi2
 1961              		.loc 1 1512 13
 1962 0196 FB68     		ldr	r3, [r7, #12]
 1963 0198 1B68     		ldr	r3, [r3]
 1964              		.loc 1 1512 28
 1965 019a 1A61     		str	r2, [r3, #16]
1513:Drivers/STM32F4xx_HAL_Driver/Src/stm32f4xx_hal_i2c.c **** 
1514:Drivers/STM32F4xx_HAL_Driver/Src/stm32f4xx_hal_i2c.c ****         /* Increment Buffer pointer */
1515:Drivers/STM32F4xx_HAL_Driver/Src/stm32f4xx_hal_i2c.c ****         hi2c->pBuffPtr++;
 1966              		.loc 1 1515 13
 1967 019c FB68     		ldr	r3, [r7, #12]
 1968 019e 5B6A     		ldr	r3, [r3, #36]
 1969              		.loc 1 1515 23
 1970 01a0 5A1C     		adds	r2, r3, #1
 1971 01a2 FB68     		ldr	r3, [r7, #12]
 1972 01a4 5A62     		str	r2, [r3, #36]
1516:Drivers/STM32F4xx_HAL_Driver/Src/stm32f4xx_hal_i2c.c **** 
ARM GAS  C:\Users\Halil\AppData\Local\Temp\ccvukMBT.s 			page 62


1517:Drivers/STM32F4xx_HAL_Driver/Src/stm32f4xx_hal_i2c.c ****         /* Update counter */
1518:Drivers/STM32F4xx_HAL_Driver/Src/stm32f4xx_hal_i2c.c ****         hi2c->XferCount--;
 1973              		.loc 1 1518 13
 1974 01a6 FB68     		ldr	r3, [r7, #12]
 1975 01a8 5B8D     		ldrh	r3, [r3, #42]	@ movhi
 1976 01aa 9BB2     		uxth	r3, r3
 1977              		.loc 1 1518 24
 1978 01ac 013B     		subs	r3, r3, #1
 1979 01ae 9AB2     		uxth	r2, r3
 1980 01b0 FB68     		ldr	r3, [r7, #12]
 1981 01b2 5A85     		strh	r2, [r3, #42]	@ movhi
1519:Drivers/STM32F4xx_HAL_Driver/Src/stm32f4xx_hal_i2c.c ****         hi2c->XferSize--;
 1982              		.loc 1 1519 13
 1983 01b4 FB68     		ldr	r3, [r7, #12]
 1984 01b6 1B8D     		ldrh	r3, [r3, #40]
 1985              		.loc 1 1519 23
 1986 01b8 013B     		subs	r3, r3, #1
 1987 01ba 9AB2     		uxth	r2, r3
 1988 01bc FB68     		ldr	r3, [r7, #12]
 1989 01be 1A85     		strh	r2, [r3, #40]	@ movhi
 1990              	.L82:
1488:Drivers/STM32F4xx_HAL_Driver/Src/stm32f4xx_hal_i2c.c ****     {
 1991              		.loc 1 1488 16
 1992 01c0 FB68     		ldr	r3, [r7, #12]
 1993 01c2 1B8D     		ldrh	r3, [r3, #40]
1488:Drivers/STM32F4xx_HAL_Driver/Src/stm32f4xx_hal_i2c.c ****     {
 1994              		.loc 1 1488 27
 1995 01c4 002B     		cmp	r3, #0
 1996 01c6 AED1     		bne	.L85
1520:Drivers/STM32F4xx_HAL_Driver/Src/stm32f4xx_hal_i2c.c ****       }
1521:Drivers/STM32F4xx_HAL_Driver/Src/stm32f4xx_hal_i2c.c ****     }
1522:Drivers/STM32F4xx_HAL_Driver/Src/stm32f4xx_hal_i2c.c **** 
1523:Drivers/STM32F4xx_HAL_Driver/Src/stm32f4xx_hal_i2c.c ****     /* Wait until AF flag is set */
1524:Drivers/STM32F4xx_HAL_Driver/Src/stm32f4xx_hal_i2c.c ****     if (I2C_WaitOnFlagUntilTimeout(hi2c, I2C_FLAG_AF, RESET, Timeout, tickstart) != HAL_OK)
 1997              		.loc 1 1524 9
 1998 01c8 FB69     		ldr	r3, [r7, #28]
 1999 01ca 0093     		str	r3, [sp]
 2000 01cc 3B68     		ldr	r3, [r7]
 2001 01ce 0022     		movs	r2, #0
 2002 01d0 4FF48231 		mov	r1, #66560
 2003 01d4 F868     		ldr	r0, [r7, #12]
 2004 01d6 FFF7FEFF 		bl	I2C_WaitOnFlagUntilTimeout
 2005 01da 0346     		mov	r3, r0
 2006              		.loc 1 1524 8
 2007 01dc 002B     		cmp	r3, #0
 2008 01de 01D0     		beq	.L86
1525:Drivers/STM32F4xx_HAL_Driver/Src/stm32f4xx_hal_i2c.c ****     {
1526:Drivers/STM32F4xx_HAL_Driver/Src/stm32f4xx_hal_i2c.c ****       return HAL_ERROR;
 2009              		.loc 1 1526 14
 2010 01e0 0123     		movs	r3, #1
 2011 01e2 1BE0     		b	.L76
 2012              	.L86:
1527:Drivers/STM32F4xx_HAL_Driver/Src/stm32f4xx_hal_i2c.c ****     }
1528:Drivers/STM32F4xx_HAL_Driver/Src/stm32f4xx_hal_i2c.c **** 
1529:Drivers/STM32F4xx_HAL_Driver/Src/stm32f4xx_hal_i2c.c ****     /* Clear AF flag */
1530:Drivers/STM32F4xx_HAL_Driver/Src/stm32f4xx_hal_i2c.c ****     __HAL_I2C_CLEAR_FLAG(hi2c, I2C_FLAG_AF);
 2013              		.loc 1 1530 5
ARM GAS  C:\Users\Halil\AppData\Local\Temp\ccvukMBT.s 			page 63


 2014 01e4 FB68     		ldr	r3, [r7, #12]
 2015 01e6 1B68     		ldr	r3, [r3]
 2016 01e8 6FF48062 		mvn	r2, #1024
 2017 01ec 5A61     		str	r2, [r3, #20]
1531:Drivers/STM32F4xx_HAL_Driver/Src/stm32f4xx_hal_i2c.c **** 
1532:Drivers/STM32F4xx_HAL_Driver/Src/stm32f4xx_hal_i2c.c ****     /* Disable Address Acknowledge */
1533:Drivers/STM32F4xx_HAL_Driver/Src/stm32f4xx_hal_i2c.c ****     CLEAR_BIT(hi2c->Instance->CR1, I2C_CR1_ACK);
 2018              		.loc 1 1533 5
 2019 01ee FB68     		ldr	r3, [r7, #12]
 2020 01f0 1B68     		ldr	r3, [r3]
 2021 01f2 1A68     		ldr	r2, [r3]
 2022 01f4 FB68     		ldr	r3, [r7, #12]
 2023 01f6 1B68     		ldr	r3, [r3]
 2024 01f8 22F48062 		bic	r2, r2, #1024
 2025 01fc 1A60     		str	r2, [r3]
1534:Drivers/STM32F4xx_HAL_Driver/Src/stm32f4xx_hal_i2c.c **** 
1535:Drivers/STM32F4xx_HAL_Driver/Src/stm32f4xx_hal_i2c.c ****     hi2c->State = HAL_I2C_STATE_READY;
 2026              		.loc 1 1535 17
 2027 01fe FB68     		ldr	r3, [r7, #12]
 2028 0200 2022     		movs	r2, #32
 2029 0202 83F83D20 		strb	r2, [r3, #61]
1536:Drivers/STM32F4xx_HAL_Driver/Src/stm32f4xx_hal_i2c.c ****     hi2c->Mode = HAL_I2C_MODE_NONE;
 2030              		.loc 1 1536 16
 2031 0206 FB68     		ldr	r3, [r7, #12]
 2032 0208 0022     		movs	r2, #0
 2033 020a 83F83E20 		strb	r2, [r3, #62]
1537:Drivers/STM32F4xx_HAL_Driver/Src/stm32f4xx_hal_i2c.c **** 
1538:Drivers/STM32F4xx_HAL_Driver/Src/stm32f4xx_hal_i2c.c ****     /* Process Unlocked */
1539:Drivers/STM32F4xx_HAL_Driver/Src/stm32f4xx_hal_i2c.c ****     __HAL_UNLOCK(hi2c);
 2034              		.loc 1 1539 5
 2035 020e FB68     		ldr	r3, [r7, #12]
 2036 0210 0022     		movs	r2, #0
 2037 0212 83F83C20 		strb	r2, [r3, #60]
1540:Drivers/STM32F4xx_HAL_Driver/Src/stm32f4xx_hal_i2c.c **** 
1541:Drivers/STM32F4xx_HAL_Driver/Src/stm32f4xx_hal_i2c.c ****     return HAL_OK;
 2038              		.loc 1 1541 12
 2039 0216 0023     		movs	r3, #0
 2040 0218 00E0     		b	.L76
 2041              	.L73:
1542:Drivers/STM32F4xx_HAL_Driver/Src/stm32f4xx_hal_i2c.c ****   }
1543:Drivers/STM32F4xx_HAL_Driver/Src/stm32f4xx_hal_i2c.c ****   else
1544:Drivers/STM32F4xx_HAL_Driver/Src/stm32f4xx_hal_i2c.c ****   {
1545:Drivers/STM32F4xx_HAL_Driver/Src/stm32f4xx_hal_i2c.c ****     return HAL_BUSY;
 2042              		.loc 1 1545 12
 2043 021a 0223     		movs	r3, #2
 2044              	.L76:
1546:Drivers/STM32F4xx_HAL_Driver/Src/stm32f4xx_hal_i2c.c ****   }
1547:Drivers/STM32F4xx_HAL_Driver/Src/stm32f4xx_hal_i2c.c **** }
 2045              		.loc 1 1547 1
 2046 021c 1846     		mov	r0, r3
 2047 021e 2037     		adds	r7, r7, #32
 2048              		.cfi_def_cfa_offset 8
 2049 0220 BD46     		mov	sp, r7
 2050              		.cfi_def_cfa_register 13
 2051              		@ sp needed
 2052 0222 80BD     		pop	{r7, pc}
 2053              	.L88:
ARM GAS  C:\Users\Halil\AppData\Local\Temp\ccvukMBT.s 			page 64


 2054              		.align	2
 2055              	.L87:
 2056 0224 0000FFFF 		.word	-65536
 2057 0228 02000100 		.word	65538
 2058              		.cfi_endproc
 2059              	.LFE246:
 2061              		.section	.text.HAL_I2C_Slave_Receive,"ax",%progbits
 2062              		.align	1
 2063              		.global	HAL_I2C_Slave_Receive
 2064              		.syntax unified
 2065              		.thumb
 2066              		.thumb_func
 2068              	HAL_I2C_Slave_Receive:
 2069              	.LFB247:
1548:Drivers/STM32F4xx_HAL_Driver/Src/stm32f4xx_hal_i2c.c **** 
1549:Drivers/STM32F4xx_HAL_Driver/Src/stm32f4xx_hal_i2c.c **** /**
1550:Drivers/STM32F4xx_HAL_Driver/Src/stm32f4xx_hal_i2c.c ****   * @brief  Receive in slave mode an amount of data in blocking mode
1551:Drivers/STM32F4xx_HAL_Driver/Src/stm32f4xx_hal_i2c.c ****   * @param  hi2c Pointer to a I2C_HandleTypeDef structure that contains
1552:Drivers/STM32F4xx_HAL_Driver/Src/stm32f4xx_hal_i2c.c ****   *         the configuration information for the specified I2C.
1553:Drivers/STM32F4xx_HAL_Driver/Src/stm32f4xx_hal_i2c.c ****   * @param  pData Pointer to data buffer
1554:Drivers/STM32F4xx_HAL_Driver/Src/stm32f4xx_hal_i2c.c ****   * @param  Size Amount of data to be sent
1555:Drivers/STM32F4xx_HAL_Driver/Src/stm32f4xx_hal_i2c.c ****   * @param  Timeout Timeout duration
1556:Drivers/STM32F4xx_HAL_Driver/Src/stm32f4xx_hal_i2c.c ****   * @retval HAL status
1557:Drivers/STM32F4xx_HAL_Driver/Src/stm32f4xx_hal_i2c.c ****   */
1558:Drivers/STM32F4xx_HAL_Driver/Src/stm32f4xx_hal_i2c.c **** HAL_StatusTypeDef HAL_I2C_Slave_Receive(I2C_HandleTypeDef *hi2c, uint8_t *pData, uint16_t Size, uin
1559:Drivers/STM32F4xx_HAL_Driver/Src/stm32f4xx_hal_i2c.c **** {
 2070              		.loc 1 1559 1
 2071              		.cfi_startproc
 2072              		@ args = 0, pretend = 0, frame = 32
 2073              		@ frame_needed = 1, uses_anonymous_args = 0
 2074 0000 80B5     		push	{r7, lr}
 2075              		.cfi_def_cfa_offset 8
 2076              		.cfi_offset 7, -8
 2077              		.cfi_offset 14, -4
 2078 0002 8AB0     		sub	sp, sp, #40
 2079              		.cfi_def_cfa_offset 48
 2080 0004 02AF     		add	r7, sp, #8
 2081              		.cfi_def_cfa 7, 40
 2082 0006 F860     		str	r0, [r7, #12]
 2083 0008 B960     		str	r1, [r7, #8]
 2084 000a 3B60     		str	r3, [r7]
 2085 000c 1346     		mov	r3, r2	@ movhi
 2086 000e FB80     		strh	r3, [r7, #6]	@ movhi
1560:Drivers/STM32F4xx_HAL_Driver/Src/stm32f4xx_hal_i2c.c ****   /* Init tickstart for timeout management*/
1561:Drivers/STM32F4xx_HAL_Driver/Src/stm32f4xx_hal_i2c.c ****   uint32_t tickstart = HAL_GetTick();
 2087              		.loc 1 1561 24
 2088 0010 FFF7FEFF 		bl	HAL_GetTick
 2089 0014 F861     		str	r0, [r7, #28]
1562:Drivers/STM32F4xx_HAL_Driver/Src/stm32f4xx_hal_i2c.c **** 
1563:Drivers/STM32F4xx_HAL_Driver/Src/stm32f4xx_hal_i2c.c ****   if (hi2c->State == HAL_I2C_STATE_READY)
 2090              		.loc 1 1563 11
 2091 0016 FB68     		ldr	r3, [r7, #12]
 2092 0018 93F83D30 		ldrb	r3, [r3, #61]
 2093 001c DBB2     		uxtb	r3, r3
 2094              		.loc 1 1563 6
 2095 001e 202B     		cmp	r3, #32
 2096 0020 40F0EE80 		bne	.L90
ARM GAS  C:\Users\Halil\AppData\Local\Temp\ccvukMBT.s 			page 65


1564:Drivers/STM32F4xx_HAL_Driver/Src/stm32f4xx_hal_i2c.c ****   {
1565:Drivers/STM32F4xx_HAL_Driver/Src/stm32f4xx_hal_i2c.c ****     if ((pData == NULL) || (Size == (uint16_t)0))
 2097              		.loc 1 1565 8
 2098 0024 BB68     		ldr	r3, [r7, #8]
 2099 0026 002B     		cmp	r3, #0
 2100 0028 02D0     		beq	.L91
 2101              		.loc 1 1565 25 discriminator 1
 2102 002a FB88     		ldrh	r3, [r7, #6]
 2103 002c 002B     		cmp	r3, #0
 2104 002e 01D1     		bne	.L92
 2105              	.L91:
1566:Drivers/STM32F4xx_HAL_Driver/Src/stm32f4xx_hal_i2c.c ****     {
1567:Drivers/STM32F4xx_HAL_Driver/Src/stm32f4xx_hal_i2c.c ****       return HAL_ERROR;
 2106              		.loc 1 1567 14
 2107 0030 0123     		movs	r3, #1
 2108 0032 E6E0     		b	.L93
 2109              	.L92:
1568:Drivers/STM32F4xx_HAL_Driver/Src/stm32f4xx_hal_i2c.c ****     }
1569:Drivers/STM32F4xx_HAL_Driver/Src/stm32f4xx_hal_i2c.c **** 
1570:Drivers/STM32F4xx_HAL_Driver/Src/stm32f4xx_hal_i2c.c ****     /* Process Locked */
1571:Drivers/STM32F4xx_HAL_Driver/Src/stm32f4xx_hal_i2c.c ****     __HAL_LOCK(hi2c);
 2110              		.loc 1 1571 5
 2111 0034 FB68     		ldr	r3, [r7, #12]
 2112 0036 93F83C30 		ldrb	r3, [r3, #60]	@ zero_extendqisi2
 2113 003a 012B     		cmp	r3, #1
 2114 003c 01D1     		bne	.L94
 2115              		.loc 1 1571 5 is_stmt 0 discriminator 1
 2116 003e 0223     		movs	r3, #2
 2117 0040 DFE0     		b	.L93
 2118              	.L94:
 2119              		.loc 1 1571 5 discriminator 2
 2120 0042 FB68     		ldr	r3, [r7, #12]
 2121 0044 0122     		movs	r2, #1
 2122 0046 83F83C20 		strb	r2, [r3, #60]
1572:Drivers/STM32F4xx_HAL_Driver/Src/stm32f4xx_hal_i2c.c **** 
1573:Drivers/STM32F4xx_HAL_Driver/Src/stm32f4xx_hal_i2c.c ****     /* Check if the I2C is already enabled */
1574:Drivers/STM32F4xx_HAL_Driver/Src/stm32f4xx_hal_i2c.c ****     if ((hi2c->Instance->CR1 & I2C_CR1_PE) != I2C_CR1_PE)
 2123              		.loc 1 1574 14 is_stmt 1 discriminator 2
 2124 004a FB68     		ldr	r3, [r7, #12]
 2125 004c 1B68     		ldr	r3, [r3]
 2126              		.loc 1 1574 24 discriminator 2
 2127 004e 1B68     		ldr	r3, [r3]
 2128              		.loc 1 1574 30 discriminator 2
 2129 0050 03F00103 		and	r3, r3, #1
 2130              		.loc 1 1574 8 discriminator 2
 2131 0054 012B     		cmp	r3, #1
 2132 0056 07D0     		beq	.L95
1575:Drivers/STM32F4xx_HAL_Driver/Src/stm32f4xx_hal_i2c.c ****     {
1576:Drivers/STM32F4xx_HAL_Driver/Src/stm32f4xx_hal_i2c.c ****       /* Enable I2C peripheral */
1577:Drivers/STM32F4xx_HAL_Driver/Src/stm32f4xx_hal_i2c.c ****       __HAL_I2C_ENABLE(hi2c);
 2133              		.loc 1 1577 7
 2134 0058 FB68     		ldr	r3, [r7, #12]
 2135 005a 1B68     		ldr	r3, [r3]
 2136 005c 1A68     		ldr	r2, [r3]
 2137 005e FB68     		ldr	r3, [r7, #12]
 2138 0060 1B68     		ldr	r3, [r3]
 2139 0062 42F00102 		orr	r2, r2, #1
ARM GAS  C:\Users\Halil\AppData\Local\Temp\ccvukMBT.s 			page 66


 2140 0066 1A60     		str	r2, [r3]
 2141              	.L95:
1578:Drivers/STM32F4xx_HAL_Driver/Src/stm32f4xx_hal_i2c.c ****     }
1579:Drivers/STM32F4xx_HAL_Driver/Src/stm32f4xx_hal_i2c.c **** 
1580:Drivers/STM32F4xx_HAL_Driver/Src/stm32f4xx_hal_i2c.c ****     /* Disable Pos */
1581:Drivers/STM32F4xx_HAL_Driver/Src/stm32f4xx_hal_i2c.c ****     CLEAR_BIT(hi2c->Instance->CR1, I2C_CR1_POS);
 2142              		.loc 1 1581 5
 2143 0068 FB68     		ldr	r3, [r7, #12]
 2144 006a 1B68     		ldr	r3, [r3]
 2145 006c 1A68     		ldr	r2, [r3]
 2146 006e FB68     		ldr	r3, [r7, #12]
 2147 0070 1B68     		ldr	r3, [r3]
 2148 0072 22F40062 		bic	r2, r2, #2048
 2149 0076 1A60     		str	r2, [r3]
1582:Drivers/STM32F4xx_HAL_Driver/Src/stm32f4xx_hal_i2c.c **** 
1583:Drivers/STM32F4xx_HAL_Driver/Src/stm32f4xx_hal_i2c.c ****     hi2c->State       = HAL_I2C_STATE_BUSY_RX;
 2150              		.loc 1 1583 23
 2151 0078 FB68     		ldr	r3, [r7, #12]
 2152 007a 2222     		movs	r2, #34
 2153 007c 83F83D20 		strb	r2, [r3, #61]
1584:Drivers/STM32F4xx_HAL_Driver/Src/stm32f4xx_hal_i2c.c ****     hi2c->Mode        = HAL_I2C_MODE_SLAVE;
 2154              		.loc 1 1584 23
 2155 0080 FB68     		ldr	r3, [r7, #12]
 2156 0082 2022     		movs	r2, #32
 2157 0084 83F83E20 		strb	r2, [r3, #62]
1585:Drivers/STM32F4xx_HAL_Driver/Src/stm32f4xx_hal_i2c.c ****     hi2c->ErrorCode   = HAL_I2C_ERROR_NONE;
 2158              		.loc 1 1585 23
 2159 0088 FB68     		ldr	r3, [r7, #12]
 2160 008a 0022     		movs	r2, #0
 2161 008c 1A64     		str	r2, [r3, #64]
1586:Drivers/STM32F4xx_HAL_Driver/Src/stm32f4xx_hal_i2c.c **** 
1587:Drivers/STM32F4xx_HAL_Driver/Src/stm32f4xx_hal_i2c.c ****     /* Prepare transfer parameters */
1588:Drivers/STM32F4xx_HAL_Driver/Src/stm32f4xx_hal_i2c.c ****     hi2c->pBuffPtr    = pData;
 2162              		.loc 1 1588 23
 2163 008e FB68     		ldr	r3, [r7, #12]
 2164 0090 BA68     		ldr	r2, [r7, #8]
 2165 0092 5A62     		str	r2, [r3, #36]
1589:Drivers/STM32F4xx_HAL_Driver/Src/stm32f4xx_hal_i2c.c ****     hi2c->XferCount   = Size;
 2166              		.loc 1 1589 23
 2167 0094 FB68     		ldr	r3, [r7, #12]
 2168 0096 FA88     		ldrh	r2, [r7, #6]	@ movhi
 2169 0098 5A85     		strh	r2, [r3, #42]	@ movhi
1590:Drivers/STM32F4xx_HAL_Driver/Src/stm32f4xx_hal_i2c.c ****     hi2c->XferSize    = hi2c->XferCount;
 2170              		.loc 1 1590 29
 2171 009a FB68     		ldr	r3, [r7, #12]
 2172 009c 5B8D     		ldrh	r3, [r3, #42]	@ movhi
 2173 009e 9AB2     		uxth	r2, r3
 2174              		.loc 1 1590 23
 2175 00a0 FB68     		ldr	r3, [r7, #12]
 2176 00a2 1A85     		strh	r2, [r3, #40]	@ movhi
1591:Drivers/STM32F4xx_HAL_Driver/Src/stm32f4xx_hal_i2c.c ****     hi2c->XferOptions = I2C_NO_OPTION_FRAME;
 2177              		.loc 1 1591 23
 2178 00a4 FB68     		ldr	r3, [r7, #12]
 2179 00a6 594A     		ldr	r2, .L102
 2180 00a8 DA62     		str	r2, [r3, #44]
1592:Drivers/STM32F4xx_HAL_Driver/Src/stm32f4xx_hal_i2c.c **** 
1593:Drivers/STM32F4xx_HAL_Driver/Src/stm32f4xx_hal_i2c.c ****     /* Enable Address Acknowledge */
ARM GAS  C:\Users\Halil\AppData\Local\Temp\ccvukMBT.s 			page 67


1594:Drivers/STM32F4xx_HAL_Driver/Src/stm32f4xx_hal_i2c.c ****     SET_BIT(hi2c->Instance->CR1, I2C_CR1_ACK);
 2181              		.loc 1 1594 5
 2182 00aa FB68     		ldr	r3, [r7, #12]
 2183 00ac 1B68     		ldr	r3, [r3]
 2184 00ae 1A68     		ldr	r2, [r3]
 2185 00b0 FB68     		ldr	r3, [r7, #12]
 2186 00b2 1B68     		ldr	r3, [r3]
 2187 00b4 42F48062 		orr	r2, r2, #1024
 2188 00b8 1A60     		str	r2, [r3]
1595:Drivers/STM32F4xx_HAL_Driver/Src/stm32f4xx_hal_i2c.c **** 
1596:Drivers/STM32F4xx_HAL_Driver/Src/stm32f4xx_hal_i2c.c ****     /* Wait until ADDR flag is set */
1597:Drivers/STM32F4xx_HAL_Driver/Src/stm32f4xx_hal_i2c.c ****     if (I2C_WaitOnFlagUntilTimeout(hi2c, I2C_FLAG_ADDR, RESET, Timeout, tickstart) != HAL_OK)
 2189              		.loc 1 1597 9
 2190 00ba FB69     		ldr	r3, [r7, #28]
 2191 00bc 0093     		str	r3, [sp]
 2192 00be 3B68     		ldr	r3, [r7]
 2193 00c0 0022     		movs	r2, #0
 2194 00c2 5349     		ldr	r1, .L102+4
 2195 00c4 F868     		ldr	r0, [r7, #12]
 2196 00c6 FFF7FEFF 		bl	I2C_WaitOnFlagUntilTimeout
 2197 00ca 0346     		mov	r3, r0
 2198              		.loc 1 1597 8
 2199 00cc 002B     		cmp	r3, #0
 2200 00ce 01D0     		beq	.L96
1598:Drivers/STM32F4xx_HAL_Driver/Src/stm32f4xx_hal_i2c.c ****     {
1599:Drivers/STM32F4xx_HAL_Driver/Src/stm32f4xx_hal_i2c.c ****       return HAL_ERROR;
 2201              		.loc 1 1599 14
 2202 00d0 0123     		movs	r3, #1
 2203 00d2 96E0     		b	.L93
 2204              	.L96:
 2205              	.LBB9:
1600:Drivers/STM32F4xx_HAL_Driver/Src/stm32f4xx_hal_i2c.c ****     }
1601:Drivers/STM32F4xx_HAL_Driver/Src/stm32f4xx_hal_i2c.c **** 
1602:Drivers/STM32F4xx_HAL_Driver/Src/stm32f4xx_hal_i2c.c ****     /* Clear ADDR flag */
1603:Drivers/STM32F4xx_HAL_Driver/Src/stm32f4xx_hal_i2c.c ****     __HAL_I2C_CLEAR_ADDRFLAG(hi2c);
 2206              		.loc 1 1603 5
 2207 00d4 0023     		movs	r3, #0
 2208 00d6 BB61     		str	r3, [r7, #24]
 2209 00d8 FB68     		ldr	r3, [r7, #12]
 2210 00da 1B68     		ldr	r3, [r3]
 2211 00dc 5B69     		ldr	r3, [r3, #20]
 2212 00de BB61     		str	r3, [r7, #24]
 2213 00e0 FB68     		ldr	r3, [r7, #12]
 2214 00e2 1B68     		ldr	r3, [r3]
 2215 00e4 9B69     		ldr	r3, [r3, #24]
 2216 00e6 BB61     		str	r3, [r7, #24]
 2217 00e8 BB69     		ldr	r3, [r7, #24]
 2218              	.LBE9:
1604:Drivers/STM32F4xx_HAL_Driver/Src/stm32f4xx_hal_i2c.c **** 
1605:Drivers/STM32F4xx_HAL_Driver/Src/stm32f4xx_hal_i2c.c ****     while (hi2c->XferSize > 0U)
 2219              		.loc 1 1605 11
 2220 00ea 4EE0     		b	.L97
 2221              	.L100:
1606:Drivers/STM32F4xx_HAL_Driver/Src/stm32f4xx_hal_i2c.c ****     {
1607:Drivers/STM32F4xx_HAL_Driver/Src/stm32f4xx_hal_i2c.c ****       /* Wait until RXNE flag is set */
1608:Drivers/STM32F4xx_HAL_Driver/Src/stm32f4xx_hal_i2c.c ****       if (I2C_WaitOnRXNEFlagUntilTimeout(hi2c, Timeout, tickstart) != HAL_OK)
 2222              		.loc 1 1608 11
ARM GAS  C:\Users\Halil\AppData\Local\Temp\ccvukMBT.s 			page 68


 2223 00ec FA69     		ldr	r2, [r7, #28]
 2224 00ee 3968     		ldr	r1, [r7]
 2225 00f0 F868     		ldr	r0, [r7, #12]
 2226 00f2 FFF7FEFF 		bl	I2C_WaitOnRXNEFlagUntilTimeout
 2227 00f6 0346     		mov	r3, r0
 2228              		.loc 1 1608 10
 2229 00f8 002B     		cmp	r3, #0
 2230 00fa 09D0     		beq	.L98
1609:Drivers/STM32F4xx_HAL_Driver/Src/stm32f4xx_hal_i2c.c ****       {
1610:Drivers/STM32F4xx_HAL_Driver/Src/stm32f4xx_hal_i2c.c ****         /* Disable Address Acknowledge */
1611:Drivers/STM32F4xx_HAL_Driver/Src/stm32f4xx_hal_i2c.c ****         CLEAR_BIT(hi2c->Instance->CR1, I2C_CR1_ACK);
 2231              		.loc 1 1611 9
 2232 00fc FB68     		ldr	r3, [r7, #12]
 2233 00fe 1B68     		ldr	r3, [r3]
 2234 0100 1A68     		ldr	r2, [r3]
 2235 0102 FB68     		ldr	r3, [r7, #12]
 2236 0104 1B68     		ldr	r3, [r3]
 2237 0106 22F48062 		bic	r2, r2, #1024
 2238 010a 1A60     		str	r2, [r3]
1612:Drivers/STM32F4xx_HAL_Driver/Src/stm32f4xx_hal_i2c.c **** 
1613:Drivers/STM32F4xx_HAL_Driver/Src/stm32f4xx_hal_i2c.c ****         return HAL_ERROR;
 2239              		.loc 1 1613 16
 2240 010c 0123     		movs	r3, #1
 2241 010e 78E0     		b	.L93
 2242              	.L98:
1614:Drivers/STM32F4xx_HAL_Driver/Src/stm32f4xx_hal_i2c.c ****       }
