ARM GAS  C:\Users\Halil\AppData\Local\Temp\ccdYOoXG.s 			page 1


   1              		.cpu cortex-m4
   2              		.arch armv7e-m
   3              		.fpu fpv4-sp-d16
   4              		.eabi_attribute 27, 1
   5              		.eabi_attribute 28, 1
   6              		.eabi_attribute 20, 1
   7              		.eabi_attribute 21, 1
   8              		.eabi_attribute 23, 3
   9              		.eabi_attribute 24, 1
  10              		.eabi_attribute 25, 1
  11              		.eabi_attribute 26, 1
  12              		.eabi_attribute 30, 6
  13              		.eabi_attribute 34, 1
  14              		.eabi_attribute 18, 4
  15              		.file	"stream_buffer.c"
  16              		.text
  17              	.Ltext0:
  18              		.cfi_sections	.debug_frame
  19              		.file 1 "Middlewares/Third_Party/FreeRTOS/Source/stream_buffer.c"
  20              		.section	.text.xStreamBufferGenericCreate,"ax",%progbits
  21              		.align	1
  22              		.global	xStreamBufferGenericCreate
  23              		.syntax unified
  24              		.thumb
  25              		.thumb_func
  27              	xStreamBufferGenericCreate:
  28              	.LFB4:
   1:Middlewares/Third_Party/FreeRTOS/Source/stream_buffer.c **** /*
   2:Middlewares/Third_Party/FreeRTOS/Source/stream_buffer.c ****  * FreeRTOS Kernel V10.3.1
   3:Middlewares/Third_Party/FreeRTOS/Source/stream_buffer.c ****  * Copyright (C) 2020 Amazon.com, Inc. or its affiliates.  All Rights Reserved.
   4:Middlewares/Third_Party/FreeRTOS/Source/stream_buffer.c ****  *
   5:Middlewares/Third_Party/FreeRTOS/Source/stream_buffer.c ****  * Permission is hereby granted, free of charge, to any person obtaining a copy of
   6:Middlewares/Third_Party/FreeRTOS/Source/stream_buffer.c ****  * this software and associated documentation files (the "Software"), to deal in
   7:Middlewares/Third_Party/FreeRTOS/Source/stream_buffer.c ****  * the Software without restriction, including without limitation the rights to
   8:Middlewares/Third_Party/FreeRTOS/Source/stream_buffer.c ****  * use, copy, modify, merge, publish, distribute, sublicense, and/or sell copies of
   9:Middlewares/Third_Party/FreeRTOS/Source/stream_buffer.c ****  * the Software, and to permit persons to whom the Software is furnished to do so,
  10:Middlewares/Third_Party/FreeRTOS/Source/stream_buffer.c ****  * subject to the following conditions:
  11:Middlewares/Third_Party/FreeRTOS/Source/stream_buffer.c ****  *
  12:Middlewares/Third_Party/FreeRTOS/Source/stream_buffer.c ****  * The above copyright notice and this permission notice shall be included in all
  13:Middlewares/Third_Party/FreeRTOS/Source/stream_buffer.c ****  * copies or substantial portions of the Software.
  14:Middlewares/Third_Party/FreeRTOS/Source/stream_buffer.c ****  *
  15:Middlewares/Third_Party/FreeRTOS/Source/stream_buffer.c ****  * THE SOFTWARE IS PROVIDED "AS IS", WITHOUT WARRANTY OF ANY KIND, EXPRESS OR
  16:Middlewares/Third_Party/FreeRTOS/Source/stream_buffer.c ****  * IMPLIED, INCLUDING BUT NOT LIMITED TO THE WARRANTIES OF MERCHANTABILITY, FITNESS
  17:Middlewares/Third_Party/FreeRTOS/Source/stream_buffer.c ****  * FOR A PARTICULAR PURPOSE AND NONINFRINGEMENT. IN NO EVENT SHALL THE AUTHORS OR
  18:Middlewares/Third_Party/FreeRTOS/Source/stream_buffer.c ****  * COPYRIGHT HOLDERS BE LIABLE FOR ANY CLAIM, DAMAGES OR OTHER LIABILITY, WHETHER
  19:Middlewares/Third_Party/FreeRTOS/Source/stream_buffer.c ****  * IN AN ACTION OF CONTRACT, TORT OR OTHERWISE, ARISING FROM, OUT OF OR IN
  20:Middlewares/Third_Party/FreeRTOS/Source/stream_buffer.c ****  * CONNECTION WITH THE SOFTWARE OR THE USE OR OTHER DEALINGS IN THE SOFTWARE.
  21:Middlewares/Third_Party/FreeRTOS/Source/stream_buffer.c ****  *
  22:Middlewares/Third_Party/FreeRTOS/Source/stream_buffer.c ****  * http://www.FreeRTOS.org
  23:Middlewares/Third_Party/FreeRTOS/Source/stream_buffer.c ****  * http://aws.amazon.com/freertos
  24:Middlewares/Third_Party/FreeRTOS/Source/stream_buffer.c ****  *
  25:Middlewares/Third_Party/FreeRTOS/Source/stream_buffer.c ****  * 1 tab == 4 spaces!
  26:Middlewares/Third_Party/FreeRTOS/Source/stream_buffer.c ****  */
  27:Middlewares/Third_Party/FreeRTOS/Source/stream_buffer.c **** 
  28:Middlewares/Third_Party/FreeRTOS/Source/stream_buffer.c **** /* Standard includes. */
  29:Middlewares/Third_Party/FreeRTOS/Source/stream_buffer.c **** #include <stdint.h>
  30:Middlewares/Third_Party/FreeRTOS/Source/stream_buffer.c **** #include <string.h>
ARM GAS  C:\Users\Halil\AppData\Local\Temp\ccdYOoXG.s 			page 2


  31:Middlewares/Third_Party/FreeRTOS/Source/stream_buffer.c **** 
  32:Middlewares/Third_Party/FreeRTOS/Source/stream_buffer.c **** /* Defining MPU_WRAPPERS_INCLUDED_FROM_API_FILE prevents task.h from redefining
  33:Middlewares/Third_Party/FreeRTOS/Source/stream_buffer.c **** all the API functions to use the MPU wrappers.  That should only be done when
  34:Middlewares/Third_Party/FreeRTOS/Source/stream_buffer.c **** task.h is included from an application file. */
  35:Middlewares/Third_Party/FreeRTOS/Source/stream_buffer.c **** #define MPU_WRAPPERS_INCLUDED_FROM_API_FILE
  36:Middlewares/Third_Party/FreeRTOS/Source/stream_buffer.c **** 
  37:Middlewares/Third_Party/FreeRTOS/Source/stream_buffer.c **** /* FreeRTOS includes. */
  38:Middlewares/Third_Party/FreeRTOS/Source/stream_buffer.c **** #include "FreeRTOS.h"
  39:Middlewares/Third_Party/FreeRTOS/Source/stream_buffer.c **** #include "task.h"
  40:Middlewares/Third_Party/FreeRTOS/Source/stream_buffer.c **** #include "stream_buffer.h"
  41:Middlewares/Third_Party/FreeRTOS/Source/stream_buffer.c **** 
  42:Middlewares/Third_Party/FreeRTOS/Source/stream_buffer.c **** #if( configUSE_TASK_NOTIFICATIONS != 1 )
  43:Middlewares/Third_Party/FreeRTOS/Source/stream_buffer.c **** 	#error configUSE_TASK_NOTIFICATIONS must be set to 1 to build stream_buffer.c
  44:Middlewares/Third_Party/FreeRTOS/Source/stream_buffer.c **** #endif
  45:Middlewares/Third_Party/FreeRTOS/Source/stream_buffer.c **** 
  46:Middlewares/Third_Party/FreeRTOS/Source/stream_buffer.c **** /* Lint e961, e9021 and e750 are suppressed as a MISRA exception justified
  47:Middlewares/Third_Party/FreeRTOS/Source/stream_buffer.c **** because the MPU ports require MPU_WRAPPERS_INCLUDED_FROM_API_FILE to be defined
  48:Middlewares/Third_Party/FreeRTOS/Source/stream_buffer.c **** for the header files above, but not in this file, in order to generate the
  49:Middlewares/Third_Party/FreeRTOS/Source/stream_buffer.c **** correct privileged Vs unprivileged linkage and placement. */
  50:Middlewares/Third_Party/FreeRTOS/Source/stream_buffer.c **** #undef MPU_WRAPPERS_INCLUDED_FROM_API_FILE /*lint !e961 !e750 !e9021. */
  51:Middlewares/Third_Party/FreeRTOS/Source/stream_buffer.c **** 
  52:Middlewares/Third_Party/FreeRTOS/Source/stream_buffer.c **** /* If the user has not provided application specific Rx notification macros,
  53:Middlewares/Third_Party/FreeRTOS/Source/stream_buffer.c **** or #defined the notification macros away, them provide default implementations
  54:Middlewares/Third_Party/FreeRTOS/Source/stream_buffer.c **** that uses task notifications. */
  55:Middlewares/Third_Party/FreeRTOS/Source/stream_buffer.c **** /*lint -save -e9026 Function like macros allowed and needed here so they can be overidden. */
  56:Middlewares/Third_Party/FreeRTOS/Source/stream_buffer.c **** #ifndef sbRECEIVE_COMPLETED
  57:Middlewares/Third_Party/FreeRTOS/Source/stream_buffer.c **** 	#define sbRECEIVE_COMPLETED( pxStreamBuffer )										\
  58:Middlewares/Third_Party/FreeRTOS/Source/stream_buffer.c **** 		vTaskSuspendAll();																\
  59:Middlewares/Third_Party/FreeRTOS/Source/stream_buffer.c **** 		{																				\
  60:Middlewares/Third_Party/FreeRTOS/Source/stream_buffer.c **** 			if( ( pxStreamBuffer )->xTaskWaitingToSend != NULL )						\
  61:Middlewares/Third_Party/FreeRTOS/Source/stream_buffer.c **** 			{																			\
  62:Middlewares/Third_Party/FreeRTOS/Source/stream_buffer.c **** 				( void ) xTaskNotify( ( pxStreamBuffer )->xTaskWaitingToSend,			\
  63:Middlewares/Third_Party/FreeRTOS/Source/stream_buffer.c **** 									  ( uint32_t ) 0,									\
  64:Middlewares/Third_Party/FreeRTOS/Source/stream_buffer.c **** 									  eNoAction );										\
  65:Middlewares/Third_Party/FreeRTOS/Source/stream_buffer.c **** 				( pxStreamBuffer )->xTaskWaitingToSend = NULL;							\
  66:Middlewares/Third_Party/FreeRTOS/Source/stream_buffer.c **** 			}																			\
  67:Middlewares/Third_Party/FreeRTOS/Source/stream_buffer.c **** 		}																				\
  68:Middlewares/Third_Party/FreeRTOS/Source/stream_buffer.c **** 		( void ) xTaskResumeAll();
  69:Middlewares/Third_Party/FreeRTOS/Source/stream_buffer.c **** #endif /* sbRECEIVE_COMPLETED */
  70:Middlewares/Third_Party/FreeRTOS/Source/stream_buffer.c **** 
  71:Middlewares/Third_Party/FreeRTOS/Source/stream_buffer.c **** #ifndef sbRECEIVE_COMPLETED_FROM_ISR
  72:Middlewares/Third_Party/FreeRTOS/Source/stream_buffer.c **** 	#define sbRECEIVE_COMPLETED_FROM_ISR( pxStreamBuffer,								\
  73:Middlewares/Third_Party/FreeRTOS/Source/stream_buffer.c **** 										  pxHigherPriorityTaskWoken )					\
  74:Middlewares/Third_Party/FreeRTOS/Source/stream_buffer.c **** 	{																					\
  75:Middlewares/Third_Party/FreeRTOS/Source/stream_buffer.c **** 	UBaseType_t uxSavedInterruptStatus;													\
  76:Middlewares/Third_Party/FreeRTOS/Source/stream_buffer.c **** 																						\
  77:Middlewares/Third_Party/FreeRTOS/Source/stream_buffer.c **** 		uxSavedInterruptStatus = ( UBaseType_t ) portSET_INTERRUPT_MASK_FROM_ISR();		\
  78:Middlewares/Third_Party/FreeRTOS/Source/stream_buffer.c **** 		{																				\
  79:Middlewares/Third_Party/FreeRTOS/Source/stream_buffer.c **** 			if( ( pxStreamBuffer )->xTaskWaitingToSend != NULL )						\
  80:Middlewares/Third_Party/FreeRTOS/Source/stream_buffer.c **** 			{																			\
  81:Middlewares/Third_Party/FreeRTOS/Source/stream_buffer.c **** 				( void ) xTaskNotifyFromISR( ( pxStreamBuffer )->xTaskWaitingToSend,	\
  82:Middlewares/Third_Party/FreeRTOS/Source/stream_buffer.c **** 											 ( uint32_t ) 0,							\
  83:Middlewares/Third_Party/FreeRTOS/Source/stream_buffer.c **** 											 eNoAction,									\
  84:Middlewares/Third_Party/FreeRTOS/Source/stream_buffer.c **** 											 pxHigherPriorityTaskWoken );				\
  85:Middlewares/Third_Party/FreeRTOS/Source/stream_buffer.c **** 				( pxStreamBuffer )->xTaskWaitingToSend = NULL;							\
  86:Middlewares/Third_Party/FreeRTOS/Source/stream_buffer.c **** 			}																			\
  87:Middlewares/Third_Party/FreeRTOS/Source/stream_buffer.c **** 		}																				\
ARM GAS  C:\Users\Halil\AppData\Local\Temp\ccdYOoXG.s 			page 3


  88:Middlewares/Third_Party/FreeRTOS/Source/stream_buffer.c **** 		portCLEAR_INTERRUPT_MASK_FROM_ISR( uxSavedInterruptStatus );					\
  89:Middlewares/Third_Party/FreeRTOS/Source/stream_buffer.c **** 	}
  90:Middlewares/Third_Party/FreeRTOS/Source/stream_buffer.c **** #endif /* sbRECEIVE_COMPLETED_FROM_ISR */
  91:Middlewares/Third_Party/FreeRTOS/Source/stream_buffer.c **** 
  92:Middlewares/Third_Party/FreeRTOS/Source/stream_buffer.c **** /* If the user has not provided an application specific Tx notification macro,
  93:Middlewares/Third_Party/FreeRTOS/Source/stream_buffer.c **** or #defined the notification macro away, them provide a default implementation
  94:Middlewares/Third_Party/FreeRTOS/Source/stream_buffer.c **** that uses task notifications. */
  95:Middlewares/Third_Party/FreeRTOS/Source/stream_buffer.c **** #ifndef sbSEND_COMPLETED
  96:Middlewares/Third_Party/FreeRTOS/Source/stream_buffer.c **** 	#define sbSEND_COMPLETED( pxStreamBuffer )											\
  97:Middlewares/Third_Party/FreeRTOS/Source/stream_buffer.c **** 		vTaskSuspendAll();																\
  98:Middlewares/Third_Party/FreeRTOS/Source/stream_buffer.c **** 		{																				\
  99:Middlewares/Third_Party/FreeRTOS/Source/stream_buffer.c **** 			if( ( pxStreamBuffer )->xTaskWaitingToReceive != NULL )						\
 100:Middlewares/Third_Party/FreeRTOS/Source/stream_buffer.c **** 			{																			\
 101:Middlewares/Third_Party/FreeRTOS/Source/stream_buffer.c **** 				( void ) xTaskNotify( ( pxStreamBuffer )->xTaskWaitingToReceive,		\
 102:Middlewares/Third_Party/FreeRTOS/Source/stream_buffer.c **** 									  ( uint32_t ) 0,									\
 103:Middlewares/Third_Party/FreeRTOS/Source/stream_buffer.c **** 									  eNoAction );										\
 104:Middlewares/Third_Party/FreeRTOS/Source/stream_buffer.c **** 				( pxStreamBuffer )->xTaskWaitingToReceive = NULL;						\
 105:Middlewares/Third_Party/FreeRTOS/Source/stream_buffer.c **** 			}																			\
 106:Middlewares/Third_Party/FreeRTOS/Source/stream_buffer.c **** 		}																				\
 107:Middlewares/Third_Party/FreeRTOS/Source/stream_buffer.c **** 		( void ) xTaskResumeAll();
 108:Middlewares/Third_Party/FreeRTOS/Source/stream_buffer.c **** #endif /* sbSEND_COMPLETED */
 109:Middlewares/Third_Party/FreeRTOS/Source/stream_buffer.c **** 
 110:Middlewares/Third_Party/FreeRTOS/Source/stream_buffer.c **** #ifndef sbSEND_COMPLETE_FROM_ISR
 111:Middlewares/Third_Party/FreeRTOS/Source/stream_buffer.c **** 	#define sbSEND_COMPLETE_FROM_ISR( pxStreamBuffer, pxHigherPriorityTaskWoken )		\
 112:Middlewares/Third_Party/FreeRTOS/Source/stream_buffer.c **** 	{																					\
 113:Middlewares/Third_Party/FreeRTOS/Source/stream_buffer.c **** 	UBaseType_t uxSavedInterruptStatus;													\
 114:Middlewares/Third_Party/FreeRTOS/Source/stream_buffer.c **** 																						\
 115:Middlewares/Third_Party/FreeRTOS/Source/stream_buffer.c **** 		uxSavedInterruptStatus = ( UBaseType_t ) portSET_INTERRUPT_MASK_FROM_ISR();		\
 116:Middlewares/Third_Party/FreeRTOS/Source/stream_buffer.c **** 		{																				\
 117:Middlewares/Third_Party/FreeRTOS/Source/stream_buffer.c **** 			if( ( pxStreamBuffer )->xTaskWaitingToReceive != NULL )						\
 118:Middlewares/Third_Party/FreeRTOS/Source/stream_buffer.c **** 			{																			\
 119:Middlewares/Third_Party/FreeRTOS/Source/stream_buffer.c **** 				( void ) xTaskNotifyFromISR( ( pxStreamBuffer )->xTaskWaitingToReceive,	\
 120:Middlewares/Third_Party/FreeRTOS/Source/stream_buffer.c **** 											 ( uint32_t ) 0,							\
 121:Middlewares/Third_Party/FreeRTOS/Source/stream_buffer.c **** 											 eNoAction,									\
 122:Middlewares/Third_Party/FreeRTOS/Source/stream_buffer.c **** 											 pxHigherPriorityTaskWoken );				\
 123:Middlewares/Third_Party/FreeRTOS/Source/stream_buffer.c **** 				( pxStreamBuffer )->xTaskWaitingToReceive = NULL;						\
 124:Middlewares/Third_Party/FreeRTOS/Source/stream_buffer.c **** 			}																			\
 125:Middlewares/Third_Party/FreeRTOS/Source/stream_buffer.c **** 		}																				\
 126:Middlewares/Third_Party/FreeRTOS/Source/stream_buffer.c **** 		portCLEAR_INTERRUPT_MASK_FROM_ISR( uxSavedInterruptStatus );					\
 127:Middlewares/Third_Party/FreeRTOS/Source/stream_buffer.c **** 	}
 128:Middlewares/Third_Party/FreeRTOS/Source/stream_buffer.c **** #endif /* sbSEND_COMPLETE_FROM_ISR */
 129:Middlewares/Third_Party/FreeRTOS/Source/stream_buffer.c **** /*lint -restore (9026) */
 130:Middlewares/Third_Party/FreeRTOS/Source/stream_buffer.c **** 
 131:Middlewares/Third_Party/FreeRTOS/Source/stream_buffer.c **** /* The number of bytes used to hold the length of a message in the buffer. */
 132:Middlewares/Third_Party/FreeRTOS/Source/stream_buffer.c **** #define sbBYTES_TO_STORE_MESSAGE_LENGTH ( sizeof( configMESSAGE_BUFFER_LENGTH_TYPE ) )
 133:Middlewares/Third_Party/FreeRTOS/Source/stream_buffer.c **** 
 134:Middlewares/Third_Party/FreeRTOS/Source/stream_buffer.c **** /* Bits stored in the ucFlags field of the stream buffer. */
 135:Middlewares/Third_Party/FreeRTOS/Source/stream_buffer.c **** #define sbFLAGS_IS_MESSAGE_BUFFER		( ( uint8_t ) 1 ) /* Set if the stream buffer was created as a m
 136:Middlewares/Third_Party/FreeRTOS/Source/stream_buffer.c **** #define sbFLAGS_IS_STATICALLY_ALLOCATED ( ( uint8_t ) 2 ) /* Set if the stream buffer was created u
 137:Middlewares/Third_Party/FreeRTOS/Source/stream_buffer.c **** 
 138:Middlewares/Third_Party/FreeRTOS/Source/stream_buffer.c **** /*-----------------------------------------------------------*/
 139:Middlewares/Third_Party/FreeRTOS/Source/stream_buffer.c **** 
 140:Middlewares/Third_Party/FreeRTOS/Source/stream_buffer.c **** /* Structure that hold state information on the buffer. */
 141:Middlewares/Third_Party/FreeRTOS/Source/stream_buffer.c **** typedef struct StreamBufferDef_t /*lint !e9058 Style convention uses tag. */
 142:Middlewares/Third_Party/FreeRTOS/Source/stream_buffer.c **** {
 143:Middlewares/Third_Party/FreeRTOS/Source/stream_buffer.c **** 	volatile size_t xTail;				/* Index to the next item to read within the buffer. */
 144:Middlewares/Third_Party/FreeRTOS/Source/stream_buffer.c **** 	volatile size_t xHead;				/* Index to the next item to write within the buffer. */
ARM GAS  C:\Users\Halil\AppData\Local\Temp\ccdYOoXG.s 			page 4


 145:Middlewares/Third_Party/FreeRTOS/Source/stream_buffer.c **** 	size_t xLength;						/* The length of the buffer pointed to by pucBuffer. */
 146:Middlewares/Third_Party/FreeRTOS/Source/stream_buffer.c **** 	size_t xTriggerLevelBytes;			/* The number of bytes that must be in the stream buffer before a tas
 147:Middlewares/Third_Party/FreeRTOS/Source/stream_buffer.c **** 	volatile TaskHandle_t xTaskWaitingToReceive; /* Holds the handle of a task waiting for data, or NU
 148:Middlewares/Third_Party/FreeRTOS/Source/stream_buffer.c **** 	volatile TaskHandle_t xTaskWaitingToSend;	/* Holds the handle of a task waiting to send data to a 
 149:Middlewares/Third_Party/FreeRTOS/Source/stream_buffer.c **** 	uint8_t *pucBuffer;					/* Points to the buffer itself - that is - the RAM that stores the data pa
 150:Middlewares/Third_Party/FreeRTOS/Source/stream_buffer.c **** 	uint8_t ucFlags;
 151:Middlewares/Third_Party/FreeRTOS/Source/stream_buffer.c **** 
 152:Middlewares/Third_Party/FreeRTOS/Source/stream_buffer.c **** 	#if ( configUSE_TRACE_FACILITY == 1 )
 153:Middlewares/Third_Party/FreeRTOS/Source/stream_buffer.c **** 		UBaseType_t uxStreamBufferNumber;		/* Used for tracing purposes. */
 154:Middlewares/Third_Party/FreeRTOS/Source/stream_buffer.c **** 	#endif
 155:Middlewares/Third_Party/FreeRTOS/Source/stream_buffer.c **** } StreamBuffer_t;
 156:Middlewares/Third_Party/FreeRTOS/Source/stream_buffer.c **** 
 157:Middlewares/Third_Party/FreeRTOS/Source/stream_buffer.c **** /*
 158:Middlewares/Third_Party/FreeRTOS/Source/stream_buffer.c ****  * The number of bytes available to be read from the buffer.
 159:Middlewares/Third_Party/FreeRTOS/Source/stream_buffer.c ****  */
 160:Middlewares/Third_Party/FreeRTOS/Source/stream_buffer.c **** static size_t prvBytesInBuffer( const StreamBuffer_t * const pxStreamBuffer ) PRIVILEGED_FUNCTION;
 161:Middlewares/Third_Party/FreeRTOS/Source/stream_buffer.c **** 
 162:Middlewares/Third_Party/FreeRTOS/Source/stream_buffer.c **** /*
 163:Middlewares/Third_Party/FreeRTOS/Source/stream_buffer.c ****  * Add xCount bytes from pucData into the pxStreamBuffer message buffer.
 164:Middlewares/Third_Party/FreeRTOS/Source/stream_buffer.c ****  * Returns the number of bytes written, which will either equal xCount in the
 165:Middlewares/Third_Party/FreeRTOS/Source/stream_buffer.c ****  * success case, or 0 if there was not enough space in the buffer (in which case
 166:Middlewares/Third_Party/FreeRTOS/Source/stream_buffer.c ****  * no data is written into the buffer).
 167:Middlewares/Third_Party/FreeRTOS/Source/stream_buffer.c ****  */
 168:Middlewares/Third_Party/FreeRTOS/Source/stream_buffer.c **** static size_t prvWriteBytesToBuffer( StreamBuffer_t * const pxStreamBuffer, const uint8_t *pucData,
 169:Middlewares/Third_Party/FreeRTOS/Source/stream_buffer.c **** 
 170:Middlewares/Third_Party/FreeRTOS/Source/stream_buffer.c **** /*
 171:Middlewares/Third_Party/FreeRTOS/Source/stream_buffer.c ****  * If the stream buffer is being used as a message buffer, then reads an entire
 172:Middlewares/Third_Party/FreeRTOS/Source/stream_buffer.c ****  * message out of the buffer.  If the stream buffer is being used as a stream
 173:Middlewares/Third_Party/FreeRTOS/Source/stream_buffer.c ****  * buffer then read as many bytes as possible from the buffer.
 174:Middlewares/Third_Party/FreeRTOS/Source/stream_buffer.c ****  * prvReadBytesFromBuffer() is called to actually extract the bytes from the
 175:Middlewares/Third_Party/FreeRTOS/Source/stream_buffer.c ****  * buffer's data storage area.
 176:Middlewares/Third_Party/FreeRTOS/Source/stream_buffer.c ****  */
 177:Middlewares/Third_Party/FreeRTOS/Source/stream_buffer.c **** static size_t prvReadMessageFromBuffer( StreamBuffer_t *pxStreamBuffer,
 178:Middlewares/Third_Party/FreeRTOS/Source/stream_buffer.c **** 										void *pvRxData,
 179:Middlewares/Third_Party/FreeRTOS/Source/stream_buffer.c **** 										size_t xBufferLengthBytes,
 180:Middlewares/Third_Party/FreeRTOS/Source/stream_buffer.c **** 										size_t xBytesAvailable,
 181:Middlewares/Third_Party/FreeRTOS/Source/stream_buffer.c **** 										size_t xBytesToStoreMessageLength ) PRIVILEGED_FUNCTION;
 182:Middlewares/Third_Party/FreeRTOS/Source/stream_buffer.c **** 
 183:Middlewares/Third_Party/FreeRTOS/Source/stream_buffer.c **** /*
 184:Middlewares/Third_Party/FreeRTOS/Source/stream_buffer.c ****  * If the stream buffer is being used as a message buffer, then writes an entire
 185:Middlewares/Third_Party/FreeRTOS/Source/stream_buffer.c ****  * message to the buffer.  If the stream buffer is being used as a stream
 186:Middlewares/Third_Party/FreeRTOS/Source/stream_buffer.c ****  * buffer then write as many bytes as possible to the buffer.
 187:Middlewares/Third_Party/FreeRTOS/Source/stream_buffer.c ****  * prvWriteBytestoBuffer() is called to actually send the bytes to the buffer's
 188:Middlewares/Third_Party/FreeRTOS/Source/stream_buffer.c ****  * data storage area.
 189:Middlewares/Third_Party/FreeRTOS/Source/stream_buffer.c ****  */
 190:Middlewares/Third_Party/FreeRTOS/Source/stream_buffer.c **** static size_t prvWriteMessageToBuffer(  StreamBuffer_t * const pxStreamBuffer,
 191:Middlewares/Third_Party/FreeRTOS/Source/stream_buffer.c **** 										const void * pvTxData,
 192:Middlewares/Third_Party/FreeRTOS/Source/stream_buffer.c **** 										size_t xDataLengthBytes,
 193:Middlewares/Third_Party/FreeRTOS/Source/stream_buffer.c **** 										size_t xSpace,
 194:Middlewares/Third_Party/FreeRTOS/Source/stream_buffer.c **** 										size_t xRequiredSpace ) PRIVILEGED_FUNCTION;
 195:Middlewares/Third_Party/FreeRTOS/Source/stream_buffer.c **** 
 196:Middlewares/Third_Party/FreeRTOS/Source/stream_buffer.c **** /*
 197:Middlewares/Third_Party/FreeRTOS/Source/stream_buffer.c ****  * Read xMaxCount bytes from the pxStreamBuffer message buffer and write them
 198:Middlewares/Third_Party/FreeRTOS/Source/stream_buffer.c ****  * to pucData.
 199:Middlewares/Third_Party/FreeRTOS/Source/stream_buffer.c ****  */
 200:Middlewares/Third_Party/FreeRTOS/Source/stream_buffer.c **** static size_t prvReadBytesFromBuffer( StreamBuffer_t *pxStreamBuffer,
 201:Middlewares/Third_Party/FreeRTOS/Source/stream_buffer.c **** 									  uint8_t *pucData,
ARM GAS  C:\Users\Halil\AppData\Local\Temp\ccdYOoXG.s 			page 5


 202:Middlewares/Third_Party/FreeRTOS/Source/stream_buffer.c **** 									  size_t xMaxCount,
 203:Middlewares/Third_Party/FreeRTOS/Source/stream_buffer.c **** 									  size_t xBytesAvailable ) PRIVILEGED_FUNCTION;
 204:Middlewares/Third_Party/FreeRTOS/Source/stream_buffer.c **** 
 205:Middlewares/Third_Party/FreeRTOS/Source/stream_buffer.c **** /*
 206:Middlewares/Third_Party/FreeRTOS/Source/stream_buffer.c ****  * Called by both pxStreamBufferCreate() and pxStreamBufferCreateStatic() to
 207:Middlewares/Third_Party/FreeRTOS/Source/stream_buffer.c ****  * initialise the members of the newly created stream buffer structure.
 208:Middlewares/Third_Party/FreeRTOS/Source/stream_buffer.c ****  */
 209:Middlewares/Third_Party/FreeRTOS/Source/stream_buffer.c **** static void prvInitialiseNewStreamBuffer( StreamBuffer_t * const pxStreamBuffer,
 210:Middlewares/Third_Party/FreeRTOS/Source/stream_buffer.c **** 										  uint8_t * const pucBuffer,
 211:Middlewares/Third_Party/FreeRTOS/Source/stream_buffer.c **** 										  size_t xBufferSizeBytes,
 212:Middlewares/Third_Party/FreeRTOS/Source/stream_buffer.c **** 										  size_t xTriggerLevelBytes,
 213:Middlewares/Third_Party/FreeRTOS/Source/stream_buffer.c **** 										  uint8_t ucFlags ) PRIVILEGED_FUNCTION;
 214:Middlewares/Third_Party/FreeRTOS/Source/stream_buffer.c **** 
 215:Middlewares/Third_Party/FreeRTOS/Source/stream_buffer.c **** /*-----------------------------------------------------------*/
 216:Middlewares/Third_Party/FreeRTOS/Source/stream_buffer.c **** 
 217:Middlewares/Third_Party/FreeRTOS/Source/stream_buffer.c **** #if( configSUPPORT_DYNAMIC_ALLOCATION == 1 )
 218:Middlewares/Third_Party/FreeRTOS/Source/stream_buffer.c **** 
 219:Middlewares/Third_Party/FreeRTOS/Source/stream_buffer.c **** 	StreamBufferHandle_t xStreamBufferGenericCreate( size_t xBufferSizeBytes, size_t xTriggerLevelByte
 220:Middlewares/Third_Party/FreeRTOS/Source/stream_buffer.c **** 	{
  29              		.loc 1 220 2
  30              		.cfi_startproc
  31              		@ args = 0, pretend = 0, frame = 40
  32              		@ frame_needed = 1, uses_anonymous_args = 0
  33 0000 80B5     		push	{r7, lr}
  34              		.cfi_def_cfa_offset 8
  35              		.cfi_offset 7, -8
  36              		.cfi_offset 14, -4
  37 0002 8CB0     		sub	sp, sp, #48
  38              		.cfi_def_cfa_offset 56
  39 0004 02AF     		add	r7, sp, #8
  40              		.cfi_def_cfa 7, 48
  41 0006 F860     		str	r0, [r7, #12]
  42 0008 B960     		str	r1, [r7, #8]
  43 000a 7A60     		str	r2, [r7, #4]
 221:Middlewares/Third_Party/FreeRTOS/Source/stream_buffer.c **** 	uint8_t *pucAllocatedMemory;
 222:Middlewares/Third_Party/FreeRTOS/Source/stream_buffer.c **** 	uint8_t ucFlags;
 223:Middlewares/Third_Party/FreeRTOS/Source/stream_buffer.c **** 
 224:Middlewares/Third_Party/FreeRTOS/Source/stream_buffer.c **** 		/* In case the stream buffer is going to be used as a message buffer
 225:Middlewares/Third_Party/FreeRTOS/Source/stream_buffer.c **** 		(that is, it will hold discrete messages with a little meta data that
 226:Middlewares/Third_Party/FreeRTOS/Source/stream_buffer.c **** 		says how big the next message is) check the buffer will be large enough
 227:Middlewares/Third_Party/FreeRTOS/Source/stream_buffer.c **** 		to hold at least one message. */
 228:Middlewares/Third_Party/FreeRTOS/Source/stream_buffer.c **** 		if( xIsMessageBuffer == pdTRUE )
  44              		.loc 1 228 5
  45 000c 7B68     		ldr	r3, [r7, #4]
  46 000e 012B     		cmp	r3, #1
  47 0010 11D1     		bne	.L2
 229:Middlewares/Third_Party/FreeRTOS/Source/stream_buffer.c **** 		{
 230:Middlewares/Third_Party/FreeRTOS/Source/stream_buffer.c **** 			/* Is a message buffer but not statically allocated. */
 231:Middlewares/Third_Party/FreeRTOS/Source/stream_buffer.c **** 			ucFlags = sbFLAGS_IS_MESSAGE_BUFFER;
  48              		.loc 1 231 12
  49 0012 0123     		movs	r3, #1
  50 0014 87F82730 		strb	r3, [r7, #39]
 232:Middlewares/Third_Party/FreeRTOS/Source/stream_buffer.c **** 			configASSERT( xBufferSizeBytes > sbBYTES_TO_STORE_MESSAGE_LENGTH );
  51              		.loc 1 232 4
  52 0018 FB68     		ldr	r3, [r7, #12]
  53 001a 042B     		cmp	r3, #4
  54 001c 1DD8     		bhi	.L3
ARM GAS  C:\Users\Halil\AppData\Local\Temp\ccdYOoXG.s 			page 6


  55              	.LBB96:
  56              	.LBB97:
  57              		.file 2 "Middlewares/Third_Party/FreeRTOS/Source/portable/GCC/ARM_CM4F/portmacro.h"
   1:Middlewares/Third_Party/FreeRTOS/Source/portable/GCC/ARM_CM4F/portmacro.h **** /*
   2:Middlewares/Third_Party/FreeRTOS/Source/portable/GCC/ARM_CM4F/portmacro.h ****  * FreeRTOS Kernel V10.3.1
   3:Middlewares/Third_Party/FreeRTOS/Source/portable/GCC/ARM_CM4F/portmacro.h ****  * Copyright (C) 2020 Amazon.com, Inc. or its affiliates.  All Rights Reserved.
   4:Middlewares/Third_Party/FreeRTOS/Source/portable/GCC/ARM_CM4F/portmacro.h ****  *
   5:Middlewares/Third_Party/FreeRTOS/Source/portable/GCC/ARM_CM4F/portmacro.h ****  * Permission is hereby granted, free of charge, to any person obtaining a copy of
   6:Middlewares/Third_Party/FreeRTOS/Source/portable/GCC/ARM_CM4F/portmacro.h ****  * this software and associated documentation files (the "Software"), to deal in
   7:Middlewares/Third_Party/FreeRTOS/Source/portable/GCC/ARM_CM4F/portmacro.h ****  * the Software without restriction, including without limitation the rights to
   8:Middlewares/Third_Party/FreeRTOS/Source/portable/GCC/ARM_CM4F/portmacro.h ****  * use, copy, modify, merge, publish, distribute, sublicense, and/or sell copies of
   9:Middlewares/Third_Party/FreeRTOS/Source/portable/GCC/ARM_CM4F/portmacro.h ****  * the Software, and to permit persons to whom the Software is furnished to do so,
  10:Middlewares/Third_Party/FreeRTOS/Source/portable/GCC/ARM_CM4F/portmacro.h ****  * subject to the following conditions:
  11:Middlewares/Third_Party/FreeRTOS/Source/portable/GCC/ARM_CM4F/portmacro.h ****  *
  12:Middlewares/Third_Party/FreeRTOS/Source/portable/GCC/ARM_CM4F/portmacro.h ****  * The above copyright notice and this permission notice shall be included in all
  13:Middlewares/Third_Party/FreeRTOS/Source/portable/GCC/ARM_CM4F/portmacro.h ****  * copies or substantial portions of the Software.
  14:Middlewares/Third_Party/FreeRTOS/Source/portable/GCC/ARM_CM4F/portmacro.h ****  *
  15:Middlewares/Third_Party/FreeRTOS/Source/portable/GCC/ARM_CM4F/portmacro.h ****  * THE SOFTWARE IS PROVIDED "AS IS", WITHOUT WARRANTY OF ANY KIND, EXPRESS OR
  16:Middlewares/Third_Party/FreeRTOS/Source/portable/GCC/ARM_CM4F/portmacro.h ****  * IMPLIED, INCLUDING BUT NOT LIMITED TO THE WARRANTIES OF MERCHANTABILITY, FITNESS
  17:Middlewares/Third_Party/FreeRTOS/Source/portable/GCC/ARM_CM4F/portmacro.h ****  * FOR A PARTICULAR PURPOSE AND NONINFRINGEMENT. IN NO EVENT SHALL THE AUTHORS OR
  18:Middlewares/Third_Party/FreeRTOS/Source/portable/GCC/ARM_CM4F/portmacro.h ****  * COPYRIGHT HOLDERS BE LIABLE FOR ANY CLAIM, DAMAGES OR OTHER LIABILITY, WHETHER
  19:Middlewares/Third_Party/FreeRTOS/Source/portable/GCC/ARM_CM4F/portmacro.h ****  * IN AN ACTION OF CONTRACT, TORT OR OTHERWISE, ARISING FROM, OUT OF OR IN
  20:Middlewares/Third_Party/FreeRTOS/Source/portable/GCC/ARM_CM4F/portmacro.h ****  * CONNECTION WITH THE SOFTWARE OR THE USE OR OTHER DEALINGS IN THE SOFTWARE.
  21:Middlewares/Third_Party/FreeRTOS/Source/portable/GCC/ARM_CM4F/portmacro.h ****  *
  22:Middlewares/Third_Party/FreeRTOS/Source/portable/GCC/ARM_CM4F/portmacro.h ****  * http://www.FreeRTOS.org
  23:Middlewares/Third_Party/FreeRTOS/Source/portable/GCC/ARM_CM4F/portmacro.h ****  * http://aws.amazon.com/freertos
  24:Middlewares/Third_Party/FreeRTOS/Source/portable/GCC/ARM_CM4F/portmacro.h ****  *
  25:Middlewares/Third_Party/FreeRTOS/Source/portable/GCC/ARM_CM4F/portmacro.h ****  * 1 tab == 4 spaces!
  26:Middlewares/Third_Party/FreeRTOS/Source/portable/GCC/ARM_CM4F/portmacro.h ****  */
  27:Middlewares/Third_Party/FreeRTOS/Source/portable/GCC/ARM_CM4F/portmacro.h **** 
  28:Middlewares/Third_Party/FreeRTOS/Source/portable/GCC/ARM_CM4F/portmacro.h **** 
  29:Middlewares/Third_Party/FreeRTOS/Source/portable/GCC/ARM_CM4F/portmacro.h **** #ifndef PORTMACRO_H
  30:Middlewares/Third_Party/FreeRTOS/Source/portable/GCC/ARM_CM4F/portmacro.h **** #define PORTMACRO_H
  31:Middlewares/Third_Party/FreeRTOS/Source/portable/GCC/ARM_CM4F/portmacro.h **** 
  32:Middlewares/Third_Party/FreeRTOS/Source/portable/GCC/ARM_CM4F/portmacro.h **** #ifdef __cplusplus
  33:Middlewares/Third_Party/FreeRTOS/Source/portable/GCC/ARM_CM4F/portmacro.h **** extern "C" {
  34:Middlewares/Third_Party/FreeRTOS/Source/portable/GCC/ARM_CM4F/portmacro.h **** #endif
  35:Middlewares/Third_Party/FreeRTOS/Source/portable/GCC/ARM_CM4F/portmacro.h **** 
  36:Middlewares/Third_Party/FreeRTOS/Source/portable/GCC/ARM_CM4F/portmacro.h **** /*-----------------------------------------------------------
  37:Middlewares/Third_Party/FreeRTOS/Source/portable/GCC/ARM_CM4F/portmacro.h ****  * Port specific definitions.
  38:Middlewares/Third_Party/FreeRTOS/Source/portable/GCC/ARM_CM4F/portmacro.h ****  *
  39:Middlewares/Third_Party/FreeRTOS/Source/portable/GCC/ARM_CM4F/portmacro.h ****  * The settings in this file configure FreeRTOS correctly for the
  40:Middlewares/Third_Party/FreeRTOS/Source/portable/GCC/ARM_CM4F/portmacro.h ****  * given hardware and compiler.
  41:Middlewares/Third_Party/FreeRTOS/Source/portable/GCC/ARM_CM4F/portmacro.h ****  *
  42:Middlewares/Third_Party/FreeRTOS/Source/portable/GCC/ARM_CM4F/portmacro.h ****  * These settings should not be altered.
  43:Middlewares/Third_Party/FreeRTOS/Source/portable/GCC/ARM_CM4F/portmacro.h ****  *-----------------------------------------------------------
  44:Middlewares/Third_Party/FreeRTOS/Source/portable/GCC/ARM_CM4F/portmacro.h ****  */
  45:Middlewares/Third_Party/FreeRTOS/Source/portable/GCC/ARM_CM4F/portmacro.h **** 
  46:Middlewares/Third_Party/FreeRTOS/Source/portable/GCC/ARM_CM4F/portmacro.h **** /* Type definitions. */
  47:Middlewares/Third_Party/FreeRTOS/Source/portable/GCC/ARM_CM4F/portmacro.h **** #define portCHAR		char
  48:Middlewares/Third_Party/FreeRTOS/Source/portable/GCC/ARM_CM4F/portmacro.h **** #define portFLOAT		float
  49:Middlewares/Third_Party/FreeRTOS/Source/portable/GCC/ARM_CM4F/portmacro.h **** #define portDOUBLE		double
  50:Middlewares/Third_Party/FreeRTOS/Source/portable/GCC/ARM_CM4F/portmacro.h **** #define portLONG		long
  51:Middlewares/Third_Party/FreeRTOS/Source/portable/GCC/ARM_CM4F/portmacro.h **** #define portSHORT		short
  52:Middlewares/Third_Party/FreeRTOS/Source/portable/GCC/ARM_CM4F/portmacro.h **** #define portSTACK_TYPE	uint32_t
  53:Middlewares/Third_Party/FreeRTOS/Source/portable/GCC/ARM_CM4F/portmacro.h **** #define portBASE_TYPE	long
  54:Middlewares/Third_Party/FreeRTOS/Source/portable/GCC/ARM_CM4F/portmacro.h **** 
ARM GAS  C:\Users\Halil\AppData\Local\Temp\ccdYOoXG.s 			page 7


  55:Middlewares/Third_Party/FreeRTOS/Source/portable/GCC/ARM_CM4F/portmacro.h **** typedef portSTACK_TYPE StackType_t;
  56:Middlewares/Third_Party/FreeRTOS/Source/portable/GCC/ARM_CM4F/portmacro.h **** typedef long BaseType_t;
  57:Middlewares/Third_Party/FreeRTOS/Source/portable/GCC/ARM_CM4F/portmacro.h **** typedef unsigned long UBaseType_t;
  58:Middlewares/Third_Party/FreeRTOS/Source/portable/GCC/ARM_CM4F/portmacro.h **** 
  59:Middlewares/Third_Party/FreeRTOS/Source/portable/GCC/ARM_CM4F/portmacro.h **** #if( configUSE_16_BIT_TICKS == 1 )
  60:Middlewares/Third_Party/FreeRTOS/Source/portable/GCC/ARM_CM4F/portmacro.h **** 	typedef uint16_t TickType_t;
  61:Middlewares/Third_Party/FreeRTOS/Source/portable/GCC/ARM_CM4F/portmacro.h **** 	#define portMAX_DELAY ( TickType_t ) 0xffff
  62:Middlewares/Third_Party/FreeRTOS/Source/portable/GCC/ARM_CM4F/portmacro.h **** #else
  63:Middlewares/Third_Party/FreeRTOS/Source/portable/GCC/ARM_CM4F/portmacro.h **** 	typedef uint32_t TickType_t;
  64:Middlewares/Third_Party/FreeRTOS/Source/portable/GCC/ARM_CM4F/portmacro.h **** 	#define portMAX_DELAY ( TickType_t ) 0xffffffffUL
  65:Middlewares/Third_Party/FreeRTOS/Source/portable/GCC/ARM_CM4F/portmacro.h **** 
  66:Middlewares/Third_Party/FreeRTOS/Source/portable/GCC/ARM_CM4F/portmacro.h **** 	/* 32-bit tick type on a 32-bit architecture, so reads of the tick count do
  67:Middlewares/Third_Party/FreeRTOS/Source/portable/GCC/ARM_CM4F/portmacro.h **** 	not need to be guarded with a critical section. */
  68:Middlewares/Third_Party/FreeRTOS/Source/portable/GCC/ARM_CM4F/portmacro.h **** 	#define portTICK_TYPE_IS_ATOMIC 1
  69:Middlewares/Third_Party/FreeRTOS/Source/portable/GCC/ARM_CM4F/portmacro.h **** #endif
  70:Middlewares/Third_Party/FreeRTOS/Source/portable/GCC/ARM_CM4F/portmacro.h **** /*-----------------------------------------------------------*/
  71:Middlewares/Third_Party/FreeRTOS/Source/portable/GCC/ARM_CM4F/portmacro.h **** 
  72:Middlewares/Third_Party/FreeRTOS/Source/portable/GCC/ARM_CM4F/portmacro.h **** /* Architecture specifics. */
  73:Middlewares/Third_Party/FreeRTOS/Source/portable/GCC/ARM_CM4F/portmacro.h **** #define portSTACK_GROWTH			( -1 )
  74:Middlewares/Third_Party/FreeRTOS/Source/portable/GCC/ARM_CM4F/portmacro.h **** #define portTICK_PERIOD_MS			( ( TickType_t ) 1000 / configTICK_RATE_HZ )
  75:Middlewares/Third_Party/FreeRTOS/Source/portable/GCC/ARM_CM4F/portmacro.h **** #define portBYTE_ALIGNMENT			8
  76:Middlewares/Third_Party/FreeRTOS/Source/portable/GCC/ARM_CM4F/portmacro.h **** /*-----------------------------------------------------------*/
  77:Middlewares/Third_Party/FreeRTOS/Source/portable/GCC/ARM_CM4F/portmacro.h **** 
  78:Middlewares/Third_Party/FreeRTOS/Source/portable/GCC/ARM_CM4F/portmacro.h **** /* Scheduler utilities. */
  79:Middlewares/Third_Party/FreeRTOS/Source/portable/GCC/ARM_CM4F/portmacro.h **** #define portYIELD() 															\
  80:Middlewares/Third_Party/FreeRTOS/Source/portable/GCC/ARM_CM4F/portmacro.h **** {																				\
  81:Middlewares/Third_Party/FreeRTOS/Source/portable/GCC/ARM_CM4F/portmacro.h **** 	/* Set a PendSV to request a context switch. */								\
  82:Middlewares/Third_Party/FreeRTOS/Source/portable/GCC/ARM_CM4F/portmacro.h **** 	portNVIC_INT_CTRL_REG = portNVIC_PENDSVSET_BIT;								\
  83:Middlewares/Third_Party/FreeRTOS/Source/portable/GCC/ARM_CM4F/portmacro.h **** 																				\
  84:Middlewares/Third_Party/FreeRTOS/Source/portable/GCC/ARM_CM4F/portmacro.h **** 	/* Barriers are normally not required but do ensure the code is completely	\
  85:Middlewares/Third_Party/FreeRTOS/Source/portable/GCC/ARM_CM4F/portmacro.h **** 	within the specified behaviour for the architecture. */						\
  86:Middlewares/Third_Party/FreeRTOS/Source/portable/GCC/ARM_CM4F/portmacro.h **** 	__asm volatile( "dsb" ::: "memory" );										\
  87:Middlewares/Third_Party/FreeRTOS/Source/portable/GCC/ARM_CM4F/portmacro.h **** 	__asm volatile( "isb" );													\
  88:Middlewares/Third_Party/FreeRTOS/Source/portable/GCC/ARM_CM4F/portmacro.h **** }
  89:Middlewares/Third_Party/FreeRTOS/Source/portable/GCC/ARM_CM4F/portmacro.h **** 
  90:Middlewares/Third_Party/FreeRTOS/Source/portable/GCC/ARM_CM4F/portmacro.h **** #define portNVIC_INT_CTRL_REG		( * ( ( volatile uint32_t * ) 0xe000ed04 ) )
  91:Middlewares/Third_Party/FreeRTOS/Source/portable/GCC/ARM_CM4F/portmacro.h **** #define portNVIC_PENDSVSET_BIT		( 1UL << 28UL )
  92:Middlewares/Third_Party/FreeRTOS/Source/portable/GCC/ARM_CM4F/portmacro.h **** #define portEND_SWITCHING_ISR( xSwitchRequired ) if( xSwitchRequired != pdFALSE ) portYIELD()
  93:Middlewares/Third_Party/FreeRTOS/Source/portable/GCC/ARM_CM4F/portmacro.h **** #define portYIELD_FROM_ISR( x ) portEND_SWITCHING_ISR( x )
  94:Middlewares/Third_Party/FreeRTOS/Source/portable/GCC/ARM_CM4F/portmacro.h **** /*-----------------------------------------------------------*/
  95:Middlewares/Third_Party/FreeRTOS/Source/portable/GCC/ARM_CM4F/portmacro.h **** 
  96:Middlewares/Third_Party/FreeRTOS/Source/portable/GCC/ARM_CM4F/portmacro.h **** /* Critical section management. */
  97:Middlewares/Third_Party/FreeRTOS/Source/portable/GCC/ARM_CM4F/portmacro.h **** extern void vPortEnterCritical( void );
  98:Middlewares/Third_Party/FreeRTOS/Source/portable/GCC/ARM_CM4F/portmacro.h **** extern void vPortExitCritical( void );
  99:Middlewares/Third_Party/FreeRTOS/Source/portable/GCC/ARM_CM4F/portmacro.h **** #define portSET_INTERRUPT_MASK_FROM_ISR()		ulPortRaiseBASEPRI()
 100:Middlewares/Third_Party/FreeRTOS/Source/portable/GCC/ARM_CM4F/portmacro.h **** #define portCLEAR_INTERRUPT_MASK_FROM_ISR(x)	vPortSetBASEPRI(x)
 101:Middlewares/Third_Party/FreeRTOS/Source/portable/GCC/ARM_CM4F/portmacro.h **** #define portDISABLE_INTERRUPTS()				vPortRaiseBASEPRI()
 102:Middlewares/Third_Party/FreeRTOS/Source/portable/GCC/ARM_CM4F/portmacro.h **** #define portENABLE_INTERRUPTS()					vPortSetBASEPRI(0)
 103:Middlewares/Third_Party/FreeRTOS/Source/portable/GCC/ARM_CM4F/portmacro.h **** #define portENTER_CRITICAL()					vPortEnterCritical()
 104:Middlewares/Third_Party/FreeRTOS/Source/portable/GCC/ARM_CM4F/portmacro.h **** #define portEXIT_CRITICAL()						vPortExitCritical()
 105:Middlewares/Third_Party/FreeRTOS/Source/portable/GCC/ARM_CM4F/portmacro.h **** 
 106:Middlewares/Third_Party/FreeRTOS/Source/portable/GCC/ARM_CM4F/portmacro.h **** /*-----------------------------------------------------------*/
 107:Middlewares/Third_Party/FreeRTOS/Source/portable/GCC/ARM_CM4F/portmacro.h **** 
 108:Middlewares/Third_Party/FreeRTOS/Source/portable/GCC/ARM_CM4F/portmacro.h **** /* Task function macros as described on the FreeRTOS.org WEB site.  These are
 109:Middlewares/Third_Party/FreeRTOS/Source/portable/GCC/ARM_CM4F/portmacro.h **** not necessary for to use this port.  They are defined so the common demo files
 110:Middlewares/Third_Party/FreeRTOS/Source/portable/GCC/ARM_CM4F/portmacro.h **** (which build with all the ports) will build. */
 111:Middlewares/Third_Party/FreeRTOS/Source/portable/GCC/ARM_CM4F/portmacro.h **** #define portTASK_FUNCTION_PROTO( vFunction, pvParameters ) void vFunction( void *pvParameters )
ARM GAS  C:\Users\Halil\AppData\Local\Temp\ccdYOoXG.s 			page 8


 112:Middlewares/Third_Party/FreeRTOS/Source/portable/GCC/ARM_CM4F/portmacro.h **** #define portTASK_FUNCTION( vFunction, pvParameters ) void vFunction( void *pvParameters )
 113:Middlewares/Third_Party/FreeRTOS/Source/portable/GCC/ARM_CM4F/portmacro.h **** /*-----------------------------------------------------------*/
 114:Middlewares/Third_Party/FreeRTOS/Source/portable/GCC/ARM_CM4F/portmacro.h **** 
 115:Middlewares/Third_Party/FreeRTOS/Source/portable/GCC/ARM_CM4F/portmacro.h **** /* Tickless idle/low power functionality. */
 116:Middlewares/Third_Party/FreeRTOS/Source/portable/GCC/ARM_CM4F/portmacro.h **** #ifndef portSUPPRESS_TICKS_AND_SLEEP
 117:Middlewares/Third_Party/FreeRTOS/Source/portable/GCC/ARM_CM4F/portmacro.h **** 	extern void vPortSuppressTicksAndSleep( TickType_t xExpectedIdleTime );
 118:Middlewares/Third_Party/FreeRTOS/Source/portable/GCC/ARM_CM4F/portmacro.h **** 	#define portSUPPRESS_TICKS_AND_SLEEP( xExpectedIdleTime ) vPortSuppressTicksAndSleep( xExpectedIdl
 119:Middlewares/Third_Party/FreeRTOS/Source/portable/GCC/ARM_CM4F/portmacro.h **** #endif
 120:Middlewares/Third_Party/FreeRTOS/Source/portable/GCC/ARM_CM4F/portmacro.h **** /*-----------------------------------------------------------*/
 121:Middlewares/Third_Party/FreeRTOS/Source/portable/GCC/ARM_CM4F/portmacro.h **** 
 122:Middlewares/Third_Party/FreeRTOS/Source/portable/GCC/ARM_CM4F/portmacro.h **** /* Architecture specific optimisations. */
 123:Middlewares/Third_Party/FreeRTOS/Source/portable/GCC/ARM_CM4F/portmacro.h **** #ifndef configUSE_PORT_OPTIMISED_TASK_SELECTION
 124:Middlewares/Third_Party/FreeRTOS/Source/portable/GCC/ARM_CM4F/portmacro.h **** 	#define configUSE_PORT_OPTIMISED_TASK_SELECTION 1
 125:Middlewares/Third_Party/FreeRTOS/Source/portable/GCC/ARM_CM4F/portmacro.h **** #endif
 126:Middlewares/Third_Party/FreeRTOS/Source/portable/GCC/ARM_CM4F/portmacro.h **** 
 127:Middlewares/Third_Party/FreeRTOS/Source/portable/GCC/ARM_CM4F/portmacro.h **** #if configUSE_PORT_OPTIMISED_TASK_SELECTION == 1
 128:Middlewares/Third_Party/FreeRTOS/Source/portable/GCC/ARM_CM4F/portmacro.h **** 
 129:Middlewares/Third_Party/FreeRTOS/Source/portable/GCC/ARM_CM4F/portmacro.h **** 	/* Generic helper function. */
 130:Middlewares/Third_Party/FreeRTOS/Source/portable/GCC/ARM_CM4F/portmacro.h **** 	__attribute__( ( always_inline ) ) static inline uint8_t ucPortCountLeadingZeros( uint32_t ulBitma
 131:Middlewares/Third_Party/FreeRTOS/Source/portable/GCC/ARM_CM4F/portmacro.h **** 	{
 132:Middlewares/Third_Party/FreeRTOS/Source/portable/GCC/ARM_CM4F/portmacro.h **** 	uint8_t ucReturn;
 133:Middlewares/Third_Party/FreeRTOS/Source/portable/GCC/ARM_CM4F/portmacro.h **** 
 134:Middlewares/Third_Party/FreeRTOS/Source/portable/GCC/ARM_CM4F/portmacro.h **** 		__asm volatile ( "clz %0, %1" : "=r" ( ucReturn ) : "r" ( ulBitmap ) : "memory" );
 135:Middlewares/Third_Party/FreeRTOS/Source/portable/GCC/ARM_CM4F/portmacro.h **** 		return ucReturn;
 136:Middlewares/Third_Party/FreeRTOS/Source/portable/GCC/ARM_CM4F/portmacro.h **** 	}
 137:Middlewares/Third_Party/FreeRTOS/Source/portable/GCC/ARM_CM4F/portmacro.h **** 
 138:Middlewares/Third_Party/FreeRTOS/Source/portable/GCC/ARM_CM4F/portmacro.h **** 	/* Check the configuration. */
 139:Middlewares/Third_Party/FreeRTOS/Source/portable/GCC/ARM_CM4F/portmacro.h **** 	#if( configMAX_PRIORITIES > 32 )
 140:Middlewares/Third_Party/FreeRTOS/Source/portable/GCC/ARM_CM4F/portmacro.h **** 		#error configUSE_PORT_OPTIMISED_TASK_SELECTION can only be set to 1 when configMAX_PRIORITIES is 
 141:Middlewares/Third_Party/FreeRTOS/Source/portable/GCC/ARM_CM4F/portmacro.h **** 	#endif
 142:Middlewares/Third_Party/FreeRTOS/Source/portable/GCC/ARM_CM4F/portmacro.h **** 
 143:Middlewares/Third_Party/FreeRTOS/Source/portable/GCC/ARM_CM4F/portmacro.h **** 	/* Store/clear the ready priorities in a bit map. */
 144:Middlewares/Third_Party/FreeRTOS/Source/portable/GCC/ARM_CM4F/portmacro.h **** 	#define portRECORD_READY_PRIORITY( uxPriority, uxReadyPriorities ) ( uxReadyPriorities ) |= ( 1UL 
 145:Middlewares/Third_Party/FreeRTOS/Source/portable/GCC/ARM_CM4F/portmacro.h **** 	#define portRESET_READY_PRIORITY( uxPriority, uxReadyPriorities ) ( uxReadyPriorities ) &= ~( 1UL 
 146:Middlewares/Third_Party/FreeRTOS/Source/portable/GCC/ARM_CM4F/portmacro.h **** 
 147:Middlewares/Third_Party/FreeRTOS/Source/portable/GCC/ARM_CM4F/portmacro.h **** 	/*-----------------------------------------------------------*/
 148:Middlewares/Third_Party/FreeRTOS/Source/portable/GCC/ARM_CM4F/portmacro.h **** 
 149:Middlewares/Third_Party/FreeRTOS/Source/portable/GCC/ARM_CM4F/portmacro.h **** 	#define portGET_HIGHEST_PRIORITY( uxTopPriority, uxReadyPriorities ) uxTopPriority = ( 31UL - ( ui
 150:Middlewares/Third_Party/FreeRTOS/Source/portable/GCC/ARM_CM4F/portmacro.h **** 
 151:Middlewares/Third_Party/FreeRTOS/Source/portable/GCC/ARM_CM4F/portmacro.h **** #endif /* configUSE_PORT_OPTIMISED_TASK_SELECTION */
 152:Middlewares/Third_Party/FreeRTOS/Source/portable/GCC/ARM_CM4F/portmacro.h **** 
 153:Middlewares/Third_Party/FreeRTOS/Source/portable/GCC/ARM_CM4F/portmacro.h **** /*-----------------------------------------------------------*/
 154:Middlewares/Third_Party/FreeRTOS/Source/portable/GCC/ARM_CM4F/portmacro.h **** 
 155:Middlewares/Third_Party/FreeRTOS/Source/portable/GCC/ARM_CM4F/portmacro.h **** #ifdef configASSERT
 156:Middlewares/Third_Party/FreeRTOS/Source/portable/GCC/ARM_CM4F/portmacro.h **** 	void vPortValidateInterruptPriority( void );
 157:Middlewares/Third_Party/FreeRTOS/Source/portable/GCC/ARM_CM4F/portmacro.h **** 	#define portASSERT_IF_INTERRUPT_PRIORITY_INVALID() 	vPortValidateInterruptPriority()
 158:Middlewares/Third_Party/FreeRTOS/Source/portable/GCC/ARM_CM4F/portmacro.h **** #endif
 159:Middlewares/Third_Party/FreeRTOS/Source/portable/GCC/ARM_CM4F/portmacro.h **** 
 160:Middlewares/Third_Party/FreeRTOS/Source/portable/GCC/ARM_CM4F/portmacro.h **** /* portNOP() is not required by this port. */
 161:Middlewares/Third_Party/FreeRTOS/Source/portable/GCC/ARM_CM4F/portmacro.h **** #define portNOP()
 162:Middlewares/Third_Party/FreeRTOS/Source/portable/GCC/ARM_CM4F/portmacro.h **** 
 163:Middlewares/Third_Party/FreeRTOS/Source/portable/GCC/ARM_CM4F/portmacro.h **** #define portINLINE	__inline
 164:Middlewares/Third_Party/FreeRTOS/Source/portable/GCC/ARM_CM4F/portmacro.h **** 
 165:Middlewares/Third_Party/FreeRTOS/Source/portable/GCC/ARM_CM4F/portmacro.h **** #ifndef portFORCE_INLINE
 166:Middlewares/Third_Party/FreeRTOS/Source/portable/GCC/ARM_CM4F/portmacro.h **** 	#define portFORCE_INLINE inline __attribute__(( always_inline))
 167:Middlewares/Third_Party/FreeRTOS/Source/portable/GCC/ARM_CM4F/portmacro.h **** #endif
 168:Middlewares/Third_Party/FreeRTOS/Source/portable/GCC/ARM_CM4F/portmacro.h **** 
ARM GAS  C:\Users\Halil\AppData\Local\Temp\ccdYOoXG.s 			page 9


 169:Middlewares/Third_Party/FreeRTOS/Source/portable/GCC/ARM_CM4F/portmacro.h **** portFORCE_INLINE static BaseType_t xPortIsInsideInterrupt( void )
 170:Middlewares/Third_Party/FreeRTOS/Source/portable/GCC/ARM_CM4F/portmacro.h **** {
 171:Middlewares/Third_Party/FreeRTOS/Source/portable/GCC/ARM_CM4F/portmacro.h **** uint32_t ulCurrentInterrupt;
 172:Middlewares/Third_Party/FreeRTOS/Source/portable/GCC/ARM_CM4F/portmacro.h **** BaseType_t xReturn;
 173:Middlewares/Third_Party/FreeRTOS/Source/portable/GCC/ARM_CM4F/portmacro.h **** 
 174:Middlewares/Third_Party/FreeRTOS/Source/portable/GCC/ARM_CM4F/portmacro.h **** 	/* Obtain the number of the currently executing interrupt. */
 175:Middlewares/Third_Party/FreeRTOS/Source/portable/GCC/ARM_CM4F/portmacro.h **** 	__asm volatile( "mrs %0, ipsr" : "=r"( ulCurrentInterrupt ) :: "memory" );
 176:Middlewares/Third_Party/FreeRTOS/Source/portable/GCC/ARM_CM4F/portmacro.h **** 
 177:Middlewares/Third_Party/FreeRTOS/Source/portable/GCC/ARM_CM4F/portmacro.h **** 	if( ulCurrentInterrupt == 0 )
 178:Middlewares/Third_Party/FreeRTOS/Source/portable/GCC/ARM_CM4F/portmacro.h **** 	{
 179:Middlewares/Third_Party/FreeRTOS/Source/portable/GCC/ARM_CM4F/portmacro.h **** 		xReturn = pdFALSE;
 180:Middlewares/Third_Party/FreeRTOS/Source/portable/GCC/ARM_CM4F/portmacro.h **** 	}
 181:Middlewares/Third_Party/FreeRTOS/Source/portable/GCC/ARM_CM4F/portmacro.h **** 	else
 182:Middlewares/Third_Party/FreeRTOS/Source/portable/GCC/ARM_CM4F/portmacro.h **** 	{
 183:Middlewares/Third_Party/FreeRTOS/Source/portable/GCC/ARM_CM4F/portmacro.h **** 		xReturn = pdTRUE;
 184:Middlewares/Third_Party/FreeRTOS/Source/portable/GCC/ARM_CM4F/portmacro.h **** 	}
 185:Middlewares/Third_Party/FreeRTOS/Source/portable/GCC/ARM_CM4F/portmacro.h **** 
 186:Middlewares/Third_Party/FreeRTOS/Source/portable/GCC/ARM_CM4F/portmacro.h **** 	return xReturn;
 187:Middlewares/Third_Party/FreeRTOS/Source/portable/GCC/ARM_CM4F/portmacro.h **** }
 188:Middlewares/Third_Party/FreeRTOS/Source/portable/GCC/ARM_CM4F/portmacro.h **** 
 189:Middlewares/Third_Party/FreeRTOS/Source/portable/GCC/ARM_CM4F/portmacro.h **** /*-----------------------------------------------------------*/
 190:Middlewares/Third_Party/FreeRTOS/Source/portable/GCC/ARM_CM4F/portmacro.h **** 
 191:Middlewares/Third_Party/FreeRTOS/Source/portable/GCC/ARM_CM4F/portmacro.h **** portFORCE_INLINE static void vPortRaiseBASEPRI( void )
 192:Middlewares/Third_Party/FreeRTOS/Source/portable/GCC/ARM_CM4F/portmacro.h **** {
 193:Middlewares/Third_Party/FreeRTOS/Source/portable/GCC/ARM_CM4F/portmacro.h **** uint32_t ulNewBASEPRI;
 194:Middlewares/Third_Party/FreeRTOS/Source/portable/GCC/ARM_CM4F/portmacro.h **** 
 195:Middlewares/Third_Party/FreeRTOS/Source/portable/GCC/ARM_CM4F/portmacro.h **** 	__asm volatile
  58              		.loc 2 195 2
  59              		.syntax unified
  60              	@ 195 "Middlewares/Third_Party/FreeRTOS/Source/portable/GCC/ARM_CM4F/portmacro.h" 1
  61 001e 4FF05003 			mov r3, #80												
  62 0022 83F31188 		msr basepri, r3											
  63 0026 BFF36F8F 		isb														
  64 002a BFF34F8F 		dsb														
  65              	
  66              	@ 0 "" 2
  67              		.thumb
  68              		.syntax unified
  69 002e FB61     		str	r3, [r7, #28]
 196:Middlewares/Third_Party/FreeRTOS/Source/portable/GCC/ARM_CM4F/portmacro.h **** 	(
 197:Middlewares/Third_Party/FreeRTOS/Source/portable/GCC/ARM_CM4F/portmacro.h **** 		"	mov %0, %1												\n"	\
 198:Middlewares/Third_Party/FreeRTOS/Source/portable/GCC/ARM_CM4F/portmacro.h **** 		"	msr basepri, %0											\n" \
 199:Middlewares/Third_Party/FreeRTOS/Source/portable/GCC/ARM_CM4F/portmacro.h **** 		"	isb														\n" \
 200:Middlewares/Third_Party/FreeRTOS/Source/portable/GCC/ARM_CM4F/portmacro.h **** 		"	dsb														\n" \
 201:Middlewares/Third_Party/FreeRTOS/Source/portable/GCC/ARM_CM4F/portmacro.h **** 		:"=r" (ulNewBASEPRI) : "i" ( configMAX_SYSCALL_INTERRUPT_PRIORITY ) : "memory"
 202:Middlewares/Third_Party/FreeRTOS/Source/portable/GCC/ARM_CM4F/portmacro.h **** 	);
 203:Middlewares/Third_Party/FreeRTOS/Source/portable/GCC/ARM_CM4F/portmacro.h **** }
  70              		.loc 2 203 1
  71 0030 00BF     		nop
  72              	.L4:
  73              	.LBE97:
  74              	.LBE96:
  75              		.loc 1 232 4 discriminator 1
  76 0032 00BF     		nop
  77 0034 FDE7     		b	.L4
  78              	.L2:
 233:Middlewares/Third_Party/FreeRTOS/Source/stream_buffer.c **** 		}
ARM GAS  C:\Users\Halil\AppData\Local\Temp\ccdYOoXG.s 			page 10


 234:Middlewares/Third_Party/FreeRTOS/Source/stream_buffer.c **** 		else
 235:Middlewares/Third_Party/FreeRTOS/Source/stream_buffer.c **** 		{
 236:Middlewares/Third_Party/FreeRTOS/Source/stream_buffer.c **** 			/* Not a message buffer and not statically allocated. */
 237:Middlewares/Third_Party/FreeRTOS/Source/stream_buffer.c **** 			ucFlags = 0;
  79              		.loc 1 237 12
  80 0036 0023     		movs	r3, #0
  81 0038 87F82730 		strb	r3, [r7, #39]
 238:Middlewares/Third_Party/FreeRTOS/Source/stream_buffer.c **** 			configASSERT( xBufferSizeBytes > 0 );
  82              		.loc 1 238 4
  83 003c FB68     		ldr	r3, [r7, #12]
  84 003e 002B     		cmp	r3, #0
  85 0040 0BD1     		bne	.L3
  86              	.LBB98:
  87              	.LBB99:
 195:Middlewares/Third_Party/FreeRTOS/Source/portable/GCC/ARM_CM4F/portmacro.h **** 	(
  88              		.loc 2 195 2
  89              		.syntax unified
  90              	@ 195 "Middlewares/Third_Party/FreeRTOS/Source/portable/GCC/ARM_CM4F/portmacro.h" 1
  91 0042 4FF05003 			mov r3, #80												
  92 0046 83F31188 		msr basepri, r3											
  93 004a BFF36F8F 		isb														
  94 004e BFF34F8F 		dsb														
  95              	
  96              	@ 0 "" 2
  97              		.thumb
  98              		.syntax unified
  99 0052 BB61     		str	r3, [r7, #24]
 100              		.loc 2 203 1
 101 0054 00BF     		nop
 102              	.L5:
 103              	.LBE99:
 104              	.LBE98:
 105              		.loc 1 238 4 discriminator 2
 106 0056 00BF     		nop
 107 0058 FDE7     		b	.L5
 108              	.L3:
 239:Middlewares/Third_Party/FreeRTOS/Source/stream_buffer.c **** 		}
 240:Middlewares/Third_Party/FreeRTOS/Source/stream_buffer.c **** 		configASSERT( xTriggerLevelBytes <= xBufferSizeBytes );
 109              		.loc 1 240 3
 110 005a BA68     		ldr	r2, [r7, #8]
 111 005c FB68     		ldr	r3, [r7, #12]
 112 005e 9A42     		cmp	r2, r3
 113 0060 0BD9     		bls	.L6
 114              	.LBB100:
 115              	.LBB101:
 195:Middlewares/Third_Party/FreeRTOS/Source/portable/GCC/ARM_CM4F/portmacro.h **** 	(
 116              		.loc 2 195 2
 117              		.syntax unified
 118              	@ 195 "Middlewares/Third_Party/FreeRTOS/Source/portable/GCC/ARM_CM4F/portmacro.h" 1
 119 0062 4FF05003 			mov r3, #80												
 120 0066 83F31188 		msr basepri, r3											
 121 006a BFF36F8F 		isb														
 122 006e BFF34F8F 		dsb														
 123              	
 124              	@ 0 "" 2
 125              		.thumb
 126              		.syntax unified
ARM GAS  C:\Users\Halil\AppData\Local\Temp\ccdYOoXG.s 			page 11


 127 0072 7B61     		str	r3, [r7, #20]
 128              		.loc 2 203 1
 129 0074 00BF     		nop
 130              	.L7:
 131              	.LBE101:
 132              	.LBE100:
 133              		.loc 1 240 3 discriminator 3
 134 0076 00BF     		nop
 135 0078 FDE7     		b	.L7
 136              	.L6:
 241:Middlewares/Third_Party/FreeRTOS/Source/stream_buffer.c **** 
 242:Middlewares/Third_Party/FreeRTOS/Source/stream_buffer.c **** 		/* A trigger level of 0 would cause a waiting task to unblock even when
 243:Middlewares/Third_Party/FreeRTOS/Source/stream_buffer.c **** 		the buffer was empty. */
 244:Middlewares/Third_Party/FreeRTOS/Source/stream_buffer.c **** 		if( xTriggerLevelBytes == ( size_t ) 0 )
 137              		.loc 1 244 5
 138 007a BB68     		ldr	r3, [r7, #8]
 139 007c 002B     		cmp	r3, #0
 140 007e 01D1     		bne	.L8
 245:Middlewares/Third_Party/FreeRTOS/Source/stream_buffer.c **** 		{
 246:Middlewares/Third_Party/FreeRTOS/Source/stream_buffer.c **** 			xTriggerLevelBytes = ( size_t ) 1;
 141              		.loc 1 246 23
 142 0080 0123     		movs	r3, #1
 143 0082 BB60     		str	r3, [r7, #8]
 144              	.L8:
 247:Middlewares/Third_Party/FreeRTOS/Source/stream_buffer.c **** 		}
 248:Middlewares/Third_Party/FreeRTOS/Source/stream_buffer.c **** 
 249:Middlewares/Third_Party/FreeRTOS/Source/stream_buffer.c **** 		/* A stream buffer requires a StreamBuffer_t structure and a buffer.
 250:Middlewares/Third_Party/FreeRTOS/Source/stream_buffer.c **** 		Both are allocated in a single call to pvPortMalloc().  The
 251:Middlewares/Third_Party/FreeRTOS/Source/stream_buffer.c **** 		StreamBuffer_t structure is placed at the start of the allocated memory
 252:Middlewares/Third_Party/FreeRTOS/Source/stream_buffer.c **** 		and the buffer follows immediately after.  The requested size is
 253:Middlewares/Third_Party/FreeRTOS/Source/stream_buffer.c **** 		incremented so the free space is returned as the user would expect -
 254:Middlewares/Third_Party/FreeRTOS/Source/stream_buffer.c **** 		this is a quirk of the implementation that means otherwise the free
 255:Middlewares/Third_Party/FreeRTOS/Source/stream_buffer.c **** 		space would be reported as one byte smaller than would be logically
 256:Middlewares/Third_Party/FreeRTOS/Source/stream_buffer.c **** 		expected. */
 257:Middlewares/Third_Party/FreeRTOS/Source/stream_buffer.c **** 		xBufferSizeBytes++;
 145              		.loc 1 257 19
 146 0084 FB68     		ldr	r3, [r7, #12]
 147 0086 0133     		adds	r3, r3, #1
 148 0088 FB60     		str	r3, [r7, #12]
 258:Middlewares/Third_Party/FreeRTOS/Source/stream_buffer.c **** 		pucAllocatedMemory = ( uint8_t * ) pvPortMalloc( xBufferSizeBytes + sizeof( StreamBuffer_t ) ); /
 149              		.loc 1 258 38
 150 008a FB68     		ldr	r3, [r7, #12]
 151 008c 2433     		adds	r3, r3, #36
 152 008e 1846     		mov	r0, r3
 153 0090 FFF7FEFF 		bl	pvPortMalloc
 154 0094 3862     		str	r0, [r7, #32]
 259:Middlewares/Third_Party/FreeRTOS/Source/stream_buffer.c **** 
 260:Middlewares/Third_Party/FreeRTOS/Source/stream_buffer.c **** 		if( pucAllocatedMemory != NULL )
 155              		.loc 1 260 5
 156 0096 3B6A     		ldr	r3, [r7, #32]
 157 0098 002B     		cmp	r3, #0
 158 009a 11D0     		beq	.L9
 261:Middlewares/Third_Party/FreeRTOS/Source/stream_buffer.c **** 		{
 262:Middlewares/Third_Party/FreeRTOS/Source/stream_buffer.c **** 			prvInitialiseNewStreamBuffer( ( StreamBuffer_t * ) pucAllocatedMemory, /* Structure at the start
 159              		.loc 1 262 4
 160 009c 3B6A     		ldr	r3, [r7, #32]
 161 009e 03F12401 		add	r1, r3, #36
ARM GAS  C:\Users\Halil\AppData\Local\Temp\ccdYOoXG.s 			page 12


 162 00a2 97F82730 		ldrb	r3, [r7, #39]	@ zero_extendqisi2
 163 00a6 0093     		str	r3, [sp]
 164 00a8 BB68     		ldr	r3, [r7, #8]
 165 00aa FA68     		ldr	r2, [r7, #12]
 166 00ac 386A     		ldr	r0, [r7, #32]
 167 00ae FFF7FEFF 		bl	prvInitialiseNewStreamBuffer
 263:Middlewares/Third_Party/FreeRTOS/Source/stream_buffer.c **** 										   pucAllocatedMemory + sizeof( StreamBuffer_t ),  /* Storage area follows. */ /*lint !e9
 264:Middlewares/Third_Party/FreeRTOS/Source/stream_buffer.c **** 										   xBufferSizeBytes,
 265:Middlewares/Third_Party/FreeRTOS/Source/stream_buffer.c **** 										   xTriggerLevelBytes,
 266:Middlewares/Third_Party/FreeRTOS/Source/stream_buffer.c **** 										   ucFlags );
 267:Middlewares/Third_Party/FreeRTOS/Source/stream_buffer.c **** 
 268:Middlewares/Third_Party/FreeRTOS/Source/stream_buffer.c **** 			traceSTREAM_BUFFER_CREATE( ( ( StreamBuffer_t * ) pucAllocatedMemory ), xIsMessageBuffer );
 168              		.loc 1 268 4
 169 00b2 7B68     		ldr	r3, [r7, #4]
 170 00b4 3A6A     		ldr	r2, [r7, #32]
 171 00b6 1946     		mov	r1, r3
 172 00b8 8920     		movs	r0, #137
 173 00ba FFF7FEFF 		bl	SEGGER_SYSVIEW_RecordU32x2
 174 00be 05E0     		b	.L10
 175              	.L9:
 269:Middlewares/Third_Party/FreeRTOS/Source/stream_buffer.c **** 		}
 270:Middlewares/Third_Party/FreeRTOS/Source/stream_buffer.c **** 		else
 271:Middlewares/Third_Party/FreeRTOS/Source/stream_buffer.c **** 		{
 272:Middlewares/Third_Party/FreeRTOS/Source/stream_buffer.c **** 			traceSTREAM_BUFFER_CREATE_FAILED( xIsMessageBuffer );
 176              		.loc 1 272 4
 177 00c0 7B68     		ldr	r3, [r7, #4]
 178 00c2 0022     		movs	r2, #0
 179 00c4 1946     		mov	r1, r3
 180 00c6 8920     		movs	r0, #137
 181 00c8 FFF7FEFF 		bl	SEGGER_SYSVIEW_RecordU32x2
 182              	.L10:
 273:Middlewares/Third_Party/FreeRTOS/Source/stream_buffer.c **** 		}
 274:Middlewares/Third_Party/FreeRTOS/Source/stream_buffer.c **** 
 275:Middlewares/Third_Party/FreeRTOS/Source/stream_buffer.c **** 		return ( StreamBufferHandle_t ) pucAllocatedMemory; /*lint !e9087 !e826 Safe cast as allocated me
 183              		.loc 1 275 10
 184 00cc 3B6A     		ldr	r3, [r7, #32]
 276:Middlewares/Third_Party/FreeRTOS/Source/stream_buffer.c **** 	}
 185              		.loc 1 276 2
 186 00ce 1846     		mov	r0, r3
 187 00d0 2837     		adds	r7, r7, #40
 188              		.cfi_def_cfa_offset 8
 189 00d2 BD46     		mov	sp, r7
 190              		.cfi_def_cfa_register 13
 191              		@ sp needed
 192 00d4 80BD     		pop	{r7, pc}
 193              		.cfi_endproc
 194              	.LFE4:
 196              		.section	.text.xStreamBufferGenericCreateStatic,"ax",%progbits
 197              		.align	1
 198              		.global	xStreamBufferGenericCreateStatic
 199              		.syntax unified
 200              		.thumb
 201              		.thumb_func
 203              	xStreamBufferGenericCreateStatic:
 204              	.LFB5:
 277:Middlewares/Third_Party/FreeRTOS/Source/stream_buffer.c **** 
 278:Middlewares/Third_Party/FreeRTOS/Source/stream_buffer.c **** #endif /* configSUPPORT_DYNAMIC_ALLOCATION */
ARM GAS  C:\Users\Halil\AppData\Local\Temp\ccdYOoXG.s 			page 13


 279:Middlewares/Third_Party/FreeRTOS/Source/stream_buffer.c **** /*-----------------------------------------------------------*/
 280:Middlewares/Third_Party/FreeRTOS/Source/stream_buffer.c **** 
 281:Middlewares/Third_Party/FreeRTOS/Source/stream_buffer.c **** #if( configSUPPORT_STATIC_ALLOCATION == 1 )
 282:Middlewares/Third_Party/FreeRTOS/Source/stream_buffer.c **** 
 283:Middlewares/Third_Party/FreeRTOS/Source/stream_buffer.c **** 	StreamBufferHandle_t xStreamBufferGenericCreateStatic( size_t xBufferSizeBytes,
 284:Middlewares/Third_Party/FreeRTOS/Source/stream_buffer.c **** 														   size_t xTriggerLevelBytes,
 285:Middlewares/Third_Party/FreeRTOS/Source/stream_buffer.c **** 														   BaseType_t xIsMessageBuffer,
 286:Middlewares/Third_Party/FreeRTOS/Source/stream_buffer.c **** 														   uint8_t * const pucStreamBufferStorageArea,
 287:Middlewares/Third_Party/FreeRTOS/Source/stream_buffer.c **** 														   StaticStreamBuffer_t * const pxStaticStreamBuffer )
 288:Middlewares/Third_Party/FreeRTOS/Source/stream_buffer.c **** 	{
 205              		.loc 1 288 2
 206              		.cfi_startproc
 207              		@ args = 4, pretend = 0, frame = 56
 208              		@ frame_needed = 1, uses_anonymous_args = 0
 209 0000 80B5     		push	{r7, lr}
 210              		.cfi_def_cfa_offset 8
 211              		.cfi_offset 7, -8
 212              		.cfi_offset 14, -4
 213 0002 90B0     		sub	sp, sp, #64
 214              		.cfi_def_cfa_offset 72
 215 0004 02AF     		add	r7, sp, #8
 216              		.cfi_def_cfa 7, 64
 217 0006 F860     		str	r0, [r7, #12]
 218 0008 B960     		str	r1, [r7, #8]
 219 000a 7A60     		str	r2, [r7, #4]
 220 000c 3B60     		str	r3, [r7]
 289:Middlewares/Third_Party/FreeRTOS/Source/stream_buffer.c **** 	StreamBuffer_t * const pxStreamBuffer = ( StreamBuffer_t * ) pxStaticStreamBuffer; /*lint !e740 !e
 221              		.loc 1 289 25
 222 000e 3B6C     		ldr	r3, [r7, #64]
 223 0010 FB62     		str	r3, [r7, #44]
 290:Middlewares/Third_Party/FreeRTOS/Source/stream_buffer.c **** 	StreamBufferHandle_t xReturn;
 291:Middlewares/Third_Party/FreeRTOS/Source/stream_buffer.c **** 	uint8_t ucFlags;
 292:Middlewares/Third_Party/FreeRTOS/Source/stream_buffer.c **** 
 293:Middlewares/Third_Party/FreeRTOS/Source/stream_buffer.c **** 		configASSERT( pucStreamBufferStorageArea );
 224              		.loc 1 293 3
 225 0012 3B68     		ldr	r3, [r7]
 226 0014 002B     		cmp	r3, #0
 227 0016 0BD1     		bne	.L13
 228              	.LBB102:
 229              	.LBB103:
 195:Middlewares/Third_Party/FreeRTOS/Source/portable/GCC/ARM_CM4F/portmacro.h **** 	(
 230              		.loc 2 195 2
 231              		.syntax unified
 232              	@ 195 "Middlewares/Third_Party/FreeRTOS/Source/portable/GCC/ARM_CM4F/portmacro.h" 1
 233 0018 4FF05003 			mov r3, #80												
 234 001c 83F31188 		msr basepri, r3											
 235 0020 BFF36F8F 		isb														
 236 0024 BFF34F8F 		dsb														
 237              	
 238              	@ 0 "" 2
 239              		.thumb
 240              		.syntax unified
 241 0028 BB62     		str	r3, [r7, #40]
 242              		.loc 2 203 1
 243 002a 00BF     		nop
 244              	.L14:
 245              	.LBE103:
ARM GAS  C:\Users\Halil\AppData\Local\Temp\ccdYOoXG.s 			page 14


 246              	.LBE102:
 247              		.loc 1 293 3 discriminator 1
 248 002c 00BF     		nop
 249 002e FDE7     		b	.L14
 250              	.L13:
 294:Middlewares/Third_Party/FreeRTOS/Source/stream_buffer.c **** 		configASSERT( pxStaticStreamBuffer );
 251              		.loc 1 294 3
 252 0030 3B6C     		ldr	r3, [r7, #64]
 253 0032 002B     		cmp	r3, #0
 254 0034 0BD1     		bne	.L15
 255              	.LBB104:
 256              	.LBB105:
 195:Middlewares/Third_Party/FreeRTOS/Source/portable/GCC/ARM_CM4F/portmacro.h **** 	(
 257              		.loc 2 195 2
 258              		.syntax unified
 259              	@ 195 "Middlewares/Third_Party/FreeRTOS/Source/portable/GCC/ARM_CM4F/portmacro.h" 1
 260 0036 4FF05003 			mov r3, #80												
 261 003a 83F31188 		msr basepri, r3											
 262 003e BFF36F8F 		isb														
 263 0042 BFF34F8F 		dsb														
 264              	
 265              	@ 0 "" 2
 266              		.thumb
 267              		.syntax unified
 268 0046 7B62     		str	r3, [r7, #36]
 269              		.loc 2 203 1
 270 0048 00BF     		nop
 271              	.L16:
 272              	.LBE105:
 273              	.LBE104:
 274              		.loc 1 294 3 discriminator 2
 275 004a 00BF     		nop
 276 004c FDE7     		b	.L16
 277              	.L15:
 295:Middlewares/Third_Party/FreeRTOS/Source/stream_buffer.c **** 		configASSERT( xTriggerLevelBytes <= xBufferSizeBytes );
 278              		.loc 1 295 3
 279 004e BA68     		ldr	r2, [r7, #8]
 280 0050 FB68     		ldr	r3, [r7, #12]
 281 0052 9A42     		cmp	r2, r3
 282 0054 0BD9     		bls	.L17
 283              	.LBB106:
 284              	.LBB107:
 195:Middlewares/Third_Party/FreeRTOS/Source/portable/GCC/ARM_CM4F/portmacro.h **** 	(
 285              		.loc 2 195 2
 286              		.syntax unified
 287              	@ 195 "Middlewares/Third_Party/FreeRTOS/Source/portable/GCC/ARM_CM4F/portmacro.h" 1
 288 0056 4FF05003 			mov r3, #80												
 289 005a 83F31188 		msr basepri, r3											
 290 005e BFF36F8F 		isb														
 291 0062 BFF34F8F 		dsb														
 292              	
 293              	@ 0 "" 2
 294              		.thumb
 295              		.syntax unified
 296 0066 3B62     		str	r3, [r7, #32]
 297              		.loc 2 203 1
 298 0068 00BF     		nop
ARM GAS  C:\Users\Halil\AppData\Local\Temp\ccdYOoXG.s 			page 15


 299              	.L18:
 300              	.LBE107:
 301              	.LBE106:
 302              		.loc 1 295 3 discriminator 3
 303 006a 00BF     		nop
 304 006c FDE7     		b	.L18
 305              	.L17:
 296:Middlewares/Third_Party/FreeRTOS/Source/stream_buffer.c **** 
 297:Middlewares/Third_Party/FreeRTOS/Source/stream_buffer.c **** 		/* A trigger level of 0 would cause a waiting task to unblock even when
 298:Middlewares/Third_Party/FreeRTOS/Source/stream_buffer.c **** 		the buffer was empty. */
 299:Middlewares/Third_Party/FreeRTOS/Source/stream_buffer.c **** 		if( xTriggerLevelBytes == ( size_t ) 0 )
 306              		.loc 1 299 5
 307 006e BB68     		ldr	r3, [r7, #8]
 308 0070 002B     		cmp	r3, #0
 309 0072 01D1     		bne	.L19
 300:Middlewares/Third_Party/FreeRTOS/Source/stream_buffer.c **** 		{
 301:Middlewares/Third_Party/FreeRTOS/Source/stream_buffer.c **** 			xTriggerLevelBytes = ( size_t ) 1;
 310              		.loc 1 301 23
 311 0074 0123     		movs	r3, #1
 312 0076 BB60     		str	r3, [r7, #8]
 313              	.L19:
 302:Middlewares/Third_Party/FreeRTOS/Source/stream_buffer.c **** 		}
 303:Middlewares/Third_Party/FreeRTOS/Source/stream_buffer.c **** 
 304:Middlewares/Third_Party/FreeRTOS/Source/stream_buffer.c **** 		if( xIsMessageBuffer != pdFALSE )
 314              		.loc 1 304 5
 315 0078 7B68     		ldr	r3, [r7, #4]
 316 007a 002B     		cmp	r3, #0
 317 007c 03D0     		beq	.L20
 305:Middlewares/Third_Party/FreeRTOS/Source/stream_buffer.c **** 		{
 306:Middlewares/Third_Party/FreeRTOS/Source/stream_buffer.c **** 			/* Statically allocated message buffer. */
 307:Middlewares/Third_Party/FreeRTOS/Source/stream_buffer.c **** 			ucFlags = sbFLAGS_IS_MESSAGE_BUFFER | sbFLAGS_IS_STATICALLY_ALLOCATED;
 318              		.loc 1 307 12
 319 007e 0323     		movs	r3, #3
 320 0080 87F83330 		strb	r3, [r7, #51]
 321 0084 02E0     		b	.L21
 322              	.L20:
 308:Middlewares/Third_Party/FreeRTOS/Source/stream_buffer.c **** 		}
 309:Middlewares/Third_Party/FreeRTOS/Source/stream_buffer.c **** 		else
 310:Middlewares/Third_Party/FreeRTOS/Source/stream_buffer.c **** 		{
 311:Middlewares/Third_Party/FreeRTOS/Source/stream_buffer.c **** 			/* Statically allocated stream buffer. */
 312:Middlewares/Third_Party/FreeRTOS/Source/stream_buffer.c **** 			ucFlags = sbFLAGS_IS_STATICALLY_ALLOCATED;
 323              		.loc 1 312 12
 324 0086 0223     		movs	r3, #2
 325 0088 87F83330 		strb	r3, [r7, #51]
 326              	.L21:
 313:Middlewares/Third_Party/FreeRTOS/Source/stream_buffer.c **** 		}
 314:Middlewares/Third_Party/FreeRTOS/Source/stream_buffer.c **** 
 315:Middlewares/Third_Party/FreeRTOS/Source/stream_buffer.c **** 		/* In case the stream buffer is going to be used as a message buffer
 316:Middlewares/Third_Party/FreeRTOS/Source/stream_buffer.c **** 		(that is, it will hold discrete messages with a little meta data that
 317:Middlewares/Third_Party/FreeRTOS/Source/stream_buffer.c **** 		says how big the next message is) check the buffer will be large enough
 318:Middlewares/Third_Party/FreeRTOS/Source/stream_buffer.c **** 		to hold at least one message. */
 319:Middlewares/Third_Party/FreeRTOS/Source/stream_buffer.c **** 		configASSERT( xBufferSizeBytes > sbBYTES_TO_STORE_MESSAGE_LENGTH );
 327              		.loc 1 319 3
 328 008c FB68     		ldr	r3, [r7, #12]
 329 008e 042B     		cmp	r3, #4
 330 0090 0BD8     		bhi	.L22
 331              	.LBB108:
ARM GAS  C:\Users\Halil\AppData\Local\Temp\ccdYOoXG.s 			page 16


 332              	.LBB109:
 195:Middlewares/Third_Party/FreeRTOS/Source/portable/GCC/ARM_CM4F/portmacro.h **** 	(
 333              		.loc 2 195 2
 334              		.syntax unified
 335              	@ 195 "Middlewares/Third_Party/FreeRTOS/Source/portable/GCC/ARM_CM4F/portmacro.h" 1
 336 0092 4FF05003 			mov r3, #80												
 337 0096 83F31188 		msr basepri, r3											
 338 009a BFF36F8F 		isb														
 339 009e BFF34F8F 		dsb														
 340              	
 341              	@ 0 "" 2
 342              		.thumb
 343              		.syntax unified
 344 00a2 FB61     		str	r3, [r7, #28]
 345              		.loc 2 203 1
 346 00a4 00BF     		nop
 347              	.L23:
 348              	.LBE109:
 349              	.LBE108:
 350              		.loc 1 319 3 discriminator 4
 351 00a6 00BF     		nop
 352 00a8 FDE7     		b	.L23
 353              	.L22:
 354              	.LBB110:
 320:Middlewares/Third_Party/FreeRTOS/Source/stream_buffer.c **** 
 321:Middlewares/Third_Party/FreeRTOS/Source/stream_buffer.c **** 		#if( configASSERT_DEFINED == 1 )
 322:Middlewares/Third_Party/FreeRTOS/Source/stream_buffer.c **** 		{
 323:Middlewares/Third_Party/FreeRTOS/Source/stream_buffer.c **** 			/* Sanity check that the size of the structure used to declare a
 324:Middlewares/Third_Party/FreeRTOS/Source/stream_buffer.c **** 			variable of type StaticStreamBuffer_t equals the size of the real
 325:Middlewares/Third_Party/FreeRTOS/Source/stream_buffer.c **** 			message buffer structure. */
 326:Middlewares/Third_Party/FreeRTOS/Source/stream_buffer.c **** 			volatile size_t xSize = sizeof( StaticStreamBuffer_t );
 355              		.loc 1 326 20
 356 00aa 2423     		movs	r3, #36
 357 00ac 7B61     		str	r3, [r7, #20]
 327:Middlewares/Third_Party/FreeRTOS/Source/stream_buffer.c **** 			configASSERT( xSize == sizeof( StreamBuffer_t ) );
 358              		.loc 1 327 4
 359 00ae 7B69     		ldr	r3, [r7, #20]
 360 00b0 242B     		cmp	r3, #36
 361 00b2 0BD0     		beq	.L24
 362              	.LBB111:
 363              	.LBB112:
 195:Middlewares/Third_Party/FreeRTOS/Source/portable/GCC/ARM_CM4F/portmacro.h **** 	(
 364              		.loc 2 195 2
 365              		.syntax unified
 366              	@ 195 "Middlewares/Third_Party/FreeRTOS/Source/portable/GCC/ARM_CM4F/portmacro.h" 1
 367 00b4 4FF05003 			mov r3, #80												
 368 00b8 83F31188 		msr basepri, r3											
 369 00bc BFF36F8F 		isb														
 370 00c0 BFF34F8F 		dsb														
 371              	
 372              	@ 0 "" 2
 373              		.thumb
 374              		.syntax unified
 375 00c4 BB61     		str	r3, [r7, #24]
 376              		.loc 2 203 1
 377 00c6 00BF     		nop
 378              	.L25:
ARM GAS  C:\Users\Halil\AppData\Local\Temp\ccdYOoXG.s 			page 17


 379              	.LBE112:
 380              	.LBE111:
 381              		.loc 1 327 4 discriminator 5
 382 00c8 00BF     		nop
 383 00ca FDE7     		b	.L25
 384              	.L24:
 385              	.LBE110:
 328:Middlewares/Third_Party/FreeRTOS/Source/stream_buffer.c **** 		} /*lint !e529 xSize is referenced is configASSERT() is defined. */
 329:Middlewares/Third_Party/FreeRTOS/Source/stream_buffer.c **** 		#endif /* configASSERT_DEFINED */
 330:Middlewares/Third_Party/FreeRTOS/Source/stream_buffer.c **** 
 331:Middlewares/Third_Party/FreeRTOS/Source/stream_buffer.c **** 		if( ( pucStreamBufferStorageArea != NULL ) && ( pxStaticStreamBuffer != NULL ) )
 386              		.loc 1 331 5
 387 00cc 3B68     		ldr	r3, [r7]
 388 00ce 002B     		cmp	r3, #0
 389 00d0 1BD0     		beq	.L26
 390              		.loc 1 331 46 discriminator 1
 391 00d2 3B6C     		ldr	r3, [r7, #64]
 392 00d4 002B     		cmp	r3, #0
 393 00d6 18D0     		beq	.L26
 332:Middlewares/Third_Party/FreeRTOS/Source/stream_buffer.c **** 		{
 333:Middlewares/Third_Party/FreeRTOS/Source/stream_buffer.c **** 			prvInitialiseNewStreamBuffer( pxStreamBuffer,
 394              		.loc 1 333 4
 395 00d8 97F83330 		ldrb	r3, [r7, #51]	@ zero_extendqisi2
 396 00dc 0093     		str	r3, [sp]
 397 00de BB68     		ldr	r3, [r7, #8]
 398 00e0 FA68     		ldr	r2, [r7, #12]
 399 00e2 3968     		ldr	r1, [r7]
 400 00e4 F86A     		ldr	r0, [r7, #44]
 401 00e6 FFF7FEFF 		bl	prvInitialiseNewStreamBuffer
 334:Middlewares/Third_Party/FreeRTOS/Source/stream_buffer.c **** 										  pucStreamBufferStorageArea,
 335:Middlewares/Third_Party/FreeRTOS/Source/stream_buffer.c **** 										  xBufferSizeBytes,
 336:Middlewares/Third_Party/FreeRTOS/Source/stream_buffer.c **** 										  xTriggerLevelBytes,
 337:Middlewares/Third_Party/FreeRTOS/Source/stream_buffer.c **** 										  ucFlags );
 338:Middlewares/Third_Party/FreeRTOS/Source/stream_buffer.c **** 
 339:Middlewares/Third_Party/FreeRTOS/Source/stream_buffer.c **** 			/* Remember this was statically allocated in case it is ever deleted
 340:Middlewares/Third_Party/FreeRTOS/Source/stream_buffer.c **** 			again. */
 341:Middlewares/Third_Party/FreeRTOS/Source/stream_buffer.c **** 			pxStreamBuffer->ucFlags |= sbFLAGS_IS_STATICALLY_ALLOCATED;
 402              		.loc 1 341 18
 403 00ea FB6A     		ldr	r3, [r7, #44]
 404 00ec 1B7F     		ldrb	r3, [r3, #28]	@ zero_extendqisi2
 405              		.loc 1 341 28
 406 00ee 43F00203 		orr	r3, r3, #2
 407 00f2 DAB2     		uxtb	r2, r3
 408 00f4 FB6A     		ldr	r3, [r7, #44]
 409 00f6 1A77     		strb	r2, [r3, #28]
 342:Middlewares/Third_Party/FreeRTOS/Source/stream_buffer.c **** 
 343:Middlewares/Third_Party/FreeRTOS/Source/stream_buffer.c **** 			traceSTREAM_BUFFER_CREATE( pxStreamBuffer, xIsMessageBuffer );
 410              		.loc 1 343 4
 411 00f8 7B68     		ldr	r3, [r7, #4]
 412 00fa FA6A     		ldr	r2, [r7, #44]
 413 00fc 1946     		mov	r1, r3
 414 00fe 8920     		movs	r0, #137
 415 0100 FFF7FEFF 		bl	SEGGER_SYSVIEW_RecordU32x2
 344:Middlewares/Third_Party/FreeRTOS/Source/stream_buffer.c **** 
 345:Middlewares/Third_Party/FreeRTOS/Source/stream_buffer.c **** 			xReturn = ( StreamBufferHandle_t ) pxStaticStreamBuffer; /*lint !e9087 Data hiding requires cast
 416              		.loc 1 345 12
 417 0104 3B6C     		ldr	r3, [r7, #64]
ARM GAS  C:\Users\Halil\AppData\Local\Temp\ccdYOoXG.s 			page 18


 418 0106 7B63     		str	r3, [r7, #52]
 419 0108 01E0     		b	.L27
 420              	.L26:
 346:Middlewares/Third_Party/FreeRTOS/Source/stream_buffer.c **** 		}
 347:Middlewares/Third_Party/FreeRTOS/Source/stream_buffer.c **** 		else
 348:Middlewares/Third_Party/FreeRTOS/Source/stream_buffer.c **** 		{
 349:Middlewares/Third_Party/FreeRTOS/Source/stream_buffer.c **** 			xReturn = NULL;
 421              		.loc 1 349 12
 422 010a 0023     		movs	r3, #0
 423 010c 7B63     		str	r3, [r7, #52]
 424              	.L27:
 350:Middlewares/Third_Party/FreeRTOS/Source/stream_buffer.c **** 			traceSTREAM_BUFFER_CREATE_STATIC_FAILED( xReturn, xIsMessageBuffer );
 351:Middlewares/Third_Party/FreeRTOS/Source/stream_buffer.c **** 		}
 352:Middlewares/Third_Party/FreeRTOS/Source/stream_buffer.c **** 
 353:Middlewares/Third_Party/FreeRTOS/Source/stream_buffer.c **** 		return xReturn;
 425              		.loc 1 353 10
 426 010e 7B6B     		ldr	r3, [r7, #52]
 354:Middlewares/Third_Party/FreeRTOS/Source/stream_buffer.c **** 	}
 427              		.loc 1 354 2
 428 0110 1846     		mov	r0, r3
 429 0112 3837     		adds	r7, r7, #56
 430              		.cfi_def_cfa_offset 8
 431 0114 BD46     		mov	sp, r7
 432              		.cfi_def_cfa_register 13
 433              		@ sp needed
 434 0116 80BD     		pop	{r7, pc}
 435              		.cfi_endproc
 436              	.LFE5:
 438              		.section	.text.vStreamBufferDelete,"ax",%progbits
 439              		.align	1
 440              		.global	vStreamBufferDelete
 441              		.syntax unified
 442              		.thumb
 443              		.thumb_func
 445              	vStreamBufferDelete:
 446              	.LFB6:
 355:Middlewares/Third_Party/FreeRTOS/Source/stream_buffer.c **** 
 356:Middlewares/Third_Party/FreeRTOS/Source/stream_buffer.c **** #endif /* ( configSUPPORT_STATIC_ALLOCATION == 1 ) */
 357:Middlewares/Third_Party/FreeRTOS/Source/stream_buffer.c **** /*-----------------------------------------------------------*/
 358:Middlewares/Third_Party/FreeRTOS/Source/stream_buffer.c **** 
 359:Middlewares/Third_Party/FreeRTOS/Source/stream_buffer.c **** void vStreamBufferDelete( StreamBufferHandle_t xStreamBuffer )
 360:Middlewares/Third_Party/FreeRTOS/Source/stream_buffer.c **** {
 447              		.loc 1 360 1
 448              		.cfi_startproc
 449              		@ args = 0, pretend = 0, frame = 16
 450              		@ frame_needed = 1, uses_anonymous_args = 0
 451 0000 80B5     		push	{r7, lr}
 452              		.cfi_def_cfa_offset 8
 453              		.cfi_offset 7, -8
 454              		.cfi_offset 14, -4
 455 0002 84B0     		sub	sp, sp, #16
 456              		.cfi_def_cfa_offset 24
 457 0004 00AF     		add	r7, sp, #0
 458              		.cfi_def_cfa_register 7
 459 0006 7860     		str	r0, [r7, #4]
 361:Middlewares/Third_Party/FreeRTOS/Source/stream_buffer.c **** StreamBuffer_t * pxStreamBuffer = xStreamBuffer;
 460              		.loc 1 361 18
ARM GAS  C:\Users\Halil\AppData\Local\Temp\ccdYOoXG.s 			page 19


 461 0008 7B68     		ldr	r3, [r7, #4]
 462 000a FB60     		str	r3, [r7, #12]
 362:Middlewares/Third_Party/FreeRTOS/Source/stream_buffer.c **** 
 363:Middlewares/Third_Party/FreeRTOS/Source/stream_buffer.c **** 	configASSERT( pxStreamBuffer );
 463              		.loc 1 363 2
 464 000c FB68     		ldr	r3, [r7, #12]
 465 000e 002B     		cmp	r3, #0
 466 0010 0BD1     		bne	.L30
 467              	.LBB113:
 468              	.LBB114:
 195:Middlewares/Third_Party/FreeRTOS/Source/portable/GCC/ARM_CM4F/portmacro.h **** 	(
 469              		.loc 2 195 2
 470              		.syntax unified
 471              	@ 195 "Middlewares/Third_Party/FreeRTOS/Source/portable/GCC/ARM_CM4F/portmacro.h" 1
 472 0012 4FF05003 			mov r3, #80												
 473 0016 83F31188 		msr basepri, r3											
 474 001a BFF36F8F 		isb														
 475 001e BFF34F8F 		dsb														
 476              	
 477              	@ 0 "" 2
 478              		.thumb
 479              		.syntax unified
 480 0022 BB60     		str	r3, [r7, #8]
 481              		.loc 2 203 1
 482 0024 00BF     		nop
 483              	.L31:
 484              	.LBE114:
 485              	.LBE113:
 486              		.loc 1 363 2 discriminator 1
 487 0026 00BF     		nop
 488 0028 FDE7     		b	.L31
 489              	.L30:
 364:Middlewares/Third_Party/FreeRTOS/Source/stream_buffer.c **** 
 365:Middlewares/Third_Party/FreeRTOS/Source/stream_buffer.c **** 	traceSTREAM_BUFFER_DELETE( xStreamBuffer );
 490              		.loc 1 365 2
 491 002a 7B68     		ldr	r3, [r7, #4]
 492 002c 1946     		mov	r1, r3
 493 002e 8A20     		movs	r0, #138
 494 0030 FFF7FEFF 		bl	SEGGER_SYSVIEW_RecordU32
 366:Middlewares/Third_Party/FreeRTOS/Source/stream_buffer.c **** 
 367:Middlewares/Third_Party/FreeRTOS/Source/stream_buffer.c **** 	if( ( pxStreamBuffer->ucFlags & sbFLAGS_IS_STATICALLY_ALLOCATED ) == ( uint8_t ) pdFALSE )
 495              		.loc 1 367 22
 496 0034 FB68     		ldr	r3, [r7, #12]
 497 0036 1B7F     		ldrb	r3, [r3, #28]	@ zero_extendqisi2
 498              		.loc 1 367 32
 499 0038 03F00203 		and	r3, r3, #2
 500              		.loc 1 367 4
 501 003c 002B     		cmp	r3, #0
 502 003e 03D1     		bne	.L32
 368:Middlewares/Third_Party/FreeRTOS/Source/stream_buffer.c **** 	{
 369:Middlewares/Third_Party/FreeRTOS/Source/stream_buffer.c **** 		#if( configSUPPORT_DYNAMIC_ALLOCATION == 1 )
 370:Middlewares/Third_Party/FreeRTOS/Source/stream_buffer.c **** 		{
 371:Middlewares/Third_Party/FreeRTOS/Source/stream_buffer.c **** 			/* Both the structure and the buffer were allocated using a single call
 372:Middlewares/Third_Party/FreeRTOS/Source/stream_buffer.c **** 			to pvPortMalloc(), hence only one call to vPortFree() is required. */
 373:Middlewares/Third_Party/FreeRTOS/Source/stream_buffer.c **** 			vPortFree( ( void * ) pxStreamBuffer ); /*lint !e9087 Standard free() semantics require void *, 
 503              		.loc 1 373 4
 504 0040 F868     		ldr	r0, [r7, #12]
ARM GAS  C:\Users\Halil\AppData\Local\Temp\ccdYOoXG.s 			page 20


 505 0042 FFF7FEFF 		bl	vPortFree
 374:Middlewares/Third_Party/FreeRTOS/Source/stream_buffer.c **** 		}
 375:Middlewares/Third_Party/FreeRTOS/Source/stream_buffer.c **** 		#else
 376:Middlewares/Third_Party/FreeRTOS/Source/stream_buffer.c **** 		{
 377:Middlewares/Third_Party/FreeRTOS/Source/stream_buffer.c **** 			/* Should not be possible to get here, ucFlags must be corrupt.
 378:Middlewares/Third_Party/FreeRTOS/Source/stream_buffer.c **** 			Force an assert. */
 379:Middlewares/Third_Party/FreeRTOS/Source/stream_buffer.c **** 			configASSERT( xStreamBuffer == ( StreamBufferHandle_t ) ~0 );
 380:Middlewares/Third_Party/FreeRTOS/Source/stream_buffer.c **** 		}
 381:Middlewares/Third_Party/FreeRTOS/Source/stream_buffer.c **** 		#endif
 382:Middlewares/Third_Party/FreeRTOS/Source/stream_buffer.c **** 	}
 383:Middlewares/Third_Party/FreeRTOS/Source/stream_buffer.c **** 	else
 384:Middlewares/Third_Party/FreeRTOS/Source/stream_buffer.c **** 	{
 385:Middlewares/Third_Party/FreeRTOS/Source/stream_buffer.c **** 		/* The structure and buffer were not allocated dynamically and cannot be
 386:Middlewares/Third_Party/FreeRTOS/Source/stream_buffer.c **** 		freed - just scrub the structure so future use will assert. */
 387:Middlewares/Third_Party/FreeRTOS/Source/stream_buffer.c **** 		( void ) memset( pxStreamBuffer, 0x00, sizeof( StreamBuffer_t ) );
 388:Middlewares/Third_Party/FreeRTOS/Source/stream_buffer.c **** 	}
 389:Middlewares/Third_Party/FreeRTOS/Source/stream_buffer.c **** }
 506              		.loc 1 389 1
 507 0046 04E0     		b	.L34
 508              	.L32:
 387:Middlewares/Third_Party/FreeRTOS/Source/stream_buffer.c **** 	}
 509              		.loc 1 387 12
 510 0048 2422     		movs	r2, #36
 511 004a 0021     		movs	r1, #0
 512 004c F868     		ldr	r0, [r7, #12]
 513 004e FFF7FEFF 		bl	memset
 514              	.L34:
 515              		.loc 1 389 1
 516 0052 00BF     		nop
 517 0054 1037     		adds	r7, r7, #16
 518              		.cfi_def_cfa_offset 8
 519 0056 BD46     		mov	sp, r7
 520              		.cfi_def_cfa_register 13
 521              		@ sp needed
 522 0058 80BD     		pop	{r7, pc}
 523              		.cfi_endproc
 524              	.LFE6:
 526              		.section	.text.xStreamBufferReset,"ax",%progbits
 527              		.align	1
 528              		.global	xStreamBufferReset
 529              		.syntax unified
 530              		.thumb
 531              		.thumb_func
 533              	xStreamBufferReset:
 534              	.LFB7:
 390:Middlewares/Third_Party/FreeRTOS/Source/stream_buffer.c **** /*-----------------------------------------------------------*/
 391:Middlewares/Third_Party/FreeRTOS/Source/stream_buffer.c **** 
 392:Middlewares/Third_Party/FreeRTOS/Source/stream_buffer.c **** BaseType_t xStreamBufferReset( StreamBufferHandle_t xStreamBuffer )
 393:Middlewares/Third_Party/FreeRTOS/Source/stream_buffer.c **** {
 535              		.loc 1 393 1
 536              		.cfi_startproc
 537              		@ args = 0, pretend = 0, frame = 24
 538              		@ frame_needed = 1, uses_anonymous_args = 0
 539 0000 80B5     		push	{r7, lr}
 540              		.cfi_def_cfa_offset 8
 541              		.cfi_offset 7, -8
 542              		.cfi_offset 14, -4
ARM GAS  C:\Users\Halil\AppData\Local\Temp\ccdYOoXG.s 			page 21


 543 0002 88B0     		sub	sp, sp, #32
 544              		.cfi_def_cfa_offset 40
 545 0004 02AF     		add	r7, sp, #8
 546              		.cfi_def_cfa 7, 32
 547 0006 7860     		str	r0, [r7, #4]
 394:Middlewares/Third_Party/FreeRTOS/Source/stream_buffer.c **** StreamBuffer_t * const pxStreamBuffer = xStreamBuffer;
 548              		.loc 1 394 24
 549 0008 7B68     		ldr	r3, [r7, #4]
 550 000a 3B61     		str	r3, [r7, #16]
 395:Middlewares/Third_Party/FreeRTOS/Source/stream_buffer.c **** BaseType_t xReturn = pdFAIL;
 551              		.loc 1 395 12
 552 000c 0023     		movs	r3, #0
 553 000e 7B61     		str	r3, [r7, #20]
 396:Middlewares/Third_Party/FreeRTOS/Source/stream_buffer.c **** 
 397:Middlewares/Third_Party/FreeRTOS/Source/stream_buffer.c **** #if( configUSE_TRACE_FACILITY == 1 )
 398:Middlewares/Third_Party/FreeRTOS/Source/stream_buffer.c **** 	UBaseType_t uxStreamBufferNumber;
 399:Middlewares/Third_Party/FreeRTOS/Source/stream_buffer.c **** #endif
 400:Middlewares/Third_Party/FreeRTOS/Source/stream_buffer.c **** 
 401:Middlewares/Third_Party/FreeRTOS/Source/stream_buffer.c **** 	configASSERT( pxStreamBuffer );
 554              		.loc 1 401 2
 555 0010 3B69     		ldr	r3, [r7, #16]
 556 0012 002B     		cmp	r3, #0
 557 0014 0BD1     		bne	.L36
 558              	.LBB115:
 559              	.LBB116:
 195:Middlewares/Third_Party/FreeRTOS/Source/portable/GCC/ARM_CM4F/portmacro.h **** 	(
 560              		.loc 2 195 2
 561              		.syntax unified
 562              	@ 195 "Middlewares/Third_Party/FreeRTOS/Source/portable/GCC/ARM_CM4F/portmacro.h" 1
 563 0016 4FF05003 			mov r3, #80												
 564 001a 83F31188 		msr basepri, r3											
 565 001e BFF36F8F 		isb														
 566 0022 BFF34F8F 		dsb														
 567              	
 568              	@ 0 "" 2
 569              		.thumb
 570              		.syntax unified
 571 0026 BB60     		str	r3, [r7, #8]
 572              		.loc 2 203 1
 573 0028 00BF     		nop
 574              	.L37:
 575              	.LBE116:
 576              	.LBE115:
 577              		.loc 1 401 2 discriminator 1
 578 002a 00BF     		nop
 579 002c FDE7     		b	.L37
 580              	.L36:
 402:Middlewares/Third_Party/FreeRTOS/Source/stream_buffer.c **** 
 403:Middlewares/Third_Party/FreeRTOS/Source/stream_buffer.c **** 	#if( configUSE_TRACE_FACILITY == 1 )
 404:Middlewares/Third_Party/FreeRTOS/Source/stream_buffer.c **** 	{
 405:Middlewares/Third_Party/FreeRTOS/Source/stream_buffer.c **** 		/* Store the stream buffer number so it can be restored after the
 406:Middlewares/Third_Party/FreeRTOS/Source/stream_buffer.c **** 		reset. */
 407:Middlewares/Third_Party/FreeRTOS/Source/stream_buffer.c **** 		uxStreamBufferNumber = pxStreamBuffer->uxStreamBufferNumber;
 581              		.loc 1 407 24
 582 002e 3B69     		ldr	r3, [r7, #16]
 583 0030 1B6A     		ldr	r3, [r3, #32]
 584 0032 FB60     		str	r3, [r7, #12]
ARM GAS  C:\Users\Halil\AppData\Local\Temp\ccdYOoXG.s 			page 22


 408:Middlewares/Third_Party/FreeRTOS/Source/stream_buffer.c **** 	}
 409:Middlewares/Third_Party/FreeRTOS/Source/stream_buffer.c **** 	#endif
 410:Middlewares/Third_Party/FreeRTOS/Source/stream_buffer.c **** 
 411:Middlewares/Third_Party/FreeRTOS/Source/stream_buffer.c **** 	/* Can only reset a message buffer if there are no tasks blocked on it. */
 412:Middlewares/Third_Party/FreeRTOS/Source/stream_buffer.c **** 	taskENTER_CRITICAL();
 585              		.loc 1 412 2
 586 0034 FFF7FEFF 		bl	vPortEnterCritical
 413:Middlewares/Third_Party/FreeRTOS/Source/stream_buffer.c **** 	{
 414:Middlewares/Third_Party/FreeRTOS/Source/stream_buffer.c **** 		if( pxStreamBuffer->xTaskWaitingToReceive == NULL )
 587              		.loc 1 414 21
 588 0038 3B69     		ldr	r3, [r7, #16]
 589 003a 1B69     		ldr	r3, [r3, #16]
 590              		.loc 1 414 5
 591 003c 002B     		cmp	r3, #0
 592 003e 1AD1     		bne	.L38
 415:Middlewares/Third_Party/FreeRTOS/Source/stream_buffer.c **** 		{
 416:Middlewares/Third_Party/FreeRTOS/Source/stream_buffer.c **** 			if( pxStreamBuffer->xTaskWaitingToSend == NULL )
 593              		.loc 1 416 22
 594 0040 3B69     		ldr	r3, [r7, #16]
 595 0042 5B69     		ldr	r3, [r3, #20]
 596              		.loc 1 416 6
 597 0044 002B     		cmp	r3, #0
 598 0046 16D1     		bne	.L38
 417:Middlewares/Third_Party/FreeRTOS/Source/stream_buffer.c **** 			{
 418:Middlewares/Third_Party/FreeRTOS/Source/stream_buffer.c **** 				prvInitialiseNewStreamBuffer( pxStreamBuffer,
 599              		.loc 1 418 5
 600 0048 3B69     		ldr	r3, [r7, #16]
 601 004a 9969     		ldr	r1, [r3, #24]
 602 004c 3B69     		ldr	r3, [r7, #16]
 603 004e 9A68     		ldr	r2, [r3, #8]
 604 0050 3B69     		ldr	r3, [r7, #16]
 605 0052 D868     		ldr	r0, [r3, #12]
 606 0054 3B69     		ldr	r3, [r7, #16]
 607 0056 1B7F     		ldrb	r3, [r3, #28]	@ zero_extendqisi2
 608 0058 0093     		str	r3, [sp]
 609 005a 0346     		mov	r3, r0
 610 005c 3869     		ldr	r0, [r7, #16]
 611 005e FFF7FEFF 		bl	prvInitialiseNewStreamBuffer
 419:Middlewares/Third_Party/FreeRTOS/Source/stream_buffer.c **** 											  pxStreamBuffer->pucBuffer,
 420:Middlewares/Third_Party/FreeRTOS/Source/stream_buffer.c **** 											  pxStreamBuffer->xLength,
 421:Middlewares/Third_Party/FreeRTOS/Source/stream_buffer.c **** 											  pxStreamBuffer->xTriggerLevelBytes,
 422:Middlewares/Third_Party/FreeRTOS/Source/stream_buffer.c **** 											  pxStreamBuffer->ucFlags );
 423:Middlewares/Third_Party/FreeRTOS/Source/stream_buffer.c **** 				xReturn = pdPASS;
 612              		.loc 1 423 13
 613 0062 0123     		movs	r3, #1
 614 0064 7B61     		str	r3, [r7, #20]
 424:Middlewares/Third_Party/FreeRTOS/Source/stream_buffer.c **** 
 425:Middlewares/Third_Party/FreeRTOS/Source/stream_buffer.c **** 				#if( configUSE_TRACE_FACILITY == 1 )
 426:Middlewares/Third_Party/FreeRTOS/Source/stream_buffer.c **** 				{
 427:Middlewares/Third_Party/FreeRTOS/Source/stream_buffer.c **** 					pxStreamBuffer->uxStreamBufferNumber = uxStreamBufferNumber;
 615              		.loc 1 427 43
 616 0066 3B69     		ldr	r3, [r7, #16]
 617 0068 FA68     		ldr	r2, [r7, #12]
 618 006a 1A62     		str	r2, [r3, #32]
 428:Middlewares/Third_Party/FreeRTOS/Source/stream_buffer.c **** 				}
 429:Middlewares/Third_Party/FreeRTOS/Source/stream_buffer.c **** 				#endif
 430:Middlewares/Third_Party/FreeRTOS/Source/stream_buffer.c **** 
ARM GAS  C:\Users\Halil\AppData\Local\Temp\ccdYOoXG.s 			page 23


 431:Middlewares/Third_Party/FreeRTOS/Source/stream_buffer.c **** 				traceSTREAM_BUFFER_RESET( xStreamBuffer );
 619              		.loc 1 431 5
 620 006c 7B68     		ldr	r3, [r7, #4]
 621 006e 1946     		mov	r1, r3
 622 0070 8B20     		movs	r0, #139
 623 0072 FFF7FEFF 		bl	SEGGER_SYSVIEW_RecordU32
 624              	.L38:
 432:Middlewares/Third_Party/FreeRTOS/Source/stream_buffer.c **** 			}
 433:Middlewares/Third_Party/FreeRTOS/Source/stream_buffer.c **** 		}
 434:Middlewares/Third_Party/FreeRTOS/Source/stream_buffer.c **** 	}
 435:Middlewares/Third_Party/FreeRTOS/Source/stream_buffer.c **** 	taskEXIT_CRITICAL();
 625              		.loc 1 435 2
 626 0076 FFF7FEFF 		bl	vPortExitCritical
 436:Middlewares/Third_Party/FreeRTOS/Source/stream_buffer.c **** 
 437:Middlewares/Third_Party/FreeRTOS/Source/stream_buffer.c **** 	return xReturn;
 627              		.loc 1 437 9
 628 007a 7B69     		ldr	r3, [r7, #20]
 438:Middlewares/Third_Party/FreeRTOS/Source/stream_buffer.c **** }
 629              		.loc 1 438 1
 630 007c 1846     		mov	r0, r3
 631 007e 1837     		adds	r7, r7, #24
 632              		.cfi_def_cfa_offset 8
 633 0080 BD46     		mov	sp, r7
 634              		.cfi_def_cfa_register 13
 635              		@ sp needed
 636 0082 80BD     		pop	{r7, pc}
 637              		.cfi_endproc
 638              	.LFE7:
 640              		.section	.text.xStreamBufferSetTriggerLevel,"ax",%progbits
 641              		.align	1
 642              		.global	xStreamBufferSetTriggerLevel
 643              		.syntax unified
 644              		.thumb
 645              		.thumb_func
 647              	xStreamBufferSetTriggerLevel:
 648              	.LFB8:
 439:Middlewares/Third_Party/FreeRTOS/Source/stream_buffer.c **** /*-----------------------------------------------------------*/
 440:Middlewares/Third_Party/FreeRTOS/Source/stream_buffer.c **** 
 441:Middlewares/Third_Party/FreeRTOS/Source/stream_buffer.c **** BaseType_t xStreamBufferSetTriggerLevel( StreamBufferHandle_t xStreamBuffer, size_t xTriggerLevel )
 442:Middlewares/Third_Party/FreeRTOS/Source/stream_buffer.c **** {
 649              		.loc 1 442 1
 650              		.cfi_startproc
 651              		@ args = 0, pretend = 0, frame = 24
 652              		@ frame_needed = 1, uses_anonymous_args = 0
 653              		@ link register save eliminated.
 654 0000 80B4     		push	{r7}
 655              		.cfi_def_cfa_offset 4
 656              		.cfi_offset 7, -4
 657 0002 87B0     		sub	sp, sp, #28
 658              		.cfi_def_cfa_offset 32
 659 0004 00AF     		add	r7, sp, #0
 660              		.cfi_def_cfa_register 7
 661 0006 7860     		str	r0, [r7, #4]
 662 0008 3960     		str	r1, [r7]
 443:Middlewares/Third_Party/FreeRTOS/Source/stream_buffer.c **** StreamBuffer_t * const pxStreamBuffer = xStreamBuffer;
 663              		.loc 1 443 24
 664 000a 7B68     		ldr	r3, [r7, #4]
ARM GAS  C:\Users\Halil\AppData\Local\Temp\ccdYOoXG.s 			page 24


 665 000c 3B61     		str	r3, [r7, #16]
 444:Middlewares/Third_Party/FreeRTOS/Source/stream_buffer.c **** BaseType_t xReturn;
 445:Middlewares/Third_Party/FreeRTOS/Source/stream_buffer.c **** 
 446:Middlewares/Third_Party/FreeRTOS/Source/stream_buffer.c **** 	configASSERT( pxStreamBuffer );
 666              		.loc 1 446 2
 667 000e 3B69     		ldr	r3, [r7, #16]
 668 0010 002B     		cmp	r3, #0
 669 0012 0BD1     		bne	.L41
 670              	.LBB117:
 671              	.LBB118:
 195:Middlewares/Third_Party/FreeRTOS/Source/portable/GCC/ARM_CM4F/portmacro.h **** 	(
 672              		.loc 2 195 2
 673              		.syntax unified
 674              	@ 195 "Middlewares/Third_Party/FreeRTOS/Source/portable/GCC/ARM_CM4F/portmacro.h" 1
 675 0014 4FF05003 			mov r3, #80												
 676 0018 83F31188 		msr basepri, r3											
 677 001c BFF36F8F 		isb														
 678 0020 BFF34F8F 		dsb														
 679              	
 680              	@ 0 "" 2
 681              		.thumb
 682              		.syntax unified
 683 0024 FB60     		str	r3, [r7, #12]
 684              		.loc 2 203 1
 685 0026 00BF     		nop
 686              	.L42:
 687              	.LBE118:
 688              	.LBE117:
 689              		.loc 1 446 2 discriminator 1
 690 0028 00BF     		nop
 691 002a FDE7     		b	.L42
 692              	.L41:
 447:Middlewares/Third_Party/FreeRTOS/Source/stream_buffer.c **** 
 448:Middlewares/Third_Party/FreeRTOS/Source/stream_buffer.c **** 	/* It is not valid for the trigger level to be 0. */
 449:Middlewares/Third_Party/FreeRTOS/Source/stream_buffer.c **** 	if( xTriggerLevel == ( size_t ) 0 )
 693              		.loc 1 449 4
 694 002c 3B68     		ldr	r3, [r7]
 695 002e 002B     		cmp	r3, #0
 696 0030 01D1     		bne	.L43
 450:Middlewares/Third_Party/FreeRTOS/Source/stream_buffer.c **** 	{
 451:Middlewares/Third_Party/FreeRTOS/Source/stream_buffer.c **** 		xTriggerLevel = ( size_t ) 1;
 697              		.loc 1 451 17
 698 0032 0123     		movs	r3, #1
 699 0034 3B60     		str	r3, [r7]
 700              	.L43:
 452:Middlewares/Third_Party/FreeRTOS/Source/stream_buffer.c **** 	}
 453:Middlewares/Third_Party/FreeRTOS/Source/stream_buffer.c **** 
 454:Middlewares/Third_Party/FreeRTOS/Source/stream_buffer.c **** 	/* The trigger level is the number of bytes that must be in the stream
 455:Middlewares/Third_Party/FreeRTOS/Source/stream_buffer.c **** 	buffer before a task that is waiting for data is unblocked. */
 456:Middlewares/Third_Party/FreeRTOS/Source/stream_buffer.c **** 	if( xTriggerLevel <= pxStreamBuffer->xLength )
 701              		.loc 1 456 37
 702 0036 3B69     		ldr	r3, [r7, #16]
 703 0038 9B68     		ldr	r3, [r3, #8]
 704              		.loc 1 456 4
 705 003a 3A68     		ldr	r2, [r7]
 706 003c 9A42     		cmp	r2, r3
 707 003e 05D8     		bhi	.L44
ARM GAS  C:\Users\Halil\AppData\Local\Temp\ccdYOoXG.s 			page 25


 457:Middlewares/Third_Party/FreeRTOS/Source/stream_buffer.c **** 	{
 458:Middlewares/Third_Party/FreeRTOS/Source/stream_buffer.c **** 		pxStreamBuffer->xTriggerLevelBytes = xTriggerLevel;
 708              		.loc 1 458 38
 709 0040 3B69     		ldr	r3, [r7, #16]
 710 0042 3A68     		ldr	r2, [r7]
 711 0044 DA60     		str	r2, [r3, #12]
 459:Middlewares/Third_Party/FreeRTOS/Source/stream_buffer.c **** 		xReturn = pdPASS;
 712              		.loc 1 459 11
 713 0046 0123     		movs	r3, #1
 714 0048 7B61     		str	r3, [r7, #20]
 715 004a 01E0     		b	.L45
 716              	.L44:
 460:Middlewares/Third_Party/FreeRTOS/Source/stream_buffer.c **** 	}
 461:Middlewares/Third_Party/FreeRTOS/Source/stream_buffer.c **** 	else
 462:Middlewares/Third_Party/FreeRTOS/Source/stream_buffer.c **** 	{
 463:Middlewares/Third_Party/FreeRTOS/Source/stream_buffer.c **** 		xReturn = pdFALSE;
 717              		.loc 1 463 11
 718 004c 0023     		movs	r3, #0
 719 004e 7B61     		str	r3, [r7, #20]
 720              	.L45:
 464:Middlewares/Third_Party/FreeRTOS/Source/stream_buffer.c **** 	}
 465:Middlewares/Third_Party/FreeRTOS/Source/stream_buffer.c **** 
 466:Middlewares/Third_Party/FreeRTOS/Source/stream_buffer.c **** 	return xReturn;
 721              		.loc 1 466 9
 722 0050 7B69     		ldr	r3, [r7, #20]
 467:Middlewares/Third_Party/FreeRTOS/Source/stream_buffer.c **** }
 723              		.loc 1 467 1
 724 0052 1846     		mov	r0, r3
 725 0054 1C37     		adds	r7, r7, #28
 726              		.cfi_def_cfa_offset 4
 727 0056 BD46     		mov	sp, r7
 728              		.cfi_def_cfa_register 13
 729              		@ sp needed
 730 0058 5DF8047B 		ldr	r7, [sp], #4
 731              		.cfi_restore 7
 732              		.cfi_def_cfa_offset 0
 733 005c 7047     		bx	lr
 734              		.cfi_endproc
 735              	.LFE8:
 737              		.section	.text.xStreamBufferSpacesAvailable,"ax",%progbits
 738              		.align	1
 739              		.global	xStreamBufferSpacesAvailable
 740              		.syntax unified
 741              		.thumb
 742              		.thumb_func
 744              	xStreamBufferSpacesAvailable:
 745              	.LFB9:
 468:Middlewares/Third_Party/FreeRTOS/Source/stream_buffer.c **** /*-----------------------------------------------------------*/
 469:Middlewares/Third_Party/FreeRTOS/Source/stream_buffer.c **** 
 470:Middlewares/Third_Party/FreeRTOS/Source/stream_buffer.c **** size_t xStreamBufferSpacesAvailable( StreamBufferHandle_t xStreamBuffer )
 471:Middlewares/Third_Party/FreeRTOS/Source/stream_buffer.c **** {
 746              		.loc 1 471 1
 747              		.cfi_startproc
 748              		@ args = 0, pretend = 0, frame = 24
 749              		@ frame_needed = 1, uses_anonymous_args = 0
 750              		@ link register save eliminated.
 751 0000 80B4     		push	{r7}
ARM GAS  C:\Users\Halil\AppData\Local\Temp\ccdYOoXG.s 			page 26


 752              		.cfi_def_cfa_offset 4
 753              		.cfi_offset 7, -4
 754 0002 87B0     		sub	sp, sp, #28
 755              		.cfi_def_cfa_offset 32
 756 0004 00AF     		add	r7, sp, #0
 757              		.cfi_def_cfa_register 7
 758 0006 7860     		str	r0, [r7, #4]
 472:Middlewares/Third_Party/FreeRTOS/Source/stream_buffer.c **** const StreamBuffer_t * const pxStreamBuffer = xStreamBuffer;
 759              		.loc 1 472 30
 760 0008 7B68     		ldr	r3, [r7, #4]
 761 000a 3B61     		str	r3, [r7, #16]
 473:Middlewares/Third_Party/FreeRTOS/Source/stream_buffer.c **** size_t xSpace;
 474:Middlewares/Third_Party/FreeRTOS/Source/stream_buffer.c **** 
 475:Middlewares/Third_Party/FreeRTOS/Source/stream_buffer.c **** 	configASSERT( pxStreamBuffer );
 762              		.loc 1 475 2
 763 000c 3B69     		ldr	r3, [r7, #16]
 764 000e 002B     		cmp	r3, #0
 765 0010 0BD1     		bne	.L48
 766              	.LBB119:
 767              	.LBB120:
 195:Middlewares/Third_Party/FreeRTOS/Source/portable/GCC/ARM_CM4F/portmacro.h **** 	(
 768              		.loc 2 195 2
 769              		.syntax unified
 770              	@ 195 "Middlewares/Third_Party/FreeRTOS/Source/portable/GCC/ARM_CM4F/portmacro.h" 1
 771 0012 4FF05003 			mov r3, #80												
 772 0016 83F31188 		msr basepri, r3											
 773 001a BFF36F8F 		isb														
 774 001e BFF34F8F 		dsb														
 775              	
 776              	@ 0 "" 2
 777              		.thumb
 778              		.syntax unified
 779 0022 FB60     		str	r3, [r7, #12]
 780              		.loc 2 203 1
 781 0024 00BF     		nop
 782              	.L49:
 783              	.LBE120:
 784              	.LBE119:
 785              		.loc 1 475 2 discriminator 1
 786 0026 00BF     		nop
 787 0028 FDE7     		b	.L49
 788              	.L48:
 476:Middlewares/Third_Party/FreeRTOS/Source/stream_buffer.c **** 
 477:Middlewares/Third_Party/FreeRTOS/Source/stream_buffer.c **** 	xSpace = pxStreamBuffer->xLength + pxStreamBuffer->xTail;
 789              		.loc 1 477 25
 790 002a 3B69     		ldr	r3, [r7, #16]
 791 002c 9A68     		ldr	r2, [r3, #8]
 792              		.loc 1 477 51
 793 002e 3B69     		ldr	r3, [r7, #16]
 794 0030 1B68     		ldr	r3, [r3]
 795              		.loc 1 477 9
 796 0032 1344     		add	r3, r3, r2
 797 0034 7B61     		str	r3, [r7, #20]
 478:Middlewares/Third_Party/FreeRTOS/Source/stream_buffer.c **** 	xSpace -= pxStreamBuffer->xHead;
 798              		.loc 1 478 26
 799 0036 3B69     		ldr	r3, [r7, #16]
 800 0038 5B68     		ldr	r3, [r3, #4]
ARM GAS  C:\Users\Halil\AppData\Local\Temp\ccdYOoXG.s 			page 27


 801              		.loc 1 478 9
 802 003a 7A69     		ldr	r2, [r7, #20]
 803 003c D31A     		subs	r3, r2, r3
 804 003e 7B61     		str	r3, [r7, #20]
 479:Middlewares/Third_Party/FreeRTOS/Source/stream_buffer.c **** 	xSpace -= ( size_t ) 1;
 805              		.loc 1 479 9
 806 0040 7B69     		ldr	r3, [r7, #20]
 807 0042 013B     		subs	r3, r3, #1
 808 0044 7B61     		str	r3, [r7, #20]
 480:Middlewares/Third_Party/FreeRTOS/Source/stream_buffer.c **** 
 481:Middlewares/Third_Party/FreeRTOS/Source/stream_buffer.c **** 	if( xSpace >= pxStreamBuffer->xLength )
 809              		.loc 1 481 30
 810 0046 3B69     		ldr	r3, [r7, #16]
 811 0048 9B68     		ldr	r3, [r3, #8]
 812              		.loc 1 481 4
 813 004a 7A69     		ldr	r2, [r7, #20]
 814 004c 9A42     		cmp	r2, r3
 815 004e 04D3     		bcc	.L50
 482:Middlewares/Third_Party/FreeRTOS/Source/stream_buffer.c **** 	{
 483:Middlewares/Third_Party/FreeRTOS/Source/stream_buffer.c **** 		xSpace -= pxStreamBuffer->xLength;
 816              		.loc 1 483 27
 817 0050 3B69     		ldr	r3, [r7, #16]
 818 0052 9B68     		ldr	r3, [r3, #8]
 819              		.loc 1 483 10
 820 0054 7A69     		ldr	r2, [r7, #20]
 821 0056 D31A     		subs	r3, r2, r3
 822 0058 7B61     		str	r3, [r7, #20]
 823              	.L50:
 484:Middlewares/Third_Party/FreeRTOS/Source/stream_buffer.c **** 	}
 485:Middlewares/Third_Party/FreeRTOS/Source/stream_buffer.c **** 	else
 486:Middlewares/Third_Party/FreeRTOS/Source/stream_buffer.c **** 	{
 487:Middlewares/Third_Party/FreeRTOS/Source/stream_buffer.c **** 		mtCOVERAGE_TEST_MARKER();
 488:Middlewares/Third_Party/FreeRTOS/Source/stream_buffer.c **** 	}
 489:Middlewares/Third_Party/FreeRTOS/Source/stream_buffer.c **** 
 490:Middlewares/Third_Party/FreeRTOS/Source/stream_buffer.c **** 	return xSpace;
 824              		.loc 1 490 9
 825 005a 7B69     		ldr	r3, [r7, #20]
 491:Middlewares/Third_Party/FreeRTOS/Source/stream_buffer.c **** }
 826              		.loc 1 491 1
 827 005c 1846     		mov	r0, r3
 828 005e 1C37     		adds	r7, r7, #28
 829              		.cfi_def_cfa_offset 4
 830 0060 BD46     		mov	sp, r7
 831              		.cfi_def_cfa_register 13
 832              		@ sp needed
 833 0062 5DF8047B 		ldr	r7, [sp], #4
 834              		.cfi_restore 7
 835              		.cfi_def_cfa_offset 0
 836 0066 7047     		bx	lr
 837              		.cfi_endproc
 838              	.LFE9:
 840              		.section	.text.xStreamBufferBytesAvailable,"ax",%progbits
 841              		.align	1
 842              		.global	xStreamBufferBytesAvailable
 843              		.syntax unified
 844              		.thumb
 845              		.thumb_func
ARM GAS  C:\Users\Halil\AppData\Local\Temp\ccdYOoXG.s 			page 28


 847              	xStreamBufferBytesAvailable:
 848              	.LFB10:
 492:Middlewares/Third_Party/FreeRTOS/Source/stream_buffer.c **** /*-----------------------------------------------------------*/
 493:Middlewares/Third_Party/FreeRTOS/Source/stream_buffer.c **** 
 494:Middlewares/Third_Party/FreeRTOS/Source/stream_buffer.c **** size_t xStreamBufferBytesAvailable( StreamBufferHandle_t xStreamBuffer )
 495:Middlewares/Third_Party/FreeRTOS/Source/stream_buffer.c **** {
 849              		.loc 1 495 1
 850              		.cfi_startproc
 851              		@ args = 0, pretend = 0, frame = 24
 852              		@ frame_needed = 1, uses_anonymous_args = 0
 853 0000 80B5     		push	{r7, lr}
 854              		.cfi_def_cfa_offset 8
 855              		.cfi_offset 7, -8
 856              		.cfi_offset 14, -4
 857 0002 86B0     		sub	sp, sp, #24
 858              		.cfi_def_cfa_offset 32
 859 0004 00AF     		add	r7, sp, #0
 860              		.cfi_def_cfa_register 7
 861 0006 7860     		str	r0, [r7, #4]
 496:Middlewares/Third_Party/FreeRTOS/Source/stream_buffer.c **** const StreamBuffer_t * const pxStreamBuffer = xStreamBuffer;
 862              		.loc 1 496 30
 863 0008 7B68     		ldr	r3, [r7, #4]
 864 000a 7B61     		str	r3, [r7, #20]
 497:Middlewares/Third_Party/FreeRTOS/Source/stream_buffer.c **** size_t xReturn;
 498:Middlewares/Third_Party/FreeRTOS/Source/stream_buffer.c **** 
 499:Middlewares/Third_Party/FreeRTOS/Source/stream_buffer.c **** 	configASSERT( pxStreamBuffer );
 865              		.loc 1 499 2
 866 000c 7B69     		ldr	r3, [r7, #20]
 867 000e 002B     		cmp	r3, #0
 868 0010 0BD1     		bne	.L53
 869              	.LBB121:
 870              	.LBB122:
 195:Middlewares/Third_Party/FreeRTOS/Source/portable/GCC/ARM_CM4F/portmacro.h **** 	(
 871              		.loc 2 195 2
 872              		.syntax unified
 873              	@ 195 "Middlewares/Third_Party/FreeRTOS/Source/portable/GCC/ARM_CM4F/portmacro.h" 1
 874 0012 4FF05003 			mov r3, #80												
 875 0016 83F31188 		msr basepri, r3											
 876 001a BFF36F8F 		isb														
 877 001e BFF34F8F 		dsb														
 878              	
 879              	@ 0 "" 2
 880              		.thumb
 881              		.syntax unified
 882 0022 FB60     		str	r3, [r7, #12]
 883              		.loc 2 203 1
 884 0024 00BF     		nop
 885              	.L54:
 886              	.LBE122:
 887              	.LBE121:
 888              		.loc 1 499 2 discriminator 1
 889 0026 00BF     		nop
 890 0028 FDE7     		b	.L54
 891              	.L53:
 500:Middlewares/Third_Party/FreeRTOS/Source/stream_buffer.c **** 
 501:Middlewares/Third_Party/FreeRTOS/Source/stream_buffer.c **** 	xReturn = prvBytesInBuffer( pxStreamBuffer );
 892              		.loc 1 501 12
ARM GAS  C:\Users\Halil\AppData\Local\Temp\ccdYOoXG.s 			page 29


 893 002a 7869     		ldr	r0, [r7, #20]
 894 002c FFF7FEFF 		bl	prvBytesInBuffer
 895 0030 3861     		str	r0, [r7, #16]
 502:Middlewares/Third_Party/FreeRTOS/Source/stream_buffer.c **** 	return xReturn;
 896              		.loc 1 502 9
 897 0032 3B69     		ldr	r3, [r7, #16]
 503:Middlewares/Third_Party/FreeRTOS/Source/stream_buffer.c **** }
 898              		.loc 1 503 1
 899 0034 1846     		mov	r0, r3
 900 0036 1837     		adds	r7, r7, #24
 901              		.cfi_def_cfa_offset 8
 902 0038 BD46     		mov	sp, r7
 903              		.cfi_def_cfa_register 13
 904              		@ sp needed
 905 003a 80BD     		pop	{r7, pc}
 906              		.cfi_endproc
 907              	.LFE10:
 909              		.section	.text.xStreamBufferSend,"ax",%progbits
 910              		.align	1
 911              		.global	xStreamBufferSend
 912              		.syntax unified
 913              		.thumb
 914              		.thumb_func
 916              	xStreamBufferSend:
 917              	.LFB11:
 504:Middlewares/Third_Party/FreeRTOS/Source/stream_buffer.c **** /*-----------------------------------------------------------*/
 505:Middlewares/Third_Party/FreeRTOS/Source/stream_buffer.c **** 
 506:Middlewares/Third_Party/FreeRTOS/Source/stream_buffer.c **** size_t xStreamBufferSend( StreamBufferHandle_t xStreamBuffer,
 507:Middlewares/Third_Party/FreeRTOS/Source/stream_buffer.c **** 						  const void *pvTxData,
 508:Middlewares/Third_Party/FreeRTOS/Source/stream_buffer.c **** 						  size_t xDataLengthBytes,
 509:Middlewares/Third_Party/FreeRTOS/Source/stream_buffer.c **** 						  TickType_t xTicksToWait )
 510:Middlewares/Third_Party/FreeRTOS/Source/stream_buffer.c **** {
 918              		.loc 1 510 1
 919              		.cfi_startproc
 920              		@ args = 0, pretend = 0, frame = 56
 921              		@ frame_needed = 1, uses_anonymous_args = 0
 922 0000 80B5     		push	{r7, lr}
 923              		.cfi_def_cfa_offset 8
 924              		.cfi_offset 7, -8
 925              		.cfi_offset 14, -4
 926 0002 90B0     		sub	sp, sp, #64
 927              		.cfi_def_cfa_offset 72
 928 0004 02AF     		add	r7, sp, #8
 929              		.cfi_def_cfa 7, 64
 930 0006 F860     		str	r0, [r7, #12]
 931 0008 B960     		str	r1, [r7, #8]
 932 000a 7A60     		str	r2, [r7, #4]
 933 000c 3B60     		str	r3, [r7]
 511:Middlewares/Third_Party/FreeRTOS/Source/stream_buffer.c **** StreamBuffer_t * const pxStreamBuffer = xStreamBuffer;
 934              		.loc 1 511 24
 935 000e FB68     		ldr	r3, [r7, #12]
 936 0010 FB62     		str	r3, [r7, #44]
 512:Middlewares/Third_Party/FreeRTOS/Source/stream_buffer.c **** size_t xReturn, xSpace = 0;
 937              		.loc 1 512 17
 938 0012 0023     		movs	r3, #0
 939 0014 7B63     		str	r3, [r7, #52]
 513:Middlewares/Third_Party/FreeRTOS/Source/stream_buffer.c **** size_t xRequiredSpace = xDataLengthBytes;
ARM GAS  C:\Users\Halil\AppData\Local\Temp\ccdYOoXG.s 			page 30


 940              		.loc 1 513 8
 941 0016 7B68     		ldr	r3, [r7, #4]
 942 0018 3B63     		str	r3, [r7, #48]
 514:Middlewares/Third_Party/FreeRTOS/Source/stream_buffer.c **** TimeOut_t xTimeOut;
 515:Middlewares/Third_Party/FreeRTOS/Source/stream_buffer.c **** 
 516:Middlewares/Third_Party/FreeRTOS/Source/stream_buffer.c **** 	configASSERT( pvTxData );
 943              		.loc 1 516 2
 944 001a BB68     		ldr	r3, [r7, #8]
 945 001c 002B     		cmp	r3, #0
 946 001e 0BD1     		bne	.L57
 947              	.LBB123:
 948              	.LBB124:
 195:Middlewares/Third_Party/FreeRTOS/Source/portable/GCC/ARM_CM4F/portmacro.h **** 	(
 949              		.loc 2 195 2
 950              		.syntax unified
 951              	@ 195 "Middlewares/Third_Party/FreeRTOS/Source/portable/GCC/ARM_CM4F/portmacro.h" 1
 952 0020 4FF05003 			mov r3, #80												
 953 0024 83F31188 		msr basepri, r3											
 954 0028 BFF36F8F 		isb														
 955 002c BFF34F8F 		dsb														
 956              	
 957              	@ 0 "" 2
 958              		.thumb
 959              		.syntax unified
 960 0030 7B62     		str	r3, [r7, #36]
 961              		.loc 2 203 1
 962 0032 00BF     		nop
 963              	.L58:
 964              	.LBE124:
 965              	.LBE123:
 966              		.loc 1 516 2 discriminator 1
 967 0034 00BF     		nop
 968 0036 FDE7     		b	.L58
 969              	.L57:
 517:Middlewares/Third_Party/FreeRTOS/Source/stream_buffer.c **** 	configASSERT( pxStreamBuffer );
 970              		.loc 1 517 2
 971 0038 FB6A     		ldr	r3, [r7, #44]
 972 003a 002B     		cmp	r3, #0
 973 003c 0BD1     		bne	.L59
 974              	.LBB125:
 975              	.LBB126:
 195:Middlewares/Third_Party/FreeRTOS/Source/portable/GCC/ARM_CM4F/portmacro.h **** 	(
 976              		.loc 2 195 2
 977              		.syntax unified
 978              	@ 195 "Middlewares/Third_Party/FreeRTOS/Source/portable/GCC/ARM_CM4F/portmacro.h" 1
 979 003e 4FF05003 			mov r3, #80												
 980 0042 83F31188 		msr basepri, r3											
 981 0046 BFF36F8F 		isb														
 982 004a BFF34F8F 		dsb														
 983              	
 984              	@ 0 "" 2
 985              		.thumb
 986              		.syntax unified
 987 004e 3B62     		str	r3, [r7, #32]
 988              		.loc 2 203 1
 989 0050 00BF     		nop
 990              	.L60:
ARM GAS  C:\Users\Halil\AppData\Local\Temp\ccdYOoXG.s 			page 31


 991              	.LBE126:
 992              	.LBE125:
 993              		.loc 1 517 2 discriminator 2
 994 0052 00BF     		nop
 995 0054 FDE7     		b	.L60
 996              	.L59:
 518:Middlewares/Third_Party/FreeRTOS/Source/stream_buffer.c **** 
 519:Middlewares/Third_Party/FreeRTOS/Source/stream_buffer.c **** 	/* This send function is used to write to both message buffers and stream
 520:Middlewares/Third_Party/FreeRTOS/Source/stream_buffer.c **** 	buffers.  If this is a message buffer then the space needed must be
 521:Middlewares/Third_Party/FreeRTOS/Source/stream_buffer.c **** 	increased by the amount of bytes needed to store the length of the
 522:Middlewares/Third_Party/FreeRTOS/Source/stream_buffer.c **** 	message. */
 523:Middlewares/Third_Party/FreeRTOS/Source/stream_buffer.c **** 	if( ( pxStreamBuffer->ucFlags & sbFLAGS_IS_MESSAGE_BUFFER ) != ( uint8_t ) 0 )
 997              		.loc 1 523 22
 998 0056 FB6A     		ldr	r3, [r7, #44]
 999 0058 1B7F     		ldrb	r3, [r3, #28]	@ zero_extendqisi2
 1000              		.loc 1 523 32
 1001 005a 03F00103 		and	r3, r3, #1
 1002              		.loc 1 523 4
 1003 005e 002B     		cmp	r3, #0
 1004 0060 12D0     		beq	.L61
 524:Middlewares/Third_Party/FreeRTOS/Source/stream_buffer.c **** 	{
 525:Middlewares/Third_Party/FreeRTOS/Source/stream_buffer.c **** 		xRequiredSpace += sbBYTES_TO_STORE_MESSAGE_LENGTH;
 1005              		.loc 1 525 18
 1006 0062 3B6B     		ldr	r3, [r7, #48]
 1007 0064 0433     		adds	r3, r3, #4
 1008 0066 3B63     		str	r3, [r7, #48]
 526:Middlewares/Third_Party/FreeRTOS/Source/stream_buffer.c **** 
 527:Middlewares/Third_Party/FreeRTOS/Source/stream_buffer.c **** 		/* Overflow? */
 528:Middlewares/Third_Party/FreeRTOS/Source/stream_buffer.c **** 		configASSERT( xRequiredSpace > xDataLengthBytes );
 1009              		.loc 1 528 3
 1010 0068 3A6B     		ldr	r2, [r7, #48]
 1011 006a 7B68     		ldr	r3, [r7, #4]
 1012 006c 9A42     		cmp	r2, r3
 1013 006e 0BD8     		bhi	.L61
 1014              	.LBB127:
 1015              	.LBB128:
 195:Middlewares/Third_Party/FreeRTOS/Source/portable/GCC/ARM_CM4F/portmacro.h **** 	(
 1016              		.loc 2 195 2
 1017              		.syntax unified
 1018              	@ 195 "Middlewares/Third_Party/FreeRTOS/Source/portable/GCC/ARM_CM4F/portmacro.h" 1
 1019 0070 4FF05003 			mov r3, #80												
 1020 0074 83F31188 		msr basepri, r3											
 1021 0078 BFF36F8F 		isb														
 1022 007c BFF34F8F 		dsb														
 1023              	
 1024              	@ 0 "" 2
 1025              		.thumb
 1026              		.syntax unified
 1027 0080 FB61     		str	r3, [r7, #28]
 1028              		.loc 2 203 1
 1029 0082 00BF     		nop
 1030              	.L62:
 1031              	.LBE128:
 1032              	.LBE127:
 1033              		.loc 1 528 3 discriminator 3
 1034 0084 00BF     		nop
 1035 0086 FDE7     		b	.L62
ARM GAS  C:\Users\Halil\AppData\Local\Temp\ccdYOoXG.s 			page 32


 1036              	.L61:
 529:Middlewares/Third_Party/FreeRTOS/Source/stream_buffer.c **** 	}
 530:Middlewares/Third_Party/FreeRTOS/Source/stream_buffer.c **** 	else
 531:Middlewares/Third_Party/FreeRTOS/Source/stream_buffer.c **** 	{
 532:Middlewares/Third_Party/FreeRTOS/Source/stream_buffer.c **** 		mtCOVERAGE_TEST_MARKER();
 533:Middlewares/Third_Party/FreeRTOS/Source/stream_buffer.c **** 	}
 534:Middlewares/Third_Party/FreeRTOS/Source/stream_buffer.c **** 
 535:Middlewares/Third_Party/FreeRTOS/Source/stream_buffer.c **** 	if( xTicksToWait != ( TickType_t ) 0 )
 1037              		.loc 1 535 19
 1038 0088 3B68     		ldr	r3, [r7]
 1039              		.loc 1 535 4
 1040 008a 002B     		cmp	r3, #0
 1041 008c 3FD0     		beq	.L63
 536:Middlewares/Third_Party/FreeRTOS/Source/stream_buffer.c **** 	{
 537:Middlewares/Third_Party/FreeRTOS/Source/stream_buffer.c **** 		vTaskSetTimeOutState( &xTimeOut );
 1042              		.loc 1 537 3
 1043 008e 07F11003 		add	r3, r7, #16
 1044 0092 1846     		mov	r0, r3
 1045 0094 FFF7FEFF 		bl	vTaskSetTimeOutState
 1046              	.L69:
 538:Middlewares/Third_Party/FreeRTOS/Source/stream_buffer.c **** 
 539:Middlewares/Third_Party/FreeRTOS/Source/stream_buffer.c **** 		do
 540:Middlewares/Third_Party/FreeRTOS/Source/stream_buffer.c **** 		{
 541:Middlewares/Third_Party/FreeRTOS/Source/stream_buffer.c **** 			/* Wait until the required number of bytes are free in the message
 542:Middlewares/Third_Party/FreeRTOS/Source/stream_buffer.c **** 			buffer. */
 543:Middlewares/Third_Party/FreeRTOS/Source/stream_buffer.c **** 			taskENTER_CRITICAL();
 1047              		.loc 1 543 4
 1048 0098 FFF7FEFF 		bl	vPortEnterCritical
 544:Middlewares/Third_Party/FreeRTOS/Source/stream_buffer.c **** 			{
 545:Middlewares/Third_Party/FreeRTOS/Source/stream_buffer.c **** 				xSpace = xStreamBufferSpacesAvailable( pxStreamBuffer );
 1049              		.loc 1 545 14
 1050 009c F86A     		ldr	r0, [r7, #44]
 1051 009e FFF7FEFF 		bl	xStreamBufferSpacesAvailable
 1052 00a2 7863     		str	r0, [r7, #52]
 546:Middlewares/Third_Party/FreeRTOS/Source/stream_buffer.c **** 
 547:Middlewares/Third_Party/FreeRTOS/Source/stream_buffer.c **** 				if( xSpace < xRequiredSpace )
 1053              		.loc 1 547 7
 1054 00a4 7A6B     		ldr	r2, [r7, #52]
 1055 00a6 3B6B     		ldr	r3, [r7, #48]
 1056 00a8 9A42     		cmp	r2, r3
 1057 00aa 18D2     		bcs	.L64
 548:Middlewares/Third_Party/FreeRTOS/Source/stream_buffer.c **** 				{
 549:Middlewares/Third_Party/FreeRTOS/Source/stream_buffer.c **** 					/* Clear notification state as going to wait for space. */
 550:Middlewares/Third_Party/FreeRTOS/Source/stream_buffer.c **** 					( void ) xTaskNotifyStateClear( NULL );
 1058              		.loc 1 550 15
 1059 00ac 0020     		movs	r0, #0
 1060 00ae FFF7FEFF 		bl	xTaskNotifyStateClear
 551:Middlewares/Third_Party/FreeRTOS/Source/stream_buffer.c **** 
 552:Middlewares/Third_Party/FreeRTOS/Source/stream_buffer.c **** 					/* Should only be one writer. */
 553:Middlewares/Third_Party/FreeRTOS/Source/stream_buffer.c **** 					configASSERT( pxStreamBuffer->xTaskWaitingToSend == NULL );
 1061              		.loc 1 553 6
 1062 00b2 FB6A     		ldr	r3, [r7, #44]
 1063 00b4 5B69     		ldr	r3, [r3, #20]
 1064 00b6 002B     		cmp	r3, #0
 1065 00b8 0BD0     		beq	.L65
 1066              	.LBB129:
 1067              	.LBB130:
ARM GAS  C:\Users\Halil\AppData\Local\Temp\ccdYOoXG.s 			page 33


 195:Middlewares/Third_Party/FreeRTOS/Source/portable/GCC/ARM_CM4F/portmacro.h **** 	(
 1068              		.loc 2 195 2
 1069              		.syntax unified
 1070              	@ 195 "Middlewares/Third_Party/FreeRTOS/Source/portable/GCC/ARM_CM4F/portmacro.h" 1
 1071 00ba 4FF05003 			mov r3, #80												
 1072 00be 83F31188 		msr basepri, r3											
 1073 00c2 BFF36F8F 		isb														
 1074 00c6 BFF34F8F 		dsb														
 1075              	
 1076              	@ 0 "" 2
 1077              		.thumb
 1078              		.syntax unified
 1079 00ca BB61     		str	r3, [r7, #24]
 1080              		.loc 2 203 1
 1081 00cc 00BF     		nop
 1082              	.L66:
 1083              	.LBE130:
 1084              	.LBE129:
 1085              		.loc 1 553 6 discriminator 4
 1086 00ce 00BF     		nop
 1087 00d0 FDE7     		b	.L66
 1088              	.L65:
 554:Middlewares/Third_Party/FreeRTOS/Source/stream_buffer.c **** 					pxStreamBuffer->xTaskWaitingToSend = xTaskGetCurrentTaskHandle();
 1089              		.loc 1 554 43
 1090 00d2 FFF7FEFF 		bl	xTaskGetCurrentTaskHandle
 1091 00d6 0246     		mov	r2, r0
 1092              		.loc 1 554 41
 1093 00d8 FB6A     		ldr	r3, [r7, #44]
 1094 00da 5A61     		str	r2, [r3, #20]
 1095 00dc 02E0     		b	.L75
 1096              	.L64:
 555:Middlewares/Third_Party/FreeRTOS/Source/stream_buffer.c **** 				}
 556:Middlewares/Third_Party/FreeRTOS/Source/stream_buffer.c **** 				else
 557:Middlewares/Third_Party/FreeRTOS/Source/stream_buffer.c **** 				{
 558:Middlewares/Third_Party/FreeRTOS/Source/stream_buffer.c **** 					taskEXIT_CRITICAL();
 1097              		.loc 1 558 6
 1098 00de FFF7FEFF 		bl	vPortExitCritical
 559:Middlewares/Third_Party/FreeRTOS/Source/stream_buffer.c **** 					break;
 1099              		.loc 1 559 6
 1100 00e2 14E0     		b	.L63
 1101              	.L75:
 560:Middlewares/Third_Party/FreeRTOS/Source/stream_buffer.c **** 				}
 561:Middlewares/Third_Party/FreeRTOS/Source/stream_buffer.c **** 			}
 562:Middlewares/Third_Party/FreeRTOS/Source/stream_buffer.c **** 			taskEXIT_CRITICAL();
 1102              		.loc 1 562 4
 1103 00e4 FFF7FEFF 		bl	vPortExitCritical
 563:Middlewares/Third_Party/FreeRTOS/Source/stream_buffer.c **** 
 564:Middlewares/Third_Party/FreeRTOS/Source/stream_buffer.c **** 			traceBLOCKING_ON_STREAM_BUFFER_SEND( xStreamBuffer );
 565:Middlewares/Third_Party/FreeRTOS/Source/stream_buffer.c **** 			( void ) xTaskNotifyWait( ( uint32_t ) 0, ( uint32_t ) 0, NULL, xTicksToWait );
 1104              		.loc 1 565 4
 1105 00e8 3B68     		ldr	r3, [r7]
 1106              		.loc 1 565 13
 1107 00ea 0022     		movs	r2, #0
 1108 00ec 0021     		movs	r1, #0
 1109 00ee 0020     		movs	r0, #0
 1110 00f0 FFF7FEFF 		bl	xTaskNotifyWait
 566:Middlewares/Third_Party/FreeRTOS/Source/stream_buffer.c **** 			pxStreamBuffer->xTaskWaitingToSend = NULL;
ARM GAS  C:\Users\Halil\AppData\Local\Temp\ccdYOoXG.s 			page 34


 1111              		.loc 1 566 39
 1112 00f4 FB6A     		ldr	r3, [r7, #44]
 1113 00f6 0022     		movs	r2, #0
 1114 00f8 5A61     		str	r2, [r3, #20]
 567:Middlewares/Third_Party/FreeRTOS/Source/stream_buffer.c **** 
 568:Middlewares/Third_Party/FreeRTOS/Source/stream_buffer.c **** 		} while( xTaskCheckForTimeOut( &xTimeOut, &xTicksToWait ) == pdFALSE );
 1115              		.loc 1 568 12
 1116 00fa 3A46     		mov	r2, r7
 1117 00fc 07F11003 		add	r3, r7, #16
 1118 0100 1146     		mov	r1, r2
 1119 0102 1846     		mov	r0, r3
 1120 0104 FFF7FEFF 		bl	xTaskCheckForTimeOut
 1121 0108 0346     		mov	r3, r0
 1122              		.loc 1 568 61
 1123 010a 002B     		cmp	r3, #0
 1124 010c C4D0     		beq	.L69
 1125              	.L63:
 569:Middlewares/Third_Party/FreeRTOS/Source/stream_buffer.c **** 	}
 570:Middlewares/Third_Party/FreeRTOS/Source/stream_buffer.c **** 	else
 571:Middlewares/Third_Party/FreeRTOS/Source/stream_buffer.c **** 	{
 572:Middlewares/Third_Party/FreeRTOS/Source/stream_buffer.c **** 		mtCOVERAGE_TEST_MARKER();
 573:Middlewares/Third_Party/FreeRTOS/Source/stream_buffer.c **** 	}
 574:Middlewares/Third_Party/FreeRTOS/Source/stream_buffer.c **** 
 575:Middlewares/Third_Party/FreeRTOS/Source/stream_buffer.c **** 	if( xSpace == ( size_t ) 0 )
 1126              		.loc 1 575 4
 1127 010e 7B6B     		ldr	r3, [r7, #52]
 1128 0110 002B     		cmp	r3, #0
 1129 0112 03D1     		bne	.L70
 576:Middlewares/Third_Party/FreeRTOS/Source/stream_buffer.c **** 	{
 577:Middlewares/Third_Party/FreeRTOS/Source/stream_buffer.c **** 		xSpace = xStreamBufferSpacesAvailable( pxStreamBuffer );
 1130              		.loc 1 577 12
 1131 0114 F86A     		ldr	r0, [r7, #44]
 1132 0116 FFF7FEFF 		bl	xStreamBufferSpacesAvailable
 1133 011a 7863     		str	r0, [r7, #52]
 1134              	.L70:
 578:Middlewares/Third_Party/FreeRTOS/Source/stream_buffer.c **** 	}
 579:Middlewares/Third_Party/FreeRTOS/Source/stream_buffer.c **** 	else
 580:Middlewares/Third_Party/FreeRTOS/Source/stream_buffer.c **** 	{
 581:Middlewares/Third_Party/FreeRTOS/Source/stream_buffer.c **** 		mtCOVERAGE_TEST_MARKER();
 582:Middlewares/Third_Party/FreeRTOS/Source/stream_buffer.c **** 	}
 583:Middlewares/Third_Party/FreeRTOS/Source/stream_buffer.c **** 
 584:Middlewares/Third_Party/FreeRTOS/Source/stream_buffer.c **** 	xReturn = prvWriteMessageToBuffer( pxStreamBuffer, pvTxData, xDataLengthBytes, xSpace, xRequiredSp
 1135              		.loc 1 584 12
 1136 011c 3B6B     		ldr	r3, [r7, #48]
 1137 011e 0093     		str	r3, [sp]
 1138 0120 7B6B     		ldr	r3, [r7, #52]
 1139 0122 7A68     		ldr	r2, [r7, #4]
 1140 0124 B968     		ldr	r1, [r7, #8]
 1141 0126 F86A     		ldr	r0, [r7, #44]
 1142 0128 FFF7FEFF 		bl	prvWriteMessageToBuffer
 1143 012c B862     		str	r0, [r7, #40]
 585:Middlewares/Third_Party/FreeRTOS/Source/stream_buffer.c **** 
 586:Middlewares/Third_Party/FreeRTOS/Source/stream_buffer.c **** 	if( xReturn > ( size_t ) 0 )
 1144              		.loc 1 586 4
 1145 012e BB6A     		ldr	r3, [r7, #40]
 1146 0130 002B     		cmp	r3, #0
 1147 0132 20D0     		beq	.L71
ARM GAS  C:\Users\Halil\AppData\Local\Temp\ccdYOoXG.s 			page 35


 587:Middlewares/Third_Party/FreeRTOS/Source/stream_buffer.c **** 	{
 588:Middlewares/Third_Party/FreeRTOS/Source/stream_buffer.c **** 		traceSTREAM_BUFFER_SEND( xStreamBuffer, xReturn );
 1148              		.loc 1 588 3
 1149 0134 FB68     		ldr	r3, [r7, #12]
 1150 0136 BA6A     		ldr	r2, [r7, #40]
 1151 0138 1946     		mov	r1, r3
 1152 013a 8C20     		movs	r0, #140
 1153 013c FFF7FEFF 		bl	SEGGER_SYSVIEW_RecordU32x2
 589:Middlewares/Third_Party/FreeRTOS/Source/stream_buffer.c **** 
 590:Middlewares/Third_Party/FreeRTOS/Source/stream_buffer.c **** 		/* Was a task waiting for the data? */
 591:Middlewares/Third_Party/FreeRTOS/Source/stream_buffer.c **** 		if( prvBytesInBuffer( pxStreamBuffer ) >= pxStreamBuffer->xTriggerLevelBytes )
 1154              		.loc 1 591 7
 1155 0140 F86A     		ldr	r0, [r7, #44]
 1156 0142 FFF7FEFF 		bl	prvBytesInBuffer
 1157 0146 0246     		mov	r2, r0
 1158              		.loc 1 591 59
 1159 0148 FB6A     		ldr	r3, [r7, #44]
 1160 014a DB68     		ldr	r3, [r3, #12]
 1161              		.loc 1 591 5
 1162 014c 9A42     		cmp	r2, r3
 1163 014e 18D3     		bcc	.L72
 592:Middlewares/Third_Party/FreeRTOS/Source/stream_buffer.c **** 		{
 593:Middlewares/Third_Party/FreeRTOS/Source/stream_buffer.c **** 			sbSEND_COMPLETED( pxStreamBuffer );
 1164              		.loc 1 593 4
 1165 0150 FFF7FEFF 		bl	vTaskSuspendAll
 1166 0154 FB6A     		ldr	r3, [r7, #44]
 1167 0156 1B69     		ldr	r3, [r3, #16]
 1168 0158 002B     		cmp	r3, #0
 1169 015a 09D0     		beq	.L73
 1170              		.loc 1 593 4 is_stmt 0 discriminator 1
 1171 015c FB6A     		ldr	r3, [r7, #44]
 1172 015e 1869     		ldr	r0, [r3, #16]
 1173 0160 0023     		movs	r3, #0
 1174 0162 0022     		movs	r2, #0
 1175 0164 0021     		movs	r1, #0
 1176 0166 FFF7FEFF 		bl	xTaskGenericNotify
 1177 016a FB6A     		ldr	r3, [r7, #44]
 1178 016c 0022     		movs	r2, #0
 1179 016e 1A61     		str	r2, [r3, #16]
 1180              	.L73:
 1181              		.loc 1 593 4 discriminator 3
 1182 0170 FFF7FEFF 		bl	xTaskResumeAll
 1183 0174 05E0     		b	.L72
 1184              	.L71:
 594:Middlewares/Third_Party/FreeRTOS/Source/stream_buffer.c **** 		}
 595:Middlewares/Third_Party/FreeRTOS/Source/stream_buffer.c **** 		else
 596:Middlewares/Third_Party/FreeRTOS/Source/stream_buffer.c **** 		{
 597:Middlewares/Third_Party/FreeRTOS/Source/stream_buffer.c **** 			mtCOVERAGE_TEST_MARKER();
 598:Middlewares/Third_Party/FreeRTOS/Source/stream_buffer.c **** 		}
 599:Middlewares/Third_Party/FreeRTOS/Source/stream_buffer.c **** 	}
 600:Middlewares/Third_Party/FreeRTOS/Source/stream_buffer.c **** 	else
 601:Middlewares/Third_Party/FreeRTOS/Source/stream_buffer.c **** 	{
 602:Middlewares/Third_Party/FreeRTOS/Source/stream_buffer.c **** 		mtCOVERAGE_TEST_MARKER();
 603:Middlewares/Third_Party/FreeRTOS/Source/stream_buffer.c **** 		traceSTREAM_BUFFER_SEND_FAILED( xStreamBuffer );
 1185              		.loc 1 603 3 is_stmt 1
 1186 0176 FB68     		ldr	r3, [r7, #12]
 1187 0178 0022     		movs	r2, #0
ARM GAS  C:\Users\Halil\AppData\Local\Temp\ccdYOoXG.s 			page 36


 1188 017a 1946     		mov	r1, r3
 1189 017c 8C20     		movs	r0, #140
 1190 017e FFF7FEFF 		bl	SEGGER_SYSVIEW_RecordU32x2
 1191              	.L72:
 604:Middlewares/Third_Party/FreeRTOS/Source/stream_buffer.c **** 	}
 605:Middlewares/Third_Party/FreeRTOS/Source/stream_buffer.c **** 
 606:Middlewares/Third_Party/FreeRTOS/Source/stream_buffer.c **** 	return xReturn;
 1192              		.loc 1 606 9
 1193 0182 BB6A     		ldr	r3, [r7, #40]
 607:Middlewares/Third_Party/FreeRTOS/Source/stream_buffer.c **** }
 1194              		.loc 1 607 1
 1195 0184 1846     		mov	r0, r3
 1196 0186 3837     		adds	r7, r7, #56
 1197              		.cfi_def_cfa_offset 8
 1198 0188 BD46     		mov	sp, r7
 1199              		.cfi_def_cfa_register 13
 1200              		@ sp needed
 1201 018a 80BD     		pop	{r7, pc}
 1202              		.cfi_endproc
 1203              	.LFE11:
 1205              		.section	.text.xStreamBufferSendFromISR,"ax",%progbits
 1206              		.align	1
 1207              		.global	xStreamBufferSendFromISR
 1208              		.syntax unified
 1209              		.thumb
 1210              		.thumb_func
 1212              	xStreamBufferSendFromISR:
 1213              	.LFB12:
 608:Middlewares/Third_Party/FreeRTOS/Source/stream_buffer.c **** /*-----------------------------------------------------------*/
 609:Middlewares/Third_Party/FreeRTOS/Source/stream_buffer.c **** 
 610:Middlewares/Third_Party/FreeRTOS/Source/stream_buffer.c **** size_t xStreamBufferSendFromISR( StreamBufferHandle_t xStreamBuffer,
 611:Middlewares/Third_Party/FreeRTOS/Source/stream_buffer.c **** 								 const void *pvTxData,
 612:Middlewares/Third_Party/FreeRTOS/Source/stream_buffer.c **** 								 size_t xDataLengthBytes,
 613:Middlewares/Third_Party/FreeRTOS/Source/stream_buffer.c **** 								 BaseType_t * const pxHigherPriorityTaskWoken )
 614:Middlewares/Third_Party/FreeRTOS/Source/stream_buffer.c **** {
 1214              		.loc 1 614 1
 1215              		.cfi_startproc
 1216              		@ args = 0, pretend = 0, frame = 56
 1217              		@ frame_needed = 1, uses_anonymous_args = 0
 1218 0000 80B5     		push	{r7, lr}
 1219              		.cfi_def_cfa_offset 8
 1220              		.cfi_offset 7, -8
 1221              		.cfi_offset 14, -4
 1222 0002 90B0     		sub	sp, sp, #64
 1223              		.cfi_def_cfa_offset 72
 1224 0004 02AF     		add	r7, sp, #8
 1225              		.cfi_def_cfa 7, 64
 1226 0006 F860     		str	r0, [r7, #12]
 1227 0008 B960     		str	r1, [r7, #8]
 1228 000a 7A60     		str	r2, [r7, #4]
 1229 000c 3B60     		str	r3, [r7]
 615:Middlewares/Third_Party/FreeRTOS/Source/stream_buffer.c **** StreamBuffer_t * const pxStreamBuffer = xStreamBuffer;
 1230              		.loc 1 615 24
 1231 000e FB68     		ldr	r3, [r7, #12]
 1232 0010 3B63     		str	r3, [r7, #48]
 616:Middlewares/Third_Party/FreeRTOS/Source/stream_buffer.c **** size_t xReturn, xSpace;
 617:Middlewares/Third_Party/FreeRTOS/Source/stream_buffer.c **** size_t xRequiredSpace = xDataLengthBytes;
ARM GAS  C:\Users\Halil\AppData\Local\Temp\ccdYOoXG.s 			page 37


 1233              		.loc 1 617 8
 1234 0012 7B68     		ldr	r3, [r7, #4]
 1235 0014 7B63     		str	r3, [r7, #52]
 618:Middlewares/Third_Party/FreeRTOS/Source/stream_buffer.c **** 
 619:Middlewares/Third_Party/FreeRTOS/Source/stream_buffer.c **** 	configASSERT( pvTxData );
 1236              		.loc 1 619 2
 1237 0016 BB68     		ldr	r3, [r7, #8]
 1238 0018 002B     		cmp	r3, #0
 1239 001a 0BD1     		bne	.L77
 1240              	.LBB131:
 1241              	.LBB132:
 195:Middlewares/Third_Party/FreeRTOS/Source/portable/GCC/ARM_CM4F/portmacro.h **** 	(
 1242              		.loc 2 195 2
 1243              		.syntax unified
 1244              	@ 195 "Middlewares/Third_Party/FreeRTOS/Source/portable/GCC/ARM_CM4F/portmacro.h" 1
 1245 001c 4FF05003 			mov r3, #80												
 1246 0020 83F31188 		msr basepri, r3											
 1247 0024 BFF36F8F 		isb														
 1248 0028 BFF34F8F 		dsb														
 1249              	
 1250              	@ 0 "" 2
 1251              		.thumb
 1252              		.syntax unified
 1253 002c 3B62     		str	r3, [r7, #32]
 1254              		.loc 2 203 1
 1255 002e 00BF     		nop
 1256              	.L78:
 1257              	.LBE132:
 1258              	.LBE131:
 1259              		.loc 1 619 2 discriminator 1
 1260 0030 00BF     		nop
 1261 0032 FDE7     		b	.L78
 1262              	.L77:
 620:Middlewares/Third_Party/FreeRTOS/Source/stream_buffer.c **** 	configASSERT( pxStreamBuffer );
 1263              		.loc 1 620 2
 1264 0034 3B6B     		ldr	r3, [r7, #48]
 1265 0036 002B     		cmp	r3, #0
 1266 0038 0BD1     		bne	.L79
 1267              	.LBB133:
 1268              	.LBB134:
 195:Middlewares/Third_Party/FreeRTOS/Source/portable/GCC/ARM_CM4F/portmacro.h **** 	(
 1269              		.loc 2 195 2
 1270              		.syntax unified
 1271              	@ 195 "Middlewares/Third_Party/FreeRTOS/Source/portable/GCC/ARM_CM4F/portmacro.h" 1
 1272 003a 4FF05003 			mov r3, #80												
 1273 003e 83F31188 		msr basepri, r3											
 1274 0042 BFF36F8F 		isb														
 1275 0046 BFF34F8F 		dsb														
 1276              	
 1277              	@ 0 "" 2
 1278              		.thumb
 1279              		.syntax unified
 1280 004a FB61     		str	r3, [r7, #28]
 1281              		.loc 2 203 1
 1282 004c 00BF     		nop
 1283              	.L80:
 1284              	.LBE134:
ARM GAS  C:\Users\Halil\AppData\Local\Temp\ccdYOoXG.s 			page 38


 1285              	.LBE133:
 1286              		.loc 1 620 2 discriminator 2
 1287 004e 00BF     		nop
 1288 0050 FDE7     		b	.L80
 1289              	.L79:
 621:Middlewares/Third_Party/FreeRTOS/Source/stream_buffer.c **** 
 622:Middlewares/Third_Party/FreeRTOS/Source/stream_buffer.c **** 	/* This send function is used to write to both message buffers and stream
 623:Middlewares/Third_Party/FreeRTOS/Source/stream_buffer.c **** 	buffers.  If this is a message buffer then the space needed must be
 624:Middlewares/Third_Party/FreeRTOS/Source/stream_buffer.c **** 	increased by the amount of bytes needed to store the length of the
 625:Middlewares/Third_Party/FreeRTOS/Source/stream_buffer.c **** 	message. */
 626:Middlewares/Third_Party/FreeRTOS/Source/stream_buffer.c **** 	if( ( pxStreamBuffer->ucFlags & sbFLAGS_IS_MESSAGE_BUFFER ) != ( uint8_t ) 0 )
 1290              		.loc 1 626 22
 1291 0052 3B6B     		ldr	r3, [r7, #48]
 1292 0054 1B7F     		ldrb	r3, [r3, #28]	@ zero_extendqisi2
 1293              		.loc 1 626 32
 1294 0056 03F00103 		and	r3, r3, #1
 1295              		.loc 1 626 4
 1296 005a 002B     		cmp	r3, #0
 1297 005c 02D0     		beq	.L81
 627:Middlewares/Third_Party/FreeRTOS/Source/stream_buffer.c **** 	{
 628:Middlewares/Third_Party/FreeRTOS/Source/stream_buffer.c **** 		xRequiredSpace += sbBYTES_TO_STORE_MESSAGE_LENGTH;
 1298              		.loc 1 628 18
 1299 005e 7B6B     		ldr	r3, [r7, #52]
 1300 0060 0433     		adds	r3, r3, #4
 1301 0062 7B63     		str	r3, [r7, #52]
 1302              	.L81:
 629:Middlewares/Third_Party/FreeRTOS/Source/stream_buffer.c **** 	}
 630:Middlewares/Third_Party/FreeRTOS/Source/stream_buffer.c **** 	else
 631:Middlewares/Third_Party/FreeRTOS/Source/stream_buffer.c **** 	{
 632:Middlewares/Third_Party/FreeRTOS/Source/stream_buffer.c **** 		mtCOVERAGE_TEST_MARKER();
 633:Middlewares/Third_Party/FreeRTOS/Source/stream_buffer.c **** 	}
 634:Middlewares/Third_Party/FreeRTOS/Source/stream_buffer.c **** 
 635:Middlewares/Third_Party/FreeRTOS/Source/stream_buffer.c **** 	xSpace = xStreamBufferSpacesAvailable( pxStreamBuffer );
 1303              		.loc 1 635 11
 1304 0064 386B     		ldr	r0, [r7, #48]
 1305 0066 FFF7FEFF 		bl	xStreamBufferSpacesAvailable
 1306 006a F862     		str	r0, [r7, #44]
 636:Middlewares/Third_Party/FreeRTOS/Source/stream_buffer.c **** 	xReturn = prvWriteMessageToBuffer( pxStreamBuffer, pvTxData, xDataLengthBytes, xSpace, xRequiredSp
 1307              		.loc 1 636 12
 1308 006c 7B6B     		ldr	r3, [r7, #52]
 1309 006e 0093     		str	r3, [sp]
 1310 0070 FB6A     		ldr	r3, [r7, #44]
 1311 0072 7A68     		ldr	r2, [r7, #4]
 1312 0074 B968     		ldr	r1, [r7, #8]
 1313 0076 386B     		ldr	r0, [r7, #48]
 1314 0078 FFF7FEFF 		bl	prvWriteMessageToBuffer
 1315 007c B862     		str	r0, [r7, #40]
 637:Middlewares/Third_Party/FreeRTOS/Source/stream_buffer.c **** 
 638:Middlewares/Third_Party/FreeRTOS/Source/stream_buffer.c **** 	if( xReturn > ( size_t ) 0 )
 1316              		.loc 1 638 4
 1317 007e BB6A     		ldr	r3, [r7, #40]
 1318 0080 002B     		cmp	r3, #0
 1319 0082 2BD0     		beq	.L82
 639:Middlewares/Third_Party/FreeRTOS/Source/stream_buffer.c **** 	{
 640:Middlewares/Third_Party/FreeRTOS/Source/stream_buffer.c **** 		/* Was a task waiting for the data? */
 641:Middlewares/Third_Party/FreeRTOS/Source/stream_buffer.c **** 		if( prvBytesInBuffer( pxStreamBuffer ) >= pxStreamBuffer->xTriggerLevelBytes )
 1320              		.loc 1 641 7
ARM GAS  C:\Users\Halil\AppData\Local\Temp\ccdYOoXG.s 			page 39


 1321 0084 386B     		ldr	r0, [r7, #48]
 1322 0086 FFF7FEFF 		bl	prvBytesInBuffer
 1323 008a 0246     		mov	r2, r0
 1324              		.loc 1 641 59
 1325 008c 3B6B     		ldr	r3, [r7, #48]
 1326 008e DB68     		ldr	r3, [r3, #12]
 1327              		.loc 1 641 5
 1328 0090 9A42     		cmp	r2, r3
 1329 0092 23D3     		bcc	.L82
 1330              	.LBB135:
 1331              	.LBB136:
 1332              	.LBB137:
 204:Middlewares/Third_Party/FreeRTOS/Source/portable/GCC/ARM_CM4F/portmacro.h **** 
 205:Middlewares/Third_Party/FreeRTOS/Source/portable/GCC/ARM_CM4F/portmacro.h **** /*-----------------------------------------------------------*/
 206:Middlewares/Third_Party/FreeRTOS/Source/portable/GCC/ARM_CM4F/portmacro.h **** 
 207:Middlewares/Third_Party/FreeRTOS/Source/portable/GCC/ARM_CM4F/portmacro.h **** portFORCE_INLINE static uint32_t ulPortRaiseBASEPRI( void )
 208:Middlewares/Third_Party/FreeRTOS/Source/portable/GCC/ARM_CM4F/portmacro.h **** {
 209:Middlewares/Third_Party/FreeRTOS/Source/portable/GCC/ARM_CM4F/portmacro.h **** uint32_t ulOriginalBASEPRI, ulNewBASEPRI;
 210:Middlewares/Third_Party/FreeRTOS/Source/portable/GCC/ARM_CM4F/portmacro.h **** 
 211:Middlewares/Third_Party/FreeRTOS/Source/portable/GCC/ARM_CM4F/portmacro.h **** 	__asm volatile
 1333              		.loc 2 211 2
 1334              		.syntax unified
 1335              	@ 211 "Middlewares/Third_Party/FreeRTOS/Source/portable/GCC/ARM_CM4F/portmacro.h" 1
 1336 0094 EFF31182 			mrs r2, basepri											
 1337 0098 4FF05003 		mov r3, #80												
 1338 009c 83F31188 		msr basepri, r3											
 1339 00a0 BFF36F8F 		isb														
 1340 00a4 BFF34F8F 		dsb														
 1341              	
 1342              	@ 0 "" 2
 1343              		.thumb
 1344              		.syntax unified
 1345 00a8 BA61     		str	r2, [r7, #24]
 1346 00aa 7B61     		str	r3, [r7, #20]
 212:Middlewares/Third_Party/FreeRTOS/Source/portable/GCC/ARM_CM4F/portmacro.h **** 	(
 213:Middlewares/Third_Party/FreeRTOS/Source/portable/GCC/ARM_CM4F/portmacro.h **** 		"	mrs %0, basepri											\n" \
 214:Middlewares/Third_Party/FreeRTOS/Source/portable/GCC/ARM_CM4F/portmacro.h **** 		"	mov %1, %2												\n"	\
 215:Middlewares/Third_Party/FreeRTOS/Source/portable/GCC/ARM_CM4F/portmacro.h **** 		"	msr basepri, %1											\n" \
 216:Middlewares/Third_Party/FreeRTOS/Source/portable/GCC/ARM_CM4F/portmacro.h **** 		"	isb														\n" \
 217:Middlewares/Third_Party/FreeRTOS/Source/portable/GCC/ARM_CM4F/portmacro.h **** 		"	dsb														\n" \
 218:Middlewares/Third_Party/FreeRTOS/Source/portable/GCC/ARM_CM4F/portmacro.h **** 		:"=r" (ulOriginalBASEPRI), "=r" (ulNewBASEPRI) : "i" ( configMAX_SYSCALL_INTERRUPT_PRIORITY ) : "
 219:Middlewares/Third_Party/FreeRTOS/Source/portable/GCC/ARM_CM4F/portmacro.h **** 	);
 220:Middlewares/Third_Party/FreeRTOS/Source/portable/GCC/ARM_CM4F/portmacro.h **** 
 221:Middlewares/Third_Party/FreeRTOS/Source/portable/GCC/ARM_CM4F/portmacro.h **** 	/* This return will not be reached but is necessary to prevent compiler
 222:Middlewares/Third_Party/FreeRTOS/Source/portable/GCC/ARM_CM4F/portmacro.h **** 	warnings. */
 223:Middlewares/Third_Party/FreeRTOS/Source/portable/GCC/ARM_CM4F/portmacro.h **** 	return ulOriginalBASEPRI;
 1347              		.loc 2 223 9
 1348 00ac BB69     		ldr	r3, [r7, #24]
 1349              	.LBE137:
 1350              	.LBE136:
 642:Middlewares/Third_Party/FreeRTOS/Source/stream_buffer.c **** 		{
 643:Middlewares/Third_Party/FreeRTOS/Source/stream_buffer.c **** 			sbSEND_COMPLETE_FROM_ISR( pxStreamBuffer, pxHigherPriorityTaskWoken );
 1351              		.loc 1 643 4
 1352 00ae 7B62     		str	r3, [r7, #36]
 1353 00b0 3B6B     		ldr	r3, [r7, #48]
 1354 00b2 1B69     		ldr	r3, [r3, #16]
 1355 00b4 002B     		cmp	r3, #0
ARM GAS  C:\Users\Halil\AppData\Local\Temp\ccdYOoXG.s 			page 40


 1356 00b6 0BD0     		beq	.L84
 1357              		.loc 1 643 4 is_stmt 0 discriminator 1
 1358 00b8 3B6B     		ldr	r3, [r7, #48]
 1359 00ba 1869     		ldr	r0, [r3, #16]
 1360 00bc 3B68     		ldr	r3, [r7]
 1361 00be 0093     		str	r3, [sp]
 1362 00c0 0023     		movs	r3, #0
 1363 00c2 0022     		movs	r2, #0
 1364 00c4 0021     		movs	r1, #0
 1365 00c6 FFF7FEFF 		bl	xTaskGenericNotifyFromISR
 1366 00ca 3B6B     		ldr	r3, [r7, #48]
 1367 00cc 0022     		movs	r2, #0
 1368 00ce 1A61     		str	r2, [r3, #16]
 1369              	.L84:
 1370 00d0 7B6A     		ldr	r3, [r7, #36]
 1371 00d2 3B61     		str	r3, [r7, #16]
 1372              	.LBB138:
 1373              	.LBB139:
 224:Middlewares/Third_Party/FreeRTOS/Source/portable/GCC/ARM_CM4F/portmacro.h **** }
 225:Middlewares/Third_Party/FreeRTOS/Source/portable/GCC/ARM_CM4F/portmacro.h **** /*-----------------------------------------------------------*/
 226:Middlewares/Third_Party/FreeRTOS/Source/portable/GCC/ARM_CM4F/portmacro.h **** 
 227:Middlewares/Third_Party/FreeRTOS/Source/portable/GCC/ARM_CM4F/portmacro.h **** portFORCE_INLINE static void vPortSetBASEPRI( uint32_t ulNewMaskValue )
 228:Middlewares/Third_Party/FreeRTOS/Source/portable/GCC/ARM_CM4F/portmacro.h **** {
 229:Middlewares/Third_Party/FreeRTOS/Source/portable/GCC/ARM_CM4F/portmacro.h **** 	__asm volatile
 1374              		.loc 2 229 2 is_stmt 1 discriminator 3
 1375 00d4 3B69     		ldr	r3, [r7, #16]
 1376              		.syntax unified
 1377              	@ 229 "Middlewares/Third_Party/FreeRTOS/Source/portable/GCC/ARM_CM4F/portmacro.h" 1
 1378 00d6 83F31188 			msr basepri, r3	
 1379              	@ 0 "" 2
 230:Middlewares/Third_Party/FreeRTOS/Source/portable/GCC/ARM_CM4F/portmacro.h **** 	(
 231:Middlewares/Third_Party/FreeRTOS/Source/portable/GCC/ARM_CM4F/portmacro.h **** 		"	msr basepri, %0	" :: "r" ( ulNewMaskValue ) : "memory"
 232:Middlewares/Third_Party/FreeRTOS/Source/portable/GCC/ARM_CM4F/portmacro.h **** 	);
 233:Middlewares/Third_Party/FreeRTOS/Source/portable/GCC/ARM_CM4F/portmacro.h **** }
 1380              		.loc 2 233 1 discriminator 3
 1381              		.thumb
 1382              		.syntax unified
 1383 00da 00BF     		nop
 1384              	.L82:
 1385              	.LBE139:
 1386              	.LBE138:
 1387              	.LBE135:
 644:Middlewares/Third_Party/FreeRTOS/Source/stream_buffer.c **** 		}
 645:Middlewares/Third_Party/FreeRTOS/Source/stream_buffer.c **** 		else
 646:Middlewares/Third_Party/FreeRTOS/Source/stream_buffer.c **** 		{
 647:Middlewares/Third_Party/FreeRTOS/Source/stream_buffer.c **** 			mtCOVERAGE_TEST_MARKER();
 648:Middlewares/Third_Party/FreeRTOS/Source/stream_buffer.c **** 		}
 649:Middlewares/Third_Party/FreeRTOS/Source/stream_buffer.c **** 	}
 650:Middlewares/Third_Party/FreeRTOS/Source/stream_buffer.c **** 	else
 651:Middlewares/Third_Party/FreeRTOS/Source/stream_buffer.c **** 	{
 652:Middlewares/Third_Party/FreeRTOS/Source/stream_buffer.c **** 		mtCOVERAGE_TEST_MARKER();
 653:Middlewares/Third_Party/FreeRTOS/Source/stream_buffer.c **** 	}
 654:Middlewares/Third_Party/FreeRTOS/Source/stream_buffer.c **** 
 655:Middlewares/Third_Party/FreeRTOS/Source/stream_buffer.c **** 	traceSTREAM_BUFFER_SEND_FROM_ISR( xStreamBuffer, xReturn );
 1388              		.loc 1 655 2
 1389 00dc FB68     		ldr	r3, [r7, #12]
 1390 00de BA6A     		ldr	r2, [r7, #40]
ARM GAS  C:\Users\Halil\AppData\Local\Temp\ccdYOoXG.s 			page 41


 1391 00e0 1946     		mov	r1, r3
 1392 00e2 8D20     		movs	r0, #141
 1393 00e4 FFF7FEFF 		bl	SEGGER_SYSVIEW_RecordU32x2
 656:Middlewares/Third_Party/FreeRTOS/Source/stream_buffer.c **** 
 657:Middlewares/Third_Party/FreeRTOS/Source/stream_buffer.c **** 	return xReturn;
 1394              		.loc 1 657 9
 1395 00e8 BB6A     		ldr	r3, [r7, #40]
 658:Middlewares/Third_Party/FreeRTOS/Source/stream_buffer.c **** }
 1396              		.loc 1 658 1
 1397 00ea 1846     		mov	r0, r3
 1398 00ec 3837     		adds	r7, r7, #56
 1399              		.cfi_def_cfa_offset 8
 1400 00ee BD46     		mov	sp, r7
 1401              		.cfi_def_cfa_register 13
 1402              		@ sp needed
 1403 00f0 80BD     		pop	{r7, pc}
 1404              		.cfi_endproc
 1405              	.LFE12:
 1407              		.section	.text.prvWriteMessageToBuffer,"ax",%progbits
 1408              		.align	1
 1409              		.syntax unified
 1410              		.thumb
 1411              		.thumb_func
 1413              	prvWriteMessageToBuffer:
 1414              	.LFB13:
 659:Middlewares/Third_Party/FreeRTOS/Source/stream_buffer.c **** /*-----------------------------------------------------------*/
 660:Middlewares/Third_Party/FreeRTOS/Source/stream_buffer.c **** 
 661:Middlewares/Third_Party/FreeRTOS/Source/stream_buffer.c **** static size_t prvWriteMessageToBuffer( StreamBuffer_t * const pxStreamBuffer,
 662:Middlewares/Third_Party/FreeRTOS/Source/stream_buffer.c **** 									   const void * pvTxData,
 663:Middlewares/Third_Party/FreeRTOS/Source/stream_buffer.c **** 									   size_t xDataLengthBytes,
 664:Middlewares/Third_Party/FreeRTOS/Source/stream_buffer.c **** 									   size_t xSpace,
 665:Middlewares/Third_Party/FreeRTOS/Source/stream_buffer.c **** 									   size_t xRequiredSpace )
 666:Middlewares/Third_Party/FreeRTOS/Source/stream_buffer.c **** {
 1415              		.loc 1 666 1
 1416              		.cfi_startproc
 1417              		@ args = 4, pretend = 0, frame = 24
 1418              		@ frame_needed = 1, uses_anonymous_args = 0
 1419 0000 80B5     		push	{r7, lr}
 1420              		.cfi_def_cfa_offset 8
 1421              		.cfi_offset 7, -8
 1422              		.cfi_offset 14, -4
 1423 0002 86B0     		sub	sp, sp, #24
 1424              		.cfi_def_cfa_offset 32
 1425 0004 00AF     		add	r7, sp, #0
 1426              		.cfi_def_cfa_register 7
 1427 0006 F860     		str	r0, [r7, #12]
 1428 0008 B960     		str	r1, [r7, #8]
 1429 000a 7A60     		str	r2, [r7, #4]
 1430 000c 3B60     		str	r3, [r7]
 667:Middlewares/Third_Party/FreeRTOS/Source/stream_buffer.c **** 	BaseType_t xShouldWrite;
 668:Middlewares/Third_Party/FreeRTOS/Source/stream_buffer.c **** 	size_t xReturn;
 669:Middlewares/Third_Party/FreeRTOS/Source/stream_buffer.c **** 
 670:Middlewares/Third_Party/FreeRTOS/Source/stream_buffer.c **** 	if( xSpace == ( size_t ) 0 )
 1431              		.loc 1 670 4
 1432 000e 3B68     		ldr	r3, [r7]
 1433 0010 002B     		cmp	r3, #0
 1434 0012 02D1     		bne	.L87
ARM GAS  C:\Users\Halil\AppData\Local\Temp\ccdYOoXG.s 			page 42


 671:Middlewares/Third_Party/FreeRTOS/Source/stream_buffer.c **** 	{
 672:Middlewares/Third_Party/FreeRTOS/Source/stream_buffer.c **** 		/* Doesn't matter if this is a stream buffer or a message buffer, there
 673:Middlewares/Third_Party/FreeRTOS/Source/stream_buffer.c **** 		is no space to write. */
 674:Middlewares/Third_Party/FreeRTOS/Source/stream_buffer.c **** 		xShouldWrite = pdFALSE;
 1435              		.loc 1 674 16
 1436 0014 0023     		movs	r3, #0
 1437 0016 7B61     		str	r3, [r7, #20]
 1438 0018 1DE0     		b	.L88
 1439              	.L87:
 675:Middlewares/Third_Party/FreeRTOS/Source/stream_buffer.c **** 	}
 676:Middlewares/Third_Party/FreeRTOS/Source/stream_buffer.c **** 	else if( ( pxStreamBuffer->ucFlags & sbFLAGS_IS_MESSAGE_BUFFER ) == ( uint8_t ) 0 )
 1440              		.loc 1 676 27
 1441 001a FB68     		ldr	r3, [r7, #12]
 1442 001c 1B7F     		ldrb	r3, [r3, #28]	@ zero_extendqisi2
 1443              		.loc 1 676 37
 1444 001e 03F00103 		and	r3, r3, #1
 1445              		.loc 1 676 9
 1446 0022 002B     		cmp	r3, #0
 1447 0024 08D1     		bne	.L89
 677:Middlewares/Third_Party/FreeRTOS/Source/stream_buffer.c **** 	{
 678:Middlewares/Third_Party/FreeRTOS/Source/stream_buffer.c **** 		/* This is a stream buffer, as opposed to a message buffer, so writing a
 679:Middlewares/Third_Party/FreeRTOS/Source/stream_buffer.c **** 		stream of bytes rather than discrete messages.  Write as many bytes as
 680:Middlewares/Third_Party/FreeRTOS/Source/stream_buffer.c **** 		possible. */
 681:Middlewares/Third_Party/FreeRTOS/Source/stream_buffer.c **** 		xShouldWrite = pdTRUE;
 1448              		.loc 1 681 16
 1449 0026 0123     		movs	r3, #1
 1450 0028 7B61     		str	r3, [r7, #20]
 682:Middlewares/Third_Party/FreeRTOS/Source/stream_buffer.c **** 		xDataLengthBytes = configMIN( xDataLengthBytes, xSpace );
 1451              		.loc 1 682 22
 1452 002a 7A68     		ldr	r2, [r7, #4]
 1453 002c 3B68     		ldr	r3, [r7]
 1454 002e 9342     		cmp	r3, r2
 1455 0030 28BF     		it	cs
 1456 0032 1346     		movcs	r3, r2
 1457              		.loc 1 682 20
 1458 0034 7B60     		str	r3, [r7, #4]
 1459 0036 0EE0     		b	.L88
 1460              	.L89:
 683:Middlewares/Third_Party/FreeRTOS/Source/stream_buffer.c **** 	}
 684:Middlewares/Third_Party/FreeRTOS/Source/stream_buffer.c **** 	else if( xSpace >= xRequiredSpace )
 1461              		.loc 1 684 9
 1462 0038 3A68     		ldr	r2, [r7]
 1463 003a 3B6A     		ldr	r3, [r7, #32]
 1464 003c 9A42     		cmp	r2, r3
 1465 003e 08D3     		bcc	.L90
 685:Middlewares/Third_Party/FreeRTOS/Source/stream_buffer.c **** 	{
 686:Middlewares/Third_Party/FreeRTOS/Source/stream_buffer.c **** 		/* This is a message buffer, as opposed to a stream buffer, and there
 687:Middlewares/Third_Party/FreeRTOS/Source/stream_buffer.c **** 		is enough space to write both the message length and the message itself
 688:Middlewares/Third_Party/FreeRTOS/Source/stream_buffer.c **** 		into the buffer.  Start by writing the length of the data, the data
 689:Middlewares/Third_Party/FreeRTOS/Source/stream_buffer.c **** 		itself will be written later in this function. */
 690:Middlewares/Third_Party/FreeRTOS/Source/stream_buffer.c **** 		xShouldWrite = pdTRUE;
 1466              		.loc 1 690 16
 1467 0040 0123     		movs	r3, #1
 1468 0042 7B61     		str	r3, [r7, #20]
 691:Middlewares/Third_Party/FreeRTOS/Source/stream_buffer.c **** 		( void ) prvWriteBytesToBuffer( pxStreamBuffer, ( const uint8_t * ) &( xDataLengthBytes ), sbBYTE
 1469              		.loc 1 691 12
 1470 0044 3B1D     		adds	r3, r7, #4
ARM GAS  C:\Users\Halil\AppData\Local\Temp\ccdYOoXG.s 			page 43


 1471 0046 0422     		movs	r2, #4
 1472 0048 1946     		mov	r1, r3
 1473 004a F868     		ldr	r0, [r7, #12]
 1474 004c FFF7FEFF 		bl	prvWriteBytesToBuffer
 1475 0050 01E0     		b	.L88
 1476              	.L90:
 692:Middlewares/Third_Party/FreeRTOS/Source/stream_buffer.c **** 	}
 693:Middlewares/Third_Party/FreeRTOS/Source/stream_buffer.c **** 	else
 694:Middlewares/Third_Party/FreeRTOS/Source/stream_buffer.c **** 	{
 695:Middlewares/Third_Party/FreeRTOS/Source/stream_buffer.c **** 		/* There is space available, but not enough space. */
 696:Middlewares/Third_Party/FreeRTOS/Source/stream_buffer.c **** 		xShouldWrite = pdFALSE;
 1477              		.loc 1 696 16
 1478 0052 0023     		movs	r3, #0
 1479 0054 7B61     		str	r3, [r7, #20]
 1480              	.L88:
 697:Middlewares/Third_Party/FreeRTOS/Source/stream_buffer.c **** 	}
 698:Middlewares/Third_Party/FreeRTOS/Source/stream_buffer.c **** 
 699:Middlewares/Third_Party/FreeRTOS/Source/stream_buffer.c **** 	if( xShouldWrite != pdFALSE )
 1481              		.loc 1 699 4
 1482 0056 7B69     		ldr	r3, [r7, #20]
 1483 0058 002B     		cmp	r3, #0
 1484 005a 07D0     		beq	.L91
 700:Middlewares/Third_Party/FreeRTOS/Source/stream_buffer.c **** 	{
 701:Middlewares/Third_Party/FreeRTOS/Source/stream_buffer.c **** 		/* Writes the data itself. */
 702:Middlewares/Third_Party/FreeRTOS/Source/stream_buffer.c **** 		xReturn = prvWriteBytesToBuffer( pxStreamBuffer, ( const uint8_t * ) pvTxData, xDataLengthBytes )
 1485              		.loc 1 702 13
 1486 005c 7B68     		ldr	r3, [r7, #4]
 1487 005e 1A46     		mov	r2, r3
 1488 0060 B968     		ldr	r1, [r7, #8]
 1489 0062 F868     		ldr	r0, [r7, #12]
 1490 0064 FFF7FEFF 		bl	prvWriteBytesToBuffer
 1491 0068 3861     		str	r0, [r7, #16]
 1492 006a 01E0     		b	.L92
 1493              	.L91:
 703:Middlewares/Third_Party/FreeRTOS/Source/stream_buffer.c **** 	}
 704:Middlewares/Third_Party/FreeRTOS/Source/stream_buffer.c **** 	else
 705:Middlewares/Third_Party/FreeRTOS/Source/stream_buffer.c **** 	{
 706:Middlewares/Third_Party/FreeRTOS/Source/stream_buffer.c **** 		xReturn = 0;
 1494              		.loc 1 706 11
 1495 006c 0023     		movs	r3, #0
 1496 006e 3B61     		str	r3, [r7, #16]
 1497              	.L92:
 707:Middlewares/Third_Party/FreeRTOS/Source/stream_buffer.c **** 	}
 708:Middlewares/Third_Party/FreeRTOS/Source/stream_buffer.c **** 
 709:Middlewares/Third_Party/FreeRTOS/Source/stream_buffer.c **** 	return xReturn;
 1498              		.loc 1 709 9
 1499 0070 3B69     		ldr	r3, [r7, #16]
 710:Middlewares/Third_Party/FreeRTOS/Source/stream_buffer.c **** }
 1500              		.loc 1 710 1
 1501 0072 1846     		mov	r0, r3
 1502 0074 1837     		adds	r7, r7, #24
 1503              		.cfi_def_cfa_offset 8
 1504 0076 BD46     		mov	sp, r7
 1505              		.cfi_def_cfa_register 13
 1506              		@ sp needed
 1507 0078 80BD     		pop	{r7, pc}
 1508              		.cfi_endproc
ARM GAS  C:\Users\Halil\AppData\Local\Temp\ccdYOoXG.s 			page 44


 1509              	.LFE13:
 1511              		.section	.text.xStreamBufferReceive,"ax",%progbits
 1512              		.align	1
 1513              		.global	xStreamBufferReceive
 1514              		.syntax unified
 1515              		.thumb
 1516              		.thumb_func
 1518              	xStreamBufferReceive:
 1519              	.LFB14:
 711:Middlewares/Third_Party/FreeRTOS/Source/stream_buffer.c **** /*-----------------------------------------------------------*/
 712:Middlewares/Third_Party/FreeRTOS/Source/stream_buffer.c **** 
 713:Middlewares/Third_Party/FreeRTOS/Source/stream_buffer.c **** size_t xStreamBufferReceive( StreamBufferHandle_t xStreamBuffer,
 714:Middlewares/Third_Party/FreeRTOS/Source/stream_buffer.c **** 							 void *pvRxData,
 715:Middlewares/Third_Party/FreeRTOS/Source/stream_buffer.c **** 							 size_t xBufferLengthBytes,
 716:Middlewares/Third_Party/FreeRTOS/Source/stream_buffer.c **** 							 TickType_t xTicksToWait )
 717:Middlewares/Third_Party/FreeRTOS/Source/stream_buffer.c **** {
 1520              		.loc 1 717 1
 1521              		.cfi_startproc
 1522              		@ args = 0, pretend = 0, frame = 48
 1523              		@ frame_needed = 1, uses_anonymous_args = 0
 1524 0000 80B5     		push	{r7, lr}
 1525              		.cfi_def_cfa_offset 8
 1526              		.cfi_offset 7, -8
 1527              		.cfi_offset 14, -4
 1528 0002 8EB0     		sub	sp, sp, #56
 1529              		.cfi_def_cfa_offset 64
 1530 0004 02AF     		add	r7, sp, #8
 1531              		.cfi_def_cfa 7, 56
 1532 0006 F860     		str	r0, [r7, #12]
 1533 0008 B960     		str	r1, [r7, #8]
 1534 000a 7A60     		str	r2, [r7, #4]
 1535 000c 3B60     		str	r3, [r7]
 718:Middlewares/Third_Party/FreeRTOS/Source/stream_buffer.c **** StreamBuffer_t * const pxStreamBuffer = xStreamBuffer;
 1536              		.loc 1 718 24
 1537 000e FB68     		ldr	r3, [r7, #12]
 1538 0010 3B62     		str	r3, [r7, #32]
 719:Middlewares/Third_Party/FreeRTOS/Source/stream_buffer.c **** size_t xReceivedLength = 0, xBytesAvailable, xBytesToStoreMessageLength;
 1539              		.loc 1 719 8
 1540 0012 0023     		movs	r3, #0
 1541 0014 FB62     		str	r3, [r7, #44]
 720:Middlewares/Third_Party/FreeRTOS/Source/stream_buffer.c **** 
 721:Middlewares/Third_Party/FreeRTOS/Source/stream_buffer.c **** 	configASSERT( pvRxData );
 1542              		.loc 1 721 2
 1543 0016 BB68     		ldr	r3, [r7, #8]
 1544 0018 002B     		cmp	r3, #0
 1545 001a 0BD1     		bne	.L95
 1546              	.LBB140:
 1547              	.LBB141:
 195:Middlewares/Third_Party/FreeRTOS/Source/portable/GCC/ARM_CM4F/portmacro.h **** 	(
 1548              		.loc 2 195 2
 1549              		.syntax unified
 1550              	@ 195 "Middlewares/Third_Party/FreeRTOS/Source/portable/GCC/ARM_CM4F/portmacro.h" 1
 1551 001c 4FF05003 			mov r3, #80												
 1552 0020 83F31188 		msr basepri, r3											
 1553 0024 BFF36F8F 		isb														
 1554 0028 BFF34F8F 		dsb														
 1555              	
ARM GAS  C:\Users\Halil\AppData\Local\Temp\ccdYOoXG.s 			page 45


 1556              	@ 0 "" 2
 1557              		.thumb
 1558              		.syntax unified
 1559 002c FB61     		str	r3, [r7, #28]
 203:Middlewares/Third_Party/FreeRTOS/Source/portable/GCC/ARM_CM4F/portmacro.h **** 
 1560              		.loc 2 203 1
 1561 002e 00BF     		nop
 1562              	.L96:
 1563              	.LBE141:
 1564              	.LBE140:
 1565              		.loc 1 721 2 discriminator 1
 1566 0030 00BF     		nop
 1567 0032 FDE7     		b	.L96
 1568              	.L95:
 722:Middlewares/Third_Party/FreeRTOS/Source/stream_buffer.c **** 	configASSERT( pxStreamBuffer );
 1569              		.loc 1 722 2
 1570 0034 3B6A     		ldr	r3, [r7, #32]
 1571 0036 002B     		cmp	r3, #0
 1572 0038 0BD1     		bne	.L97
 1573              	.LBB142:
 1574              	.LBB143:
 195:Middlewares/Third_Party/FreeRTOS/Source/portable/GCC/ARM_CM4F/portmacro.h **** 	(
 1575              		.loc 2 195 2
 1576              		.syntax unified
 1577              	@ 195 "Middlewares/Third_Party/FreeRTOS/Source/portable/GCC/ARM_CM4F/portmacro.h" 1
 1578 003a 4FF05003 			mov r3, #80												
 1579 003e 83F31188 		msr basepri, r3											
 1580 0042 BFF36F8F 		isb														
 1581 0046 BFF34F8F 		dsb														
 1582              	
 1583              	@ 0 "" 2
 1584              		.thumb
 1585              		.syntax unified
 1586 004a BB61     		str	r3, [r7, #24]
 203:Middlewares/Third_Party/FreeRTOS/Source/portable/GCC/ARM_CM4F/portmacro.h **** 
 1587              		.loc 2 203 1
 1588 004c 00BF     		nop
 1589              	.L98:
 1590              	.LBE143:
 1591              	.LBE142:
 1592              		.loc 1 722 2 discriminator 2
 1593 004e 00BF     		nop
 1594 0050 FDE7     		b	.L98
 1595              	.L97:
 723:Middlewares/Third_Party/FreeRTOS/Source/stream_buffer.c **** 
 724:Middlewares/Third_Party/FreeRTOS/Source/stream_buffer.c **** 	/* This receive function is used by both message buffers, which store
 725:Middlewares/Third_Party/FreeRTOS/Source/stream_buffer.c **** 	discrete messages, and stream buffers, which store a continuous stream of
 726:Middlewares/Third_Party/FreeRTOS/Source/stream_buffer.c **** 	bytes.  Discrete messages include an additional
 727:Middlewares/Third_Party/FreeRTOS/Source/stream_buffer.c **** 	sbBYTES_TO_STORE_MESSAGE_LENGTH bytes that hold the length of the
 728:Middlewares/Third_Party/FreeRTOS/Source/stream_buffer.c **** 	message. */
 729:Middlewares/Third_Party/FreeRTOS/Source/stream_buffer.c **** 	if( ( pxStreamBuffer->ucFlags & sbFLAGS_IS_MESSAGE_BUFFER ) != ( uint8_t ) 0 )
 1596              		.loc 1 729 22
 1597 0052 3B6A     		ldr	r3, [r7, #32]
 1598 0054 1B7F     		ldrb	r3, [r3, #28]	@ zero_extendqisi2
 1599              		.loc 1 729 32
 1600 0056 03F00103 		and	r3, r3, #1
 1601              		.loc 1 729 4
ARM GAS  C:\Users\Halil\AppData\Local\Temp\ccdYOoXG.s 			page 46


 1602 005a 002B     		cmp	r3, #0
 1603 005c 02D0     		beq	.L99
 730:Middlewares/Third_Party/FreeRTOS/Source/stream_buffer.c **** 	{
 731:Middlewares/Third_Party/FreeRTOS/Source/stream_buffer.c **** 		xBytesToStoreMessageLength = sbBYTES_TO_STORE_MESSAGE_LENGTH;
 1604              		.loc 1 731 30
 1605 005e 0423     		movs	r3, #4
 1606 0060 7B62     		str	r3, [r7, #36]
 1607 0062 01E0     		b	.L100
 1608              	.L99:
 732:Middlewares/Third_Party/FreeRTOS/Source/stream_buffer.c **** 	}
 733:Middlewares/Third_Party/FreeRTOS/Source/stream_buffer.c **** 	else
 734:Middlewares/Third_Party/FreeRTOS/Source/stream_buffer.c **** 	{
 735:Middlewares/Third_Party/FreeRTOS/Source/stream_buffer.c **** 		xBytesToStoreMessageLength = 0;
 1609              		.loc 1 735 30
 1610 0064 0023     		movs	r3, #0
 1611 0066 7B62     		str	r3, [r7, #36]
 1612              	.L100:
 736:Middlewares/Third_Party/FreeRTOS/Source/stream_buffer.c **** 	}
 737:Middlewares/Third_Party/FreeRTOS/Source/stream_buffer.c **** 
 738:Middlewares/Third_Party/FreeRTOS/Source/stream_buffer.c **** 	if( xTicksToWait != ( TickType_t ) 0 )
 1613              		.loc 1 738 4
 1614 0068 3B68     		ldr	r3, [r7]
 1615 006a 002B     		cmp	r3, #0
 1616 006c 35D0     		beq	.L101
 739:Middlewares/Third_Party/FreeRTOS/Source/stream_buffer.c **** 	{
 740:Middlewares/Third_Party/FreeRTOS/Source/stream_buffer.c **** 		/* Checking if there is data and clearing the notification state must be
 741:Middlewares/Third_Party/FreeRTOS/Source/stream_buffer.c **** 		performed atomically. */
 742:Middlewares/Third_Party/FreeRTOS/Source/stream_buffer.c **** 		taskENTER_CRITICAL();
 1617              		.loc 1 742 3
 1618 006e FFF7FEFF 		bl	vPortEnterCritical
 743:Middlewares/Third_Party/FreeRTOS/Source/stream_buffer.c **** 		{
 744:Middlewares/Third_Party/FreeRTOS/Source/stream_buffer.c **** 			xBytesAvailable = prvBytesInBuffer( pxStreamBuffer );
 1619              		.loc 1 744 22
 1620 0072 386A     		ldr	r0, [r7, #32]
 1621 0074 FFF7FEFF 		bl	prvBytesInBuffer
 1622 0078 B862     		str	r0, [r7, #40]
 745:Middlewares/Third_Party/FreeRTOS/Source/stream_buffer.c **** 
 746:Middlewares/Third_Party/FreeRTOS/Source/stream_buffer.c **** 			/* If this function was invoked by a message buffer read then
 747:Middlewares/Third_Party/FreeRTOS/Source/stream_buffer.c **** 			xBytesToStoreMessageLength holds the number of bytes used to hold
 748:Middlewares/Third_Party/FreeRTOS/Source/stream_buffer.c **** 			the length of the next discrete message.  If this function was
 749:Middlewares/Third_Party/FreeRTOS/Source/stream_buffer.c **** 			invoked by a stream buffer read then xBytesToStoreMessageLength will
 750:Middlewares/Third_Party/FreeRTOS/Source/stream_buffer.c **** 			be 0. */
 751:Middlewares/Third_Party/FreeRTOS/Source/stream_buffer.c **** 			if( xBytesAvailable <= xBytesToStoreMessageLength )
 1623              		.loc 1 751 6
 1624 007a BA6A     		ldr	r2, [r7, #40]
 1625 007c 7B6A     		ldr	r3, [r7, #36]
 1626 007e 9A42     		cmp	r2, r3
 1627 0080 17D8     		bhi	.L102
 752:Middlewares/Third_Party/FreeRTOS/Source/stream_buffer.c **** 			{
 753:Middlewares/Third_Party/FreeRTOS/Source/stream_buffer.c **** 				/* Clear notification state as going to wait for data. */
 754:Middlewares/Third_Party/FreeRTOS/Source/stream_buffer.c **** 				( void ) xTaskNotifyStateClear( NULL );
 1628              		.loc 1 754 14
 1629 0082 0020     		movs	r0, #0
 1630 0084 FFF7FEFF 		bl	xTaskNotifyStateClear
 755:Middlewares/Third_Party/FreeRTOS/Source/stream_buffer.c **** 
 756:Middlewares/Third_Party/FreeRTOS/Source/stream_buffer.c **** 				/* Should only be one reader. */
 757:Middlewares/Third_Party/FreeRTOS/Source/stream_buffer.c **** 				configASSERT( pxStreamBuffer->xTaskWaitingToReceive == NULL );
ARM GAS  C:\Users\Halil\AppData\Local\Temp\ccdYOoXG.s 			page 47


 1631              		.loc 1 757 5
 1632 0088 3B6A     		ldr	r3, [r7, #32]
 1633 008a 1B69     		ldr	r3, [r3, #16]
 1634 008c 002B     		cmp	r3, #0
 1635 008e 0BD0     		beq	.L103
 1636              	.LBB144:
 1637              	.LBB145:
 195:Middlewares/Third_Party/FreeRTOS/Source/portable/GCC/ARM_CM4F/portmacro.h **** 	(
 1638              		.loc 2 195 2
 1639              		.syntax unified
 1640              	@ 195 "Middlewares/Third_Party/FreeRTOS/Source/portable/GCC/ARM_CM4F/portmacro.h" 1
 1641 0090 4FF05003 			mov r3, #80												
 1642 0094 83F31188 		msr basepri, r3											
 1643 0098 BFF36F8F 		isb														
 1644 009c BFF34F8F 		dsb														
 1645              	
 1646              	@ 0 "" 2
 1647              		.thumb
 1648              		.syntax unified
 1649 00a0 7B61     		str	r3, [r7, #20]
 203:Middlewares/Third_Party/FreeRTOS/Source/portable/GCC/ARM_CM4F/portmacro.h **** 
 1650              		.loc 2 203 1
 1651 00a2 00BF     		nop
 1652              	.L104:
 1653              	.LBE145:
 1654              	.LBE144:
 1655              		.loc 1 757 5 discriminator 3
 1656 00a4 00BF     		nop
 1657 00a6 FDE7     		b	.L104
 1658              	.L103:
 758:Middlewares/Third_Party/FreeRTOS/Source/stream_buffer.c **** 				pxStreamBuffer->xTaskWaitingToReceive = xTaskGetCurrentTaskHandle();
 1659              		.loc 1 758 45
 1660 00a8 FFF7FEFF 		bl	xTaskGetCurrentTaskHandle
 1661 00ac 0246     		mov	r2, r0
 1662              		.loc 1 758 43
 1663 00ae 3B6A     		ldr	r3, [r7, #32]
 1664 00b0 1A61     		str	r2, [r3, #16]
 1665              	.L102:
 759:Middlewares/Third_Party/FreeRTOS/Source/stream_buffer.c **** 			}
 760:Middlewares/Third_Party/FreeRTOS/Source/stream_buffer.c **** 			else
 761:Middlewares/Third_Party/FreeRTOS/Source/stream_buffer.c **** 			{
 762:Middlewares/Third_Party/FreeRTOS/Source/stream_buffer.c **** 				mtCOVERAGE_TEST_MARKER();
 763:Middlewares/Third_Party/FreeRTOS/Source/stream_buffer.c **** 			}
 764:Middlewares/Third_Party/FreeRTOS/Source/stream_buffer.c **** 		}
 765:Middlewares/Third_Party/FreeRTOS/Source/stream_buffer.c **** 		taskEXIT_CRITICAL();
 1666              		.loc 1 765 3
 1667 00b2 FFF7FEFF 		bl	vPortExitCritical
 766:Middlewares/Third_Party/FreeRTOS/Source/stream_buffer.c **** 
 767:Middlewares/Third_Party/FreeRTOS/Source/stream_buffer.c **** 		if( xBytesAvailable <= xBytesToStoreMessageLength )
 1668              		.loc 1 767 5
 1669 00b6 BA6A     		ldr	r2, [r7, #40]
 1670 00b8 7B6A     		ldr	r3, [r7, #36]
 1671 00ba 9A42     		cmp	r2, r3
 1672 00bc 11D8     		bhi	.L105
 768:Middlewares/Third_Party/FreeRTOS/Source/stream_buffer.c **** 		{
 769:Middlewares/Third_Party/FreeRTOS/Source/stream_buffer.c **** 			/* Wait for data to be available. */
 770:Middlewares/Third_Party/FreeRTOS/Source/stream_buffer.c **** 			traceBLOCKING_ON_STREAM_BUFFER_RECEIVE( xStreamBuffer );
ARM GAS  C:\Users\Halil\AppData\Local\Temp\ccdYOoXG.s 			page 48


 771:Middlewares/Third_Party/FreeRTOS/Source/stream_buffer.c **** 			( void ) xTaskNotifyWait( ( uint32_t ) 0, ( uint32_t ) 0, NULL, xTicksToWait );
 1673              		.loc 1 771 13
 1674 00be 3B68     		ldr	r3, [r7]
 1675 00c0 0022     		movs	r2, #0
 1676 00c2 0021     		movs	r1, #0
 1677 00c4 0020     		movs	r0, #0
 1678 00c6 FFF7FEFF 		bl	xTaskNotifyWait
 772:Middlewares/Third_Party/FreeRTOS/Source/stream_buffer.c **** 			pxStreamBuffer->xTaskWaitingToReceive = NULL;
 1679              		.loc 1 772 42
 1680 00ca 3B6A     		ldr	r3, [r7, #32]
 1681 00cc 0022     		movs	r2, #0
 1682 00ce 1A61     		str	r2, [r3, #16]
 773:Middlewares/Third_Party/FreeRTOS/Source/stream_buffer.c **** 
 774:Middlewares/Third_Party/FreeRTOS/Source/stream_buffer.c **** 			/* Recheck the data available after blocking. */
 775:Middlewares/Third_Party/FreeRTOS/Source/stream_buffer.c **** 			xBytesAvailable = prvBytesInBuffer( pxStreamBuffer );
 1683              		.loc 1 775 22
 1684 00d0 386A     		ldr	r0, [r7, #32]
 1685 00d2 FFF7FEFF 		bl	prvBytesInBuffer
 1686 00d6 B862     		str	r0, [r7, #40]
 1687 00d8 03E0     		b	.L105
 1688              	.L101:
 776:Middlewares/Third_Party/FreeRTOS/Source/stream_buffer.c **** 		}
 777:Middlewares/Third_Party/FreeRTOS/Source/stream_buffer.c **** 		else
 778:Middlewares/Third_Party/FreeRTOS/Source/stream_buffer.c **** 		{
 779:Middlewares/Third_Party/FreeRTOS/Source/stream_buffer.c **** 			mtCOVERAGE_TEST_MARKER();
 780:Middlewares/Third_Party/FreeRTOS/Source/stream_buffer.c **** 		}
 781:Middlewares/Third_Party/FreeRTOS/Source/stream_buffer.c **** 	}
 782:Middlewares/Third_Party/FreeRTOS/Source/stream_buffer.c **** 	else
 783:Middlewares/Third_Party/FreeRTOS/Source/stream_buffer.c **** 	{
 784:Middlewares/Third_Party/FreeRTOS/Source/stream_buffer.c **** 		xBytesAvailable = prvBytesInBuffer( pxStreamBuffer );
 1689              		.loc 1 784 21
 1690 00da 386A     		ldr	r0, [r7, #32]
 1691 00dc FFF7FEFF 		bl	prvBytesInBuffer
 1692 00e0 B862     		str	r0, [r7, #40]
 1693              	.L105:
 785:Middlewares/Third_Party/FreeRTOS/Source/stream_buffer.c **** 	}
 786:Middlewares/Third_Party/FreeRTOS/Source/stream_buffer.c **** 
 787:Middlewares/Third_Party/FreeRTOS/Source/stream_buffer.c **** 	/* Whether receiving a discrete message (where xBytesToStoreMessageLength
 788:Middlewares/Third_Party/FreeRTOS/Source/stream_buffer.c **** 	holds the number of bytes used to store the message length) or a stream of
 789:Middlewares/Third_Party/FreeRTOS/Source/stream_buffer.c **** 	bytes (where xBytesToStoreMessageLength is zero), the number of bytes
 790:Middlewares/Third_Party/FreeRTOS/Source/stream_buffer.c **** 	available must be greater than xBytesToStoreMessageLength to be able to
 791:Middlewares/Third_Party/FreeRTOS/Source/stream_buffer.c **** 	read bytes from the buffer. */
 792:Middlewares/Third_Party/FreeRTOS/Source/stream_buffer.c **** 	if( xBytesAvailable > xBytesToStoreMessageLength )
 1694              		.loc 1 792 4
 1695 00e2 BA6A     		ldr	r2, [r7, #40]
 1696 00e4 7B6A     		ldr	r3, [r7, #36]
 1697 00e6 9A42     		cmp	r2, r3
 1698 00e8 24D9     		bls	.L106
 793:Middlewares/Third_Party/FreeRTOS/Source/stream_buffer.c **** 	{
 794:Middlewares/Third_Party/FreeRTOS/Source/stream_buffer.c **** 		xReceivedLength = prvReadMessageFromBuffer( pxStreamBuffer, pvRxData, xBufferLengthBytes, xBytesA
 1699              		.loc 1 794 21
 1700 00ea 7B6A     		ldr	r3, [r7, #36]
 1701 00ec 0093     		str	r3, [sp]
 1702 00ee BB6A     		ldr	r3, [r7, #40]
 1703 00f0 7A68     		ldr	r2, [r7, #4]
 1704 00f2 B968     		ldr	r1, [r7, #8]
 1705 00f4 386A     		ldr	r0, [r7, #32]
ARM GAS  C:\Users\Halil\AppData\Local\Temp\ccdYOoXG.s 			page 49


 1706 00f6 FFF7FEFF 		bl	prvReadMessageFromBuffer
 1707 00fa F862     		str	r0, [r7, #44]
 795:Middlewares/Third_Party/FreeRTOS/Source/stream_buffer.c **** 
 796:Middlewares/Third_Party/FreeRTOS/Source/stream_buffer.c **** 		/* Was a task waiting for space in the buffer? */
 797:Middlewares/Third_Party/FreeRTOS/Source/stream_buffer.c **** 		if( xReceivedLength != ( size_t ) 0 )
 1708              		.loc 1 797 5
 1709 00fc FB6A     		ldr	r3, [r7, #44]
 1710 00fe 002B     		cmp	r3, #0
 1711 0100 1ED0     		beq	.L107
 798:Middlewares/Third_Party/FreeRTOS/Source/stream_buffer.c **** 		{
 799:Middlewares/Third_Party/FreeRTOS/Source/stream_buffer.c **** 			traceSTREAM_BUFFER_RECEIVE( xStreamBuffer, xReceivedLength );
 1712              		.loc 1 799 4
 1713 0102 FB68     		ldr	r3, [r7, #12]
 1714 0104 FA6A     		ldr	r2, [r7, #44]
 1715 0106 1946     		mov	r1, r3
 1716 0108 8E20     		movs	r0, #142
 1717 010a FFF7FEFF 		bl	SEGGER_SYSVIEW_RecordU32x2
 800:Middlewares/Third_Party/FreeRTOS/Source/stream_buffer.c **** 			sbRECEIVE_COMPLETED( pxStreamBuffer );
 1718              		.loc 1 800 4
 1719 010e FFF7FEFF 		bl	vTaskSuspendAll
 1720 0112 3B6A     		ldr	r3, [r7, #32]
 1721 0114 5B69     		ldr	r3, [r3, #20]
 1722 0116 002B     		cmp	r3, #0
 1723 0118 09D0     		beq	.L108
 1724              		.loc 1 800 4 is_stmt 0 discriminator 1
 1725 011a 3B6A     		ldr	r3, [r7, #32]
 1726 011c 5869     		ldr	r0, [r3, #20]
 1727 011e 0023     		movs	r3, #0
 1728 0120 0022     		movs	r2, #0
 1729 0122 0021     		movs	r1, #0
 1730 0124 FFF7FEFF 		bl	xTaskGenericNotify
 1731 0128 3B6A     		ldr	r3, [r7, #32]
 1732 012a 0022     		movs	r2, #0
 1733 012c 5A61     		str	r2, [r3, #20]
 1734              	.L108:
 1735              		.loc 1 800 4 discriminator 3
 1736 012e FFF7FEFF 		bl	xTaskResumeAll
 1737 0132 05E0     		b	.L107
 1738              	.L106:
 801:Middlewares/Third_Party/FreeRTOS/Source/stream_buffer.c **** 		}
 802:Middlewares/Third_Party/FreeRTOS/Source/stream_buffer.c **** 		else
 803:Middlewares/Third_Party/FreeRTOS/Source/stream_buffer.c **** 		{
 804:Middlewares/Third_Party/FreeRTOS/Source/stream_buffer.c **** 			mtCOVERAGE_TEST_MARKER();
 805:Middlewares/Third_Party/FreeRTOS/Source/stream_buffer.c **** 		}
 806:Middlewares/Third_Party/FreeRTOS/Source/stream_buffer.c **** 	}
 807:Middlewares/Third_Party/FreeRTOS/Source/stream_buffer.c **** 	else
 808:Middlewares/Third_Party/FreeRTOS/Source/stream_buffer.c **** 	{
 809:Middlewares/Third_Party/FreeRTOS/Source/stream_buffer.c **** 		traceSTREAM_BUFFER_RECEIVE_FAILED( xStreamBuffer );
 1739              		.loc 1 809 3 is_stmt 1
 1740 0134 FB68     		ldr	r3, [r7, #12]
 1741 0136 0022     		movs	r2, #0
 1742 0138 1946     		mov	r1, r3
 1743 013a 8E20     		movs	r0, #142
 1744 013c FFF7FEFF 		bl	SEGGER_SYSVIEW_RecordU32x2
 1745              	.L107:
 810:Middlewares/Third_Party/FreeRTOS/Source/stream_buffer.c **** 		mtCOVERAGE_TEST_MARKER();
 811:Middlewares/Third_Party/FreeRTOS/Source/stream_buffer.c **** 	}
ARM GAS  C:\Users\Halil\AppData\Local\Temp\ccdYOoXG.s 			page 50


 812:Middlewares/Third_Party/FreeRTOS/Source/stream_buffer.c **** 
 813:Middlewares/Third_Party/FreeRTOS/Source/stream_buffer.c **** 	return xReceivedLength;
 1746              		.loc 1 813 9
 1747 0140 FB6A     		ldr	r3, [r7, #44]
 814:Middlewares/Third_Party/FreeRTOS/Source/stream_buffer.c **** }
 1748              		.loc 1 814 1
 1749 0142 1846     		mov	r0, r3
 1750 0144 3037     		adds	r7, r7, #48
 1751              		.cfi_def_cfa_offset 8
 1752 0146 BD46     		mov	sp, r7
 1753              		.cfi_def_cfa_register 13
 1754              		@ sp needed
 1755 0148 80BD     		pop	{r7, pc}
 1756              		.cfi_endproc
 1757              	.LFE14:
 1759              		.section	.text.xStreamBufferNextMessageLengthBytes,"ax",%progbits
 1760              		.align	1
 1761              		.global	xStreamBufferNextMessageLengthBytes
 1762              		.syntax unified
 1763              		.thumb
 1764              		.thumb_func
 1766              	xStreamBufferNextMessageLengthBytes:
 1767              	.LFB15:
 815:Middlewares/Third_Party/FreeRTOS/Source/stream_buffer.c **** /*-----------------------------------------------------------*/
 816:Middlewares/Third_Party/FreeRTOS/Source/stream_buffer.c **** 
 817:Middlewares/Third_Party/FreeRTOS/Source/stream_buffer.c **** size_t xStreamBufferNextMessageLengthBytes( StreamBufferHandle_t xStreamBuffer )
 818:Middlewares/Third_Party/FreeRTOS/Source/stream_buffer.c **** {
 1768              		.loc 1 818 1
 1769              		.cfi_startproc
 1770              		@ args = 0, pretend = 0, frame = 40
 1771              		@ frame_needed = 1, uses_anonymous_args = 0
 1772 0000 80B5     		push	{r7, lr}
 1773              		.cfi_def_cfa_offset 8
 1774              		.cfi_offset 7, -8
 1775              		.cfi_offset 14, -4
 1776 0002 8AB0     		sub	sp, sp, #40
 1777              		.cfi_def_cfa_offset 48
 1778 0004 00AF     		add	r7, sp, #0
 1779              		.cfi_def_cfa_register 7
 1780 0006 7860     		str	r0, [r7, #4]
 819:Middlewares/Third_Party/FreeRTOS/Source/stream_buffer.c **** StreamBuffer_t * const pxStreamBuffer = xStreamBuffer;
 1781              		.loc 1 819 24
 1782 0008 7B68     		ldr	r3, [r7, #4]
 1783 000a 3B62     		str	r3, [r7, #32]
 820:Middlewares/Third_Party/FreeRTOS/Source/stream_buffer.c **** size_t xReturn, xBytesAvailable, xOriginalTail;
 821:Middlewares/Third_Party/FreeRTOS/Source/stream_buffer.c **** configMESSAGE_BUFFER_LENGTH_TYPE xTempReturn;
 822:Middlewares/Third_Party/FreeRTOS/Source/stream_buffer.c **** 
 823:Middlewares/Third_Party/FreeRTOS/Source/stream_buffer.c **** 	configASSERT( pxStreamBuffer );
 1784              		.loc 1 823 2
 1785 000c 3B6A     		ldr	r3, [r7, #32]
 1786 000e 002B     		cmp	r3, #0
 1787 0010 0BD1     		bne	.L111
 1788              	.LBB146:
 1789              	.LBB147:
 195:Middlewares/Third_Party/FreeRTOS/Source/portable/GCC/ARM_CM4F/portmacro.h **** 	(
 1790              		.loc 2 195 2
 1791              		.syntax unified
ARM GAS  C:\Users\Halil\AppData\Local\Temp\ccdYOoXG.s 			page 51


 1792              	@ 195 "Middlewares/Third_Party/FreeRTOS/Source/portable/GCC/ARM_CM4F/portmacro.h" 1
 1793 0012 4FF05003 			mov r3, #80												
 1794 0016 83F31188 		msr basepri, r3											
 1795 001a BFF36F8F 		isb														
 1796 001e BFF34F8F 		dsb														
 1797              	
 1798              	@ 0 "" 2
 1799              		.thumb
 1800              		.syntax unified
 1801 0022 7B61     		str	r3, [r7, #20]
 203:Middlewares/Third_Party/FreeRTOS/Source/portable/GCC/ARM_CM4F/portmacro.h **** 
 1802              		.loc 2 203 1
 1803 0024 00BF     		nop
 1804              	.L112:
 1805              	.LBE147:
 1806              	.LBE146:
 1807              		.loc 1 823 2 discriminator 1
 1808 0026 00BF     		nop
 1809 0028 FDE7     		b	.L112
 1810              	.L111:
 824:Middlewares/Third_Party/FreeRTOS/Source/stream_buffer.c **** 
 825:Middlewares/Third_Party/FreeRTOS/Source/stream_buffer.c **** 	/* Ensure the stream buffer is being used as a message buffer. */
 826:Middlewares/Third_Party/FreeRTOS/Source/stream_buffer.c **** 	if( ( pxStreamBuffer->ucFlags & sbFLAGS_IS_MESSAGE_BUFFER ) != ( uint8_t ) 0 )
 1811              		.loc 1 826 22
 1812 002a 3B6A     		ldr	r3, [r7, #32]
 1813 002c 1B7F     		ldrb	r3, [r3, #28]	@ zero_extendqisi2
 1814              		.loc 1 826 32
 1815 002e 03F00103 		and	r3, r3, #1
 1816              		.loc 1 826 4
 1817 0032 002B     		cmp	r3, #0
 1818 0034 28D0     		beq	.L113
 827:Middlewares/Third_Party/FreeRTOS/Source/stream_buffer.c **** 	{
 828:Middlewares/Third_Party/FreeRTOS/Source/stream_buffer.c **** 		xBytesAvailable = prvBytesInBuffer( pxStreamBuffer );
 1819              		.loc 1 828 21
 1820 0036 386A     		ldr	r0, [r7, #32]
 1821 0038 FFF7FEFF 		bl	prvBytesInBuffer
 1822 003c F861     		str	r0, [r7, #28]
 829:Middlewares/Third_Party/FreeRTOS/Source/stream_buffer.c **** 		if( xBytesAvailable > sbBYTES_TO_STORE_MESSAGE_LENGTH )
 1823              		.loc 1 829 5
 1824 003e FB69     		ldr	r3, [r7, #28]
 1825 0040 042B     		cmp	r3, #4
 1826 0042 0FD9     		bls	.L114
 830:Middlewares/Third_Party/FreeRTOS/Source/stream_buffer.c **** 		{
 831:Middlewares/Third_Party/FreeRTOS/Source/stream_buffer.c **** 			/* The number of bytes available is greater than the number of bytes
 832:Middlewares/Third_Party/FreeRTOS/Source/stream_buffer.c **** 			required to hold the length of the next message, so another message
 833:Middlewares/Third_Party/FreeRTOS/Source/stream_buffer.c **** 			is available.  Return its length without removing the length bytes
 834:Middlewares/Third_Party/FreeRTOS/Source/stream_buffer.c **** 			from the buffer.  A copy of the tail is stored so the buffer can be
 835:Middlewares/Third_Party/FreeRTOS/Source/stream_buffer.c **** 			returned to its prior state as the message is not actually being
 836:Middlewares/Third_Party/FreeRTOS/Source/stream_buffer.c **** 			removed from the buffer. */
 837:Middlewares/Third_Party/FreeRTOS/Source/stream_buffer.c **** 			xOriginalTail = pxStreamBuffer->xTail;
 1827              		.loc 1 837 18
 1828 0044 3B6A     		ldr	r3, [r7, #32]
 1829 0046 1B68     		ldr	r3, [r3]
 1830 0048 BB61     		str	r3, [r7, #24]
 838:Middlewares/Third_Party/FreeRTOS/Source/stream_buffer.c **** 			( void ) prvReadBytesFromBuffer( pxStreamBuffer, ( uint8_t * ) &xTempReturn, sbBYTES_TO_STORE_ME
 1831              		.loc 1 838 13
 1832 004a 07F10C01 		add	r1, r7, #12
ARM GAS  C:\Users\Halil\AppData\Local\Temp\ccdYOoXG.s 			page 52


 1833 004e FB69     		ldr	r3, [r7, #28]
 1834 0050 0422     		movs	r2, #4
 1835 0052 386A     		ldr	r0, [r7, #32]
 1836 0054 FFF7FEFF 		bl	prvReadBytesFromBuffer
 839:Middlewares/Third_Party/FreeRTOS/Source/stream_buffer.c **** 			xReturn = ( size_t ) xTempReturn;
 1837              		.loc 1 839 12
 1838 0058 FB68     		ldr	r3, [r7, #12]
 1839 005a 7B62     		str	r3, [r7, #36]
 840:Middlewares/Third_Party/FreeRTOS/Source/stream_buffer.c **** 			pxStreamBuffer->xTail = xOriginalTail;
 1840              		.loc 1 840 26
 1841 005c 3B6A     		ldr	r3, [r7, #32]
 1842 005e BA69     		ldr	r2, [r7, #24]
 1843 0060 1A60     		str	r2, [r3]
 1844 0062 13E0     		b	.L115
 1845              	.L114:
 841:Middlewares/Third_Party/FreeRTOS/Source/stream_buffer.c **** 		}
 842:Middlewares/Third_Party/FreeRTOS/Source/stream_buffer.c **** 		else
 843:Middlewares/Third_Party/FreeRTOS/Source/stream_buffer.c **** 		{
 844:Middlewares/Third_Party/FreeRTOS/Source/stream_buffer.c **** 			/* The minimum amount of bytes in a message buffer is
 845:Middlewares/Third_Party/FreeRTOS/Source/stream_buffer.c **** 			( sbBYTES_TO_STORE_MESSAGE_LENGTH + 1 ), so if xBytesAvailable is
 846:Middlewares/Third_Party/FreeRTOS/Source/stream_buffer.c **** 			less than sbBYTES_TO_STORE_MESSAGE_LENGTH the only other valid
 847:Middlewares/Third_Party/FreeRTOS/Source/stream_buffer.c **** 			value is 0. */
 848:Middlewares/Third_Party/FreeRTOS/Source/stream_buffer.c **** 			configASSERT( xBytesAvailable == 0 );
 1846              		.loc 1 848 4
 1847 0064 FB69     		ldr	r3, [r7, #28]
 1848 0066 002B     		cmp	r3, #0
 1849 0068 0BD0     		beq	.L116
 1850              	.LBB148:
 1851              	.LBB149:
 195:Middlewares/Third_Party/FreeRTOS/Source/portable/GCC/ARM_CM4F/portmacro.h **** 	(
 1852              		.loc 2 195 2
 1853              		.syntax unified
 1854              	@ 195 "Middlewares/Third_Party/FreeRTOS/Source/portable/GCC/ARM_CM4F/portmacro.h" 1
 1855 006a 4FF05003 			mov r3, #80												
 1856 006e 83F31188 		msr basepri, r3											
 1857 0072 BFF36F8F 		isb														
 1858 0076 BFF34F8F 		dsb														
 1859              	
 1860              	@ 0 "" 2
 1861              		.thumb
 1862              		.syntax unified
 1863 007a 3B61     		str	r3, [r7, #16]
 203:Middlewares/Third_Party/FreeRTOS/Source/portable/GCC/ARM_CM4F/portmacro.h **** 
 1864              		.loc 2 203 1
 1865 007c 00BF     		nop
 1866              	.L117:
 1867              	.LBE149:
 1868              	.LBE148:
 1869              		.loc 1 848 4 discriminator 2
 1870 007e 00BF     		nop
 1871 0080 FDE7     		b	.L117
 1872              	.L116:
 849:Middlewares/Third_Party/FreeRTOS/Source/stream_buffer.c **** 			xReturn = 0;
 1873              		.loc 1 849 12
 1874 0082 0023     		movs	r3, #0
 1875 0084 7B62     		str	r3, [r7, #36]
 1876 0086 01E0     		b	.L115
ARM GAS  C:\Users\Halil\AppData\Local\Temp\ccdYOoXG.s 			page 53


 1877              	.L113:
 850:Middlewares/Third_Party/FreeRTOS/Source/stream_buffer.c **** 		}
 851:Middlewares/Third_Party/FreeRTOS/Source/stream_buffer.c **** 	}
 852:Middlewares/Third_Party/FreeRTOS/Source/stream_buffer.c **** 	else
 853:Middlewares/Third_Party/FreeRTOS/Source/stream_buffer.c **** 	{
 854:Middlewares/Third_Party/FreeRTOS/Source/stream_buffer.c **** 		xReturn = 0;
 1878              		.loc 1 854 11
 1879 0088 0023     		movs	r3, #0
 1880 008a 7B62     		str	r3, [r7, #36]
 1881              	.L115:
 855:Middlewares/Third_Party/FreeRTOS/Source/stream_buffer.c **** 	}
 856:Middlewares/Third_Party/FreeRTOS/Source/stream_buffer.c **** 
 857:Middlewares/Third_Party/FreeRTOS/Source/stream_buffer.c **** 	return xReturn;
 1882              		.loc 1 857 9
 1883 008c 7B6A     		ldr	r3, [r7, #36]
 858:Middlewares/Third_Party/FreeRTOS/Source/stream_buffer.c **** }
 1884              		.loc 1 858 1
 1885 008e 1846     		mov	r0, r3
 1886 0090 2837     		adds	r7, r7, #40
 1887              		.cfi_def_cfa_offset 8
 1888 0092 BD46     		mov	sp, r7
 1889              		.cfi_def_cfa_register 13
 1890              		@ sp needed
 1891 0094 80BD     		pop	{r7, pc}
 1892              		.cfi_endproc
 1893              	.LFE15:
 1895              		.section	.text.xStreamBufferReceiveFromISR,"ax",%progbits
 1896              		.align	1
 1897              		.global	xStreamBufferReceiveFromISR
 1898              		.syntax unified
 1899              		.thumb
 1900              		.thumb_func
 1902              	xStreamBufferReceiveFromISR:
 1903              	.LFB16:
 859:Middlewares/Third_Party/FreeRTOS/Source/stream_buffer.c **** /*-----------------------------------------------------------*/
 860:Middlewares/Third_Party/FreeRTOS/Source/stream_buffer.c **** 
 861:Middlewares/Third_Party/FreeRTOS/Source/stream_buffer.c **** size_t xStreamBufferReceiveFromISR( StreamBufferHandle_t xStreamBuffer,
 862:Middlewares/Third_Party/FreeRTOS/Source/stream_buffer.c **** 									void *pvRxData,
 863:Middlewares/Third_Party/FreeRTOS/Source/stream_buffer.c **** 									size_t xBufferLengthBytes,
 864:Middlewares/Third_Party/FreeRTOS/Source/stream_buffer.c **** 									BaseType_t * const pxHigherPriorityTaskWoken )
 865:Middlewares/Third_Party/FreeRTOS/Source/stream_buffer.c **** {
 1904              		.loc 1 865 1
 1905              		.cfi_startproc
 1906              		@ args = 0, pretend = 0, frame = 56
 1907              		@ frame_needed = 1, uses_anonymous_args = 0
 1908 0000 80B5     		push	{r7, lr}
 1909              		.cfi_def_cfa_offset 8
 1910              		.cfi_offset 7, -8
 1911              		.cfi_offset 14, -4
 1912 0002 90B0     		sub	sp, sp, #64
 1913              		.cfi_def_cfa_offset 72
 1914 0004 02AF     		add	r7, sp, #8
 1915              		.cfi_def_cfa 7, 64
 1916 0006 F860     		str	r0, [r7, #12]
 1917 0008 B960     		str	r1, [r7, #8]
 1918 000a 7A60     		str	r2, [r7, #4]
 1919 000c 3B60     		str	r3, [r7]
ARM GAS  C:\Users\Halil\AppData\Local\Temp\ccdYOoXG.s 			page 54


 866:Middlewares/Third_Party/FreeRTOS/Source/stream_buffer.c **** StreamBuffer_t * const pxStreamBuffer = xStreamBuffer;
 1920              		.loc 1 866 24
 1921 000e FB68     		ldr	r3, [r7, #12]
 1922 0010 FB62     		str	r3, [r7, #44]
 867:Middlewares/Third_Party/FreeRTOS/Source/stream_buffer.c **** size_t xReceivedLength = 0, xBytesAvailable, xBytesToStoreMessageLength;
 1923              		.loc 1 867 8
 1924 0012 0023     		movs	r3, #0
 1925 0014 7B63     		str	r3, [r7, #52]
 868:Middlewares/Third_Party/FreeRTOS/Source/stream_buffer.c **** 
 869:Middlewares/Third_Party/FreeRTOS/Source/stream_buffer.c **** 	configASSERT( pvRxData );
 1926              		.loc 1 869 2
 1927 0016 BB68     		ldr	r3, [r7, #8]
 1928 0018 002B     		cmp	r3, #0
 1929 001a 0BD1     		bne	.L120
 1930              	.LBB150:
 1931              	.LBB151:
 195:Middlewares/Third_Party/FreeRTOS/Source/portable/GCC/ARM_CM4F/portmacro.h **** 	(
 1932              		.loc 2 195 2
 1933              		.syntax unified
 1934              	@ 195 "Middlewares/Third_Party/FreeRTOS/Source/portable/GCC/ARM_CM4F/portmacro.h" 1
 1935 001c 4FF05003 			mov r3, #80												
 1936 0020 83F31188 		msr basepri, r3											
 1937 0024 BFF36F8F 		isb														
 1938 0028 BFF34F8F 		dsb														
 1939              	
 1940              	@ 0 "" 2
 1941              		.thumb
 1942              		.syntax unified
 1943 002c 3B62     		str	r3, [r7, #32]
 203:Middlewares/Third_Party/FreeRTOS/Source/portable/GCC/ARM_CM4F/portmacro.h **** 
 1944              		.loc 2 203 1
 1945 002e 00BF     		nop
 1946              	.L121:
 1947              	.LBE151:
 1948              	.LBE150:
 1949              		.loc 1 869 2 discriminator 1
 1950 0030 00BF     		nop
 1951 0032 FDE7     		b	.L121
 1952              	.L120:
 870:Middlewares/Third_Party/FreeRTOS/Source/stream_buffer.c **** 	configASSERT( pxStreamBuffer );
 1953              		.loc 1 870 2
 1954 0034 FB6A     		ldr	r3, [r7, #44]
 1955 0036 002B     		cmp	r3, #0
 1956 0038 0BD1     		bne	.L122
 1957              	.LBB152:
 1958              	.LBB153:
 195:Middlewares/Third_Party/FreeRTOS/Source/portable/GCC/ARM_CM4F/portmacro.h **** 	(
 1959              		.loc 2 195 2
 1960              		.syntax unified
 1961              	@ 195 "Middlewares/Third_Party/FreeRTOS/Source/portable/GCC/ARM_CM4F/portmacro.h" 1
 1962 003a 4FF05003 			mov r3, #80												
 1963 003e 83F31188 		msr basepri, r3											
 1964 0042 BFF36F8F 		isb														
 1965 0046 BFF34F8F 		dsb														
 1966              	
 1967              	@ 0 "" 2
 1968              		.thumb
ARM GAS  C:\Users\Halil\AppData\Local\Temp\ccdYOoXG.s 			page 55


 1969              		.syntax unified
 1970 004a FB61     		str	r3, [r7, #28]
 203:Middlewares/Third_Party/FreeRTOS/Source/portable/GCC/ARM_CM4F/portmacro.h **** 
 1971              		.loc 2 203 1
 1972 004c 00BF     		nop
 1973              	.L123:
 1974              	.LBE153:
 1975              	.LBE152:
 1976              		.loc 1 870 2 discriminator 2
 1977 004e 00BF     		nop
 1978 0050 FDE7     		b	.L123
 1979              	.L122:
 871:Middlewares/Third_Party/FreeRTOS/Source/stream_buffer.c **** 
 872:Middlewares/Third_Party/FreeRTOS/Source/stream_buffer.c **** 	/* This receive function is used by both message buffers, which store
 873:Middlewares/Third_Party/FreeRTOS/Source/stream_buffer.c **** 	discrete messages, and stream buffers, which store a continuous stream of
 874:Middlewares/Third_Party/FreeRTOS/Source/stream_buffer.c **** 	bytes.  Discrete messages include an additional
 875:Middlewares/Third_Party/FreeRTOS/Source/stream_buffer.c **** 	sbBYTES_TO_STORE_MESSAGE_LENGTH bytes that hold the length of the
 876:Middlewares/Third_Party/FreeRTOS/Source/stream_buffer.c **** 	message. */
 877:Middlewares/Third_Party/FreeRTOS/Source/stream_buffer.c **** 	if( ( pxStreamBuffer->ucFlags & sbFLAGS_IS_MESSAGE_BUFFER ) != ( uint8_t ) 0 )
 1980              		.loc 1 877 22
 1981 0052 FB6A     		ldr	r3, [r7, #44]
 1982 0054 1B7F     		ldrb	r3, [r3, #28]	@ zero_extendqisi2
 1983              		.loc 1 877 32
 1984 0056 03F00103 		and	r3, r3, #1
 1985              		.loc 1 877 4
 1986 005a 002B     		cmp	r3, #0
 1987 005c 02D0     		beq	.L124
 878:Middlewares/Third_Party/FreeRTOS/Source/stream_buffer.c **** 	{
 879:Middlewares/Third_Party/FreeRTOS/Source/stream_buffer.c **** 		xBytesToStoreMessageLength = sbBYTES_TO_STORE_MESSAGE_LENGTH;
 1988              		.loc 1 879 30
 1989 005e 0423     		movs	r3, #4
 1990 0060 3B63     		str	r3, [r7, #48]
 1991 0062 01E0     		b	.L125
 1992              	.L124:
 880:Middlewares/Third_Party/FreeRTOS/Source/stream_buffer.c **** 	}
 881:Middlewares/Third_Party/FreeRTOS/Source/stream_buffer.c **** 	else
 882:Middlewares/Third_Party/FreeRTOS/Source/stream_buffer.c **** 	{
 883:Middlewares/Third_Party/FreeRTOS/Source/stream_buffer.c **** 		xBytesToStoreMessageLength = 0;
 1993              		.loc 1 883 30
 1994 0064 0023     		movs	r3, #0
 1995 0066 3B63     		str	r3, [r7, #48]
 1996              	.L125:
 884:Middlewares/Third_Party/FreeRTOS/Source/stream_buffer.c **** 	}
 885:Middlewares/Third_Party/FreeRTOS/Source/stream_buffer.c **** 
 886:Middlewares/Third_Party/FreeRTOS/Source/stream_buffer.c **** 	xBytesAvailable = prvBytesInBuffer( pxStreamBuffer );
 1997              		.loc 1 886 20
 1998 0068 F86A     		ldr	r0, [r7, #44]
 1999 006a FFF7FEFF 		bl	prvBytesInBuffer
 2000 006e B862     		str	r0, [r7, #40]
 887:Middlewares/Third_Party/FreeRTOS/Source/stream_buffer.c **** 
 888:Middlewares/Third_Party/FreeRTOS/Source/stream_buffer.c **** 	/* Whether receiving a discrete message (where xBytesToStoreMessageLength
 889:Middlewares/Third_Party/FreeRTOS/Source/stream_buffer.c **** 	holds the number of bytes used to store the message length) or a stream of
 890:Middlewares/Third_Party/FreeRTOS/Source/stream_buffer.c **** 	bytes (where xBytesToStoreMessageLength is zero), the number of bytes
 891:Middlewares/Third_Party/FreeRTOS/Source/stream_buffer.c **** 	available must be greater than xBytesToStoreMessageLength to be able to
 892:Middlewares/Third_Party/FreeRTOS/Source/stream_buffer.c **** 	read bytes from the buffer. */
 893:Middlewares/Third_Party/FreeRTOS/Source/stream_buffer.c **** 	if( xBytesAvailable > xBytesToStoreMessageLength )
 2001              		.loc 1 893 4
ARM GAS  C:\Users\Halil\AppData\Local\Temp\ccdYOoXG.s 			page 56


 2002 0070 BA6A     		ldr	r2, [r7, #40]
 2003 0072 3B6B     		ldr	r3, [r7, #48]
 2004 0074 9A42     		cmp	r2, r3
 2005 0076 2FD9     		bls	.L126
 894:Middlewares/Third_Party/FreeRTOS/Source/stream_buffer.c **** 	{
 895:Middlewares/Third_Party/FreeRTOS/Source/stream_buffer.c **** 		xReceivedLength = prvReadMessageFromBuffer( pxStreamBuffer, pvRxData, xBufferLengthBytes, xBytesA
 2006              		.loc 1 895 21
 2007 0078 3B6B     		ldr	r3, [r7, #48]
 2008 007a 0093     		str	r3, [sp]
 2009 007c BB6A     		ldr	r3, [r7, #40]
 2010 007e 7A68     		ldr	r2, [r7, #4]
 2011 0080 B968     		ldr	r1, [r7, #8]
 2012 0082 F86A     		ldr	r0, [r7, #44]
 2013 0084 FFF7FEFF 		bl	prvReadMessageFromBuffer
 2014 0088 7863     		str	r0, [r7, #52]
 896:Middlewares/Third_Party/FreeRTOS/Source/stream_buffer.c **** 
 897:Middlewares/Third_Party/FreeRTOS/Source/stream_buffer.c **** 		/* Was a task waiting for space in the buffer? */
 898:Middlewares/Third_Party/FreeRTOS/Source/stream_buffer.c **** 		if( xReceivedLength != ( size_t ) 0 )
 2015              		.loc 1 898 5
 2016 008a 7B6B     		ldr	r3, [r7, #52]
 2017 008c 002B     		cmp	r3, #0
 2018 008e 23D0     		beq	.L126
 2019              	.LBB154:
 2020              	.LBB155:
 2021              	.LBB156:
 211:Middlewares/Third_Party/FreeRTOS/Source/portable/GCC/ARM_CM4F/portmacro.h **** 	(
 2022              		.loc 2 211 2
 2023              		.syntax unified
 2024              	@ 211 "Middlewares/Third_Party/FreeRTOS/Source/portable/GCC/ARM_CM4F/portmacro.h" 1
 2025 0090 EFF31182 			mrs r2, basepri											
 2026 0094 4FF05003 		mov r3, #80												
 2027 0098 83F31188 		msr basepri, r3											
 2028 009c BFF36F8F 		isb														
 2029 00a0 BFF34F8F 		dsb														
 2030              	
 2031              	@ 0 "" 2
 2032              		.thumb
 2033              		.syntax unified
 2034 00a4 BA61     		str	r2, [r7, #24]
 2035 00a6 7B61     		str	r3, [r7, #20]
 223:Middlewares/Third_Party/FreeRTOS/Source/portable/GCC/ARM_CM4F/portmacro.h **** }
 2036              		.loc 2 223 9
 2037 00a8 BB69     		ldr	r3, [r7, #24]
 2038              	.LBE156:
 2039              	.LBE155:
 899:Middlewares/Third_Party/FreeRTOS/Source/stream_buffer.c **** 		{
 900:Middlewares/Third_Party/FreeRTOS/Source/stream_buffer.c **** 			sbRECEIVE_COMPLETED_FROM_ISR( pxStreamBuffer, pxHigherPriorityTaskWoken );
 2040              		.loc 1 900 4
 2041 00aa 7B62     		str	r3, [r7, #36]
 2042 00ac FB6A     		ldr	r3, [r7, #44]
 2043 00ae 5B69     		ldr	r3, [r3, #20]
 2044 00b0 002B     		cmp	r3, #0
 2045 00b2 0BD0     		beq	.L128
 2046              		.loc 1 900 4 is_stmt 0 discriminator 1
 2047 00b4 FB6A     		ldr	r3, [r7, #44]
 2048 00b6 5869     		ldr	r0, [r3, #20]
 2049 00b8 3B68     		ldr	r3, [r7]
ARM GAS  C:\Users\Halil\AppData\Local\Temp\ccdYOoXG.s 			page 57


 2050 00ba 0093     		str	r3, [sp]
 2051 00bc 0023     		movs	r3, #0
 2052 00be 0022     		movs	r2, #0
 2053 00c0 0021     		movs	r1, #0
 2054 00c2 FFF7FEFF 		bl	xTaskGenericNotifyFromISR
 2055 00c6 FB6A     		ldr	r3, [r7, #44]
 2056 00c8 0022     		movs	r2, #0
 2057 00ca 5A61     		str	r2, [r3, #20]
 2058              	.L128:
 2059 00cc 7B6A     		ldr	r3, [r7, #36]
 2060 00ce 3B61     		str	r3, [r7, #16]
 2061              	.LBB157:
 2062              	.LBB158:
 229:Middlewares/Third_Party/FreeRTOS/Source/portable/GCC/ARM_CM4F/portmacro.h **** 	(
 2063              		.loc 2 229 2 is_stmt 1 discriminator 3
 2064 00d0 3B69     		ldr	r3, [r7, #16]
 2065              		.syntax unified
 2066              	@ 229 "Middlewares/Third_Party/FreeRTOS/Source/portable/GCC/ARM_CM4F/portmacro.h" 1
 2067 00d2 83F31188 			msr basepri, r3	
 2068              	@ 0 "" 2
 2069              		.loc 2 233 1 discriminator 3
 2070              		.thumb
 2071              		.syntax unified
 2072 00d6 00BF     		nop
 2073              	.L126:
 2074              	.LBE158:
 2075              	.LBE157:
 2076              	.LBE154:
 901:Middlewares/Third_Party/FreeRTOS/Source/stream_buffer.c **** 		}
 902:Middlewares/Third_Party/FreeRTOS/Source/stream_buffer.c **** 		else
 903:Middlewares/Third_Party/FreeRTOS/Source/stream_buffer.c **** 		{
 904:Middlewares/Third_Party/FreeRTOS/Source/stream_buffer.c **** 			mtCOVERAGE_TEST_MARKER();
 905:Middlewares/Third_Party/FreeRTOS/Source/stream_buffer.c **** 		}
 906:Middlewares/Third_Party/FreeRTOS/Source/stream_buffer.c **** 	}
 907:Middlewares/Third_Party/FreeRTOS/Source/stream_buffer.c **** 	else
 908:Middlewares/Third_Party/FreeRTOS/Source/stream_buffer.c **** 	{
 909:Middlewares/Third_Party/FreeRTOS/Source/stream_buffer.c **** 		mtCOVERAGE_TEST_MARKER();
 910:Middlewares/Third_Party/FreeRTOS/Source/stream_buffer.c **** 	}
 911:Middlewares/Third_Party/FreeRTOS/Source/stream_buffer.c **** 
 912:Middlewares/Third_Party/FreeRTOS/Source/stream_buffer.c **** 	traceSTREAM_BUFFER_RECEIVE_FROM_ISR( xStreamBuffer, xReceivedLength );
 2077              		.loc 1 912 2
 2078 00d8 FB68     		ldr	r3, [r7, #12]
 2079 00da 7A6B     		ldr	r2, [r7, #52]
 2080 00dc 1946     		mov	r1, r3
 2081 00de 8F20     		movs	r0, #143
 2082 00e0 FFF7FEFF 		bl	SEGGER_SYSVIEW_RecordU32x2
 913:Middlewares/Third_Party/FreeRTOS/Source/stream_buffer.c **** 
 914:Middlewares/Third_Party/FreeRTOS/Source/stream_buffer.c **** 	return xReceivedLength;
 2083              		.loc 1 914 9
 2084 00e4 7B6B     		ldr	r3, [r7, #52]
 915:Middlewares/Third_Party/FreeRTOS/Source/stream_buffer.c **** }
 2085              		.loc 1 915 1
 2086 00e6 1846     		mov	r0, r3
 2087 00e8 3837     		adds	r7, r7, #56
 2088              		.cfi_def_cfa_offset 8
 2089 00ea BD46     		mov	sp, r7
 2090              		.cfi_def_cfa_register 13
ARM GAS  C:\Users\Halil\AppData\Local\Temp\ccdYOoXG.s 			page 58


 2091              		@ sp needed
 2092 00ec 80BD     		pop	{r7, pc}
 2093              		.cfi_endproc
 2094              	.LFE16:
 2096              		.section	.text.prvReadMessageFromBuffer,"ax",%progbits
 2097              		.align	1
 2098              		.syntax unified
 2099              		.thumb
 2100              		.thumb_func
 2102              	prvReadMessageFromBuffer:
 2103              	.LFB17:
 916:Middlewares/Third_Party/FreeRTOS/Source/stream_buffer.c **** /*-----------------------------------------------------------*/
 917:Middlewares/Third_Party/FreeRTOS/Source/stream_buffer.c **** 
 918:Middlewares/Third_Party/FreeRTOS/Source/stream_buffer.c **** static size_t prvReadMessageFromBuffer( StreamBuffer_t *pxStreamBuffer,
 919:Middlewares/Third_Party/FreeRTOS/Source/stream_buffer.c **** 										void *pvRxData,
 920:Middlewares/Third_Party/FreeRTOS/Source/stream_buffer.c **** 										size_t xBufferLengthBytes,
 921:Middlewares/Third_Party/FreeRTOS/Source/stream_buffer.c **** 										size_t xBytesAvailable,
 922:Middlewares/Third_Party/FreeRTOS/Source/stream_buffer.c **** 										size_t xBytesToStoreMessageLength )
 923:Middlewares/Third_Party/FreeRTOS/Source/stream_buffer.c **** {
 2104              		.loc 1 923 1
 2105              		.cfi_startproc
 2106              		@ args = 4, pretend = 0, frame = 32
 2107              		@ frame_needed = 1, uses_anonymous_args = 0
 2108 0000 80B5     		push	{r7, lr}
 2109              		.cfi_def_cfa_offset 8
 2110              		.cfi_offset 7, -8
 2111              		.cfi_offset 14, -4
 2112 0002 88B0     		sub	sp, sp, #32
 2113              		.cfi_def_cfa_offset 40
 2114 0004 00AF     		add	r7, sp, #0
 2115              		.cfi_def_cfa_register 7
 2116 0006 F860     		str	r0, [r7, #12]
 2117 0008 B960     		str	r1, [r7, #8]
 2118 000a 7A60     		str	r2, [r7, #4]
 2119 000c 3B60     		str	r3, [r7]
 924:Middlewares/Third_Party/FreeRTOS/Source/stream_buffer.c **** size_t xOriginalTail, xReceivedLength, xNextMessageLength;
 925:Middlewares/Third_Party/FreeRTOS/Source/stream_buffer.c **** configMESSAGE_BUFFER_LENGTH_TYPE xTempNextMessageLength;
 926:Middlewares/Third_Party/FreeRTOS/Source/stream_buffer.c **** 
 927:Middlewares/Third_Party/FreeRTOS/Source/stream_buffer.c **** 	if( xBytesToStoreMessageLength != ( size_t ) 0 )
 2120              		.loc 1 927 4
 2121 000e BB6A     		ldr	r3, [r7, #40]
 2122 0010 002B     		cmp	r3, #0
 2123 0012 19D0     		beq	.L131
 928:Middlewares/Third_Party/FreeRTOS/Source/stream_buffer.c **** 	{
 929:Middlewares/Third_Party/FreeRTOS/Source/stream_buffer.c **** 		/* A discrete message is being received.  First receive the length
 930:Middlewares/Third_Party/FreeRTOS/Source/stream_buffer.c **** 		of the message.  A copy of the tail is stored so the buffer can be
 931:Middlewares/Third_Party/FreeRTOS/Source/stream_buffer.c **** 		returned to its prior state if the length of the message is too
 932:Middlewares/Third_Party/FreeRTOS/Source/stream_buffer.c **** 		large for the provided buffer. */
 933:Middlewares/Third_Party/FreeRTOS/Source/stream_buffer.c **** 		xOriginalTail = pxStreamBuffer->xTail;
 2124              		.loc 1 933 17
 2125 0014 FB68     		ldr	r3, [r7, #12]
 2126 0016 1B68     		ldr	r3, [r3]
 2127 0018 BB61     		str	r3, [r7, #24]
 934:Middlewares/Third_Party/FreeRTOS/Source/stream_buffer.c **** 		( void ) prvReadBytesFromBuffer( pxStreamBuffer, ( uint8_t * ) &xTempNextMessageLength, xBytesToS
 2128              		.loc 1 934 12
 2129 001a 07F11001 		add	r1, r7, #16
 2130 001e 3B68     		ldr	r3, [r7]
ARM GAS  C:\Users\Halil\AppData\Local\Temp\ccdYOoXG.s 			page 59


 2131 0020 BA6A     		ldr	r2, [r7, #40]
 2132 0022 F868     		ldr	r0, [r7, #12]
 2133 0024 FFF7FEFF 		bl	prvReadBytesFromBuffer
 935:Middlewares/Third_Party/FreeRTOS/Source/stream_buffer.c **** 		xNextMessageLength = ( size_t ) xTempNextMessageLength;
 2134              		.loc 1 935 22
 2135 0028 3B69     		ldr	r3, [r7, #16]
 2136 002a FB61     		str	r3, [r7, #28]
 936:Middlewares/Third_Party/FreeRTOS/Source/stream_buffer.c **** 
 937:Middlewares/Third_Party/FreeRTOS/Source/stream_buffer.c **** 		/* Reduce the number of bytes available by the number of bytes just
 938:Middlewares/Third_Party/FreeRTOS/Source/stream_buffer.c **** 		read out. */
 939:Middlewares/Third_Party/FreeRTOS/Source/stream_buffer.c **** 		xBytesAvailable -= xBytesToStoreMessageLength;
 2137              		.loc 1 939 19
 2138 002c 3A68     		ldr	r2, [r7]
 2139 002e BB6A     		ldr	r3, [r7, #40]
 2140 0030 D31A     		subs	r3, r2, r3
 2141 0032 3B60     		str	r3, [r7]
 940:Middlewares/Third_Party/FreeRTOS/Source/stream_buffer.c **** 
 941:Middlewares/Third_Party/FreeRTOS/Source/stream_buffer.c **** 		/* Check there is enough space in the buffer provided by the
 942:Middlewares/Third_Party/FreeRTOS/Source/stream_buffer.c **** 		user. */
 943:Middlewares/Third_Party/FreeRTOS/Source/stream_buffer.c **** 		if( xNextMessageLength > xBufferLengthBytes )
 2142              		.loc 1 943 5
 2143 0034 FA69     		ldr	r2, [r7, #28]
 2144 0036 7B68     		ldr	r3, [r7, #4]
 2145 0038 9A42     		cmp	r2, r3
 2146 003a 07D9     		bls	.L132
 944:Middlewares/Third_Party/FreeRTOS/Source/stream_buffer.c **** 		{
 945:Middlewares/Third_Party/FreeRTOS/Source/stream_buffer.c **** 			/* The user has provided insufficient space to read the message
 946:Middlewares/Third_Party/FreeRTOS/Source/stream_buffer.c **** 			so return the buffer to its previous state (so the length of
 947:Middlewares/Third_Party/FreeRTOS/Source/stream_buffer.c **** 			the message is in the buffer again). */
 948:Middlewares/Third_Party/FreeRTOS/Source/stream_buffer.c **** 			pxStreamBuffer->xTail = xOriginalTail;
 2147              		.loc 1 948 26
 2148 003c FB68     		ldr	r3, [r7, #12]
 2149 003e BA69     		ldr	r2, [r7, #24]
 2150 0040 1A60     		str	r2, [r3]
 949:Middlewares/Third_Party/FreeRTOS/Source/stream_buffer.c **** 			xNextMessageLength = 0;
 2151              		.loc 1 949 23
 2152 0042 0023     		movs	r3, #0
 2153 0044 FB61     		str	r3, [r7, #28]
 2154 0046 01E0     		b	.L132
 2155              	.L131:
 950:Middlewares/Third_Party/FreeRTOS/Source/stream_buffer.c **** 		}
 951:Middlewares/Third_Party/FreeRTOS/Source/stream_buffer.c **** 		else
 952:Middlewares/Third_Party/FreeRTOS/Source/stream_buffer.c **** 		{
 953:Middlewares/Third_Party/FreeRTOS/Source/stream_buffer.c **** 			mtCOVERAGE_TEST_MARKER();
 954:Middlewares/Third_Party/FreeRTOS/Source/stream_buffer.c **** 		}
 955:Middlewares/Third_Party/FreeRTOS/Source/stream_buffer.c **** 	}
 956:Middlewares/Third_Party/FreeRTOS/Source/stream_buffer.c **** 	else
 957:Middlewares/Third_Party/FreeRTOS/Source/stream_buffer.c **** 	{
 958:Middlewares/Third_Party/FreeRTOS/Source/stream_buffer.c **** 		/* A stream of bytes is being received (as opposed to a discrete
 959:Middlewares/Third_Party/FreeRTOS/Source/stream_buffer.c **** 		message), so read as many bytes as possible. */
 960:Middlewares/Third_Party/FreeRTOS/Source/stream_buffer.c **** 		xNextMessageLength = xBufferLengthBytes;
 2156              		.loc 1 960 22
 2157 0048 7B68     		ldr	r3, [r7, #4]
 2158 004a FB61     		str	r3, [r7, #28]
 2159              	.L132:
 961:Middlewares/Third_Party/FreeRTOS/Source/stream_buffer.c **** 	}
 962:Middlewares/Third_Party/FreeRTOS/Source/stream_buffer.c **** 
ARM GAS  C:\Users\Halil\AppData\Local\Temp\ccdYOoXG.s 			page 60


 963:Middlewares/Third_Party/FreeRTOS/Source/stream_buffer.c **** 	/* Read the actual data. */
 964:Middlewares/Third_Party/FreeRTOS/Source/stream_buffer.c **** 	xReceivedLength = prvReadBytesFromBuffer( pxStreamBuffer, ( uint8_t * ) pvRxData, xNextMessageLeng
 2160              		.loc 1 964 20
 2161 004c 3B68     		ldr	r3, [r7]
 2162 004e FA69     		ldr	r2, [r7, #28]
 2163 0050 B968     		ldr	r1, [r7, #8]
 2164 0052 F868     		ldr	r0, [r7, #12]
 2165 0054 FFF7FEFF 		bl	prvReadBytesFromBuffer
 2166 0058 7861     		str	r0, [r7, #20]
 965:Middlewares/Third_Party/FreeRTOS/Source/stream_buffer.c **** 
 966:Middlewares/Third_Party/FreeRTOS/Source/stream_buffer.c **** 	return xReceivedLength;
 2167              		.loc 1 966 9
 2168 005a 7B69     		ldr	r3, [r7, #20]
 967:Middlewares/Third_Party/FreeRTOS/Source/stream_buffer.c **** }
 2169              		.loc 1 967 1
 2170 005c 1846     		mov	r0, r3
 2171 005e 2037     		adds	r7, r7, #32
 2172              		.cfi_def_cfa_offset 8
 2173 0060 BD46     		mov	sp, r7
 2174              		.cfi_def_cfa_register 13
 2175              		@ sp needed
 2176 0062 80BD     		pop	{r7, pc}
 2177              		.cfi_endproc
 2178              	.LFE17:
 2180              		.section	.text.xStreamBufferIsEmpty,"ax",%progbits
 2181              		.align	1
 2182              		.global	xStreamBufferIsEmpty
 2183              		.syntax unified
 2184              		.thumb
 2185              		.thumb_func
 2187              	xStreamBufferIsEmpty:
 2188              	.LFB18:
 968:Middlewares/Third_Party/FreeRTOS/Source/stream_buffer.c **** /*-----------------------------------------------------------*/
 969:Middlewares/Third_Party/FreeRTOS/Source/stream_buffer.c **** 
 970:Middlewares/Third_Party/FreeRTOS/Source/stream_buffer.c **** BaseType_t xStreamBufferIsEmpty( StreamBufferHandle_t xStreamBuffer )
 971:Middlewares/Third_Party/FreeRTOS/Source/stream_buffer.c **** {
 2189              		.loc 1 971 1
 2190              		.cfi_startproc
 2191              		@ args = 0, pretend = 0, frame = 24
 2192              		@ frame_needed = 1, uses_anonymous_args = 0
 2193              		@ link register save eliminated.
 2194 0000 80B4     		push	{r7}
 2195              		.cfi_def_cfa_offset 4
 2196              		.cfi_offset 7, -4
 2197 0002 87B0     		sub	sp, sp, #28
 2198              		.cfi_def_cfa_offset 32
 2199 0004 00AF     		add	r7, sp, #0
 2200              		.cfi_def_cfa_register 7
 2201 0006 7860     		str	r0, [r7, #4]
 972:Middlewares/Third_Party/FreeRTOS/Source/stream_buffer.c **** const StreamBuffer_t * const pxStreamBuffer = xStreamBuffer;
 2202              		.loc 1 972 30
 2203 0008 7B68     		ldr	r3, [r7, #4]
 2204 000a 3B61     		str	r3, [r7, #16]
 973:Middlewares/Third_Party/FreeRTOS/Source/stream_buffer.c **** BaseType_t xReturn;
 974:Middlewares/Third_Party/FreeRTOS/Source/stream_buffer.c **** size_t xTail;
 975:Middlewares/Third_Party/FreeRTOS/Source/stream_buffer.c **** 
 976:Middlewares/Third_Party/FreeRTOS/Source/stream_buffer.c **** 	configASSERT( pxStreamBuffer );
ARM GAS  C:\Users\Halil\AppData\Local\Temp\ccdYOoXG.s 			page 61


 2205              		.loc 1 976 2
 2206 000c 3B69     		ldr	r3, [r7, #16]
 2207 000e 002B     		cmp	r3, #0
 2208 0010 0BD1     		bne	.L135
 2209              	.LBB159:
 2210              	.LBB160:
 195:Middlewares/Third_Party/FreeRTOS/Source/portable/GCC/ARM_CM4F/portmacro.h **** 	(
 2211              		.loc 2 195 2
 2212              		.syntax unified
 2213              	@ 195 "Middlewares/Third_Party/FreeRTOS/Source/portable/GCC/ARM_CM4F/portmacro.h" 1
 2214 0012 4FF05003 			mov r3, #80												
 2215 0016 83F31188 		msr basepri, r3											
 2216 001a BFF36F8F 		isb														
 2217 001e BFF34F8F 		dsb														
 2218              	
 2219              	@ 0 "" 2
 2220              		.thumb
 2221              		.syntax unified
 2222 0022 BB60     		str	r3, [r7, #8]
 203:Middlewares/Third_Party/FreeRTOS/Source/portable/GCC/ARM_CM4F/portmacro.h **** 
 2223              		.loc 2 203 1
 2224 0024 00BF     		nop
 2225              	.L136:
 2226              	.LBE160:
 2227              	.LBE159:
 2228              		.loc 1 976 2 discriminator 1
 2229 0026 00BF     		nop
 2230 0028 FDE7     		b	.L136
 2231              	.L135:
 977:Middlewares/Third_Party/FreeRTOS/Source/stream_buffer.c **** 
 978:Middlewares/Third_Party/FreeRTOS/Source/stream_buffer.c **** 	/* True if no bytes are available. */
 979:Middlewares/Third_Party/FreeRTOS/Source/stream_buffer.c **** 	xTail = pxStreamBuffer->xTail;
 2232              		.loc 1 979 8
 2233 002a 3B69     		ldr	r3, [r7, #16]
 2234 002c 1B68     		ldr	r3, [r3]
 2235 002e FB60     		str	r3, [r7, #12]
 980:Middlewares/Third_Party/FreeRTOS/Source/stream_buffer.c **** 	if( pxStreamBuffer->xHead == xTail )
 2236              		.loc 1 980 20
 2237 0030 3B69     		ldr	r3, [r7, #16]
 2238 0032 5B68     		ldr	r3, [r3, #4]
 2239              		.loc 1 980 4
 2240 0034 FA68     		ldr	r2, [r7, #12]
 2241 0036 9A42     		cmp	r2, r3
 2242 0038 02D1     		bne	.L137
 981:Middlewares/Third_Party/FreeRTOS/Source/stream_buffer.c **** 	{
 982:Middlewares/Third_Party/FreeRTOS/Source/stream_buffer.c **** 		xReturn = pdTRUE;
 2243              		.loc 1 982 11
 2244 003a 0123     		movs	r3, #1
 2245 003c 7B61     		str	r3, [r7, #20]
 2246 003e 01E0     		b	.L138
 2247              	.L137:
 983:Middlewares/Third_Party/FreeRTOS/Source/stream_buffer.c **** 	}
 984:Middlewares/Third_Party/FreeRTOS/Source/stream_buffer.c **** 	else
 985:Middlewares/Third_Party/FreeRTOS/Source/stream_buffer.c **** 	{
 986:Middlewares/Third_Party/FreeRTOS/Source/stream_buffer.c **** 		xReturn = pdFALSE;
 2248              		.loc 1 986 11
 2249 0040 0023     		movs	r3, #0
ARM GAS  C:\Users\Halil\AppData\Local\Temp\ccdYOoXG.s 			page 62


 2250 0042 7B61     		str	r3, [r7, #20]
 2251              	.L138:
 987:Middlewares/Third_Party/FreeRTOS/Source/stream_buffer.c **** 	}
 988:Middlewares/Third_Party/FreeRTOS/Source/stream_buffer.c **** 
 989:Middlewares/Third_Party/FreeRTOS/Source/stream_buffer.c **** 	return xReturn;
 2252              		.loc 1 989 9
 2253 0044 7B69     		ldr	r3, [r7, #20]
 990:Middlewares/Third_Party/FreeRTOS/Source/stream_buffer.c **** }
 2254              		.loc 1 990 1
 2255 0046 1846     		mov	r0, r3
 2256 0048 1C37     		adds	r7, r7, #28
 2257              		.cfi_def_cfa_offset 4
 2258 004a BD46     		mov	sp, r7
 2259              		.cfi_def_cfa_register 13
 2260              		@ sp needed
 2261 004c 5DF8047B 		ldr	r7, [sp], #4
 2262              		.cfi_restore 7
 2263              		.cfi_def_cfa_offset 0
 2264 0050 7047     		bx	lr
 2265              		.cfi_endproc
 2266              	.LFE18:
 2268              		.section	.text.xStreamBufferIsFull,"ax",%progbits
 2269              		.align	1
 2270              		.global	xStreamBufferIsFull
 2271              		.syntax unified
 2272              		.thumb
 2273              		.thumb_func
 2275              	xStreamBufferIsFull:
 2276              	.LFB19:
 991:Middlewares/Third_Party/FreeRTOS/Source/stream_buffer.c **** /*-----------------------------------------------------------*/
 992:Middlewares/Third_Party/FreeRTOS/Source/stream_buffer.c **** 
 993:Middlewares/Third_Party/FreeRTOS/Source/stream_buffer.c **** BaseType_t xStreamBufferIsFull( StreamBufferHandle_t xStreamBuffer )
 994:Middlewares/Third_Party/FreeRTOS/Source/stream_buffer.c **** {
 2277              		.loc 1 994 1
 2278              		.cfi_startproc
 2279              		@ args = 0, pretend = 0, frame = 24
 2280              		@ frame_needed = 1, uses_anonymous_args = 0
 2281 0000 80B5     		push	{r7, lr}
 2282              		.cfi_def_cfa_offset 8
 2283              		.cfi_offset 7, -8
 2284              		.cfi_offset 14, -4
 2285 0002 86B0     		sub	sp, sp, #24
 2286              		.cfi_def_cfa_offset 32
 2287 0004 00AF     		add	r7, sp, #0
 2288              		.cfi_def_cfa_register 7
 2289 0006 7860     		str	r0, [r7, #4]
 995:Middlewares/Third_Party/FreeRTOS/Source/stream_buffer.c **** BaseType_t xReturn;
 996:Middlewares/Third_Party/FreeRTOS/Source/stream_buffer.c **** size_t xBytesToStoreMessageLength;
 997:Middlewares/Third_Party/FreeRTOS/Source/stream_buffer.c **** const StreamBuffer_t * const pxStreamBuffer = xStreamBuffer;
 2290              		.loc 1 997 30
 2291 0008 7B68     		ldr	r3, [r7, #4]
 2292 000a FB60     		str	r3, [r7, #12]
 998:Middlewares/Third_Party/FreeRTOS/Source/stream_buffer.c **** 
 999:Middlewares/Third_Party/FreeRTOS/Source/stream_buffer.c **** 	configASSERT( pxStreamBuffer );
 2293              		.loc 1 999 2
 2294 000c FB68     		ldr	r3, [r7, #12]
 2295 000e 002B     		cmp	r3, #0
ARM GAS  C:\Users\Halil\AppData\Local\Temp\ccdYOoXG.s 			page 63


 2296 0010 0BD1     		bne	.L141
 2297              	.LBB161:
 2298              	.LBB162:
 195:Middlewares/Third_Party/FreeRTOS/Source/portable/GCC/ARM_CM4F/portmacro.h **** 	(
 2299              		.loc 2 195 2
 2300              		.syntax unified
 2301              	@ 195 "Middlewares/Third_Party/FreeRTOS/Source/portable/GCC/ARM_CM4F/portmacro.h" 1
 2302 0012 4FF05003 			mov r3, #80												
 2303 0016 83F31188 		msr basepri, r3											
 2304 001a BFF36F8F 		isb														
 2305 001e BFF34F8F 		dsb														
 2306              	
 2307              	@ 0 "" 2
 2308              		.thumb
 2309              		.syntax unified
 2310 0022 BB60     		str	r3, [r7, #8]
 203:Middlewares/Third_Party/FreeRTOS/Source/portable/GCC/ARM_CM4F/portmacro.h **** 
 2311              		.loc 2 203 1
 2312 0024 00BF     		nop
 2313              	.L142:
 2314              	.LBE162:
 2315              	.LBE161:
 2316              		.loc 1 999 2 discriminator 1
 2317 0026 00BF     		nop
 2318 0028 FDE7     		b	.L142
 2319              	.L141:
1000:Middlewares/Third_Party/FreeRTOS/Source/stream_buffer.c **** 
1001:Middlewares/Third_Party/FreeRTOS/Source/stream_buffer.c **** 	/* This generic version of the receive function is used by both message
1002:Middlewares/Third_Party/FreeRTOS/Source/stream_buffer.c **** 	buffers, which store discrete messages, and stream buffers, which store a
1003:Middlewares/Third_Party/FreeRTOS/Source/stream_buffer.c **** 	continuous stream of bytes.  Discrete messages include an additional
1004:Middlewares/Third_Party/FreeRTOS/Source/stream_buffer.c **** 	sbBYTES_TO_STORE_MESSAGE_LENGTH bytes that hold the length of the message. */
1005:Middlewares/Third_Party/FreeRTOS/Source/stream_buffer.c **** 	if( ( pxStreamBuffer->ucFlags & sbFLAGS_IS_MESSAGE_BUFFER ) != ( uint8_t ) 0 )
 2320              		.loc 1 1005 22
 2321 002a FB68     		ldr	r3, [r7, #12]
 2322 002c 1B7F     		ldrb	r3, [r3, #28]	@ zero_extendqisi2
 2323              		.loc 1 1005 32
 2324 002e 03F00103 		and	r3, r3, #1
 2325              		.loc 1 1005 4
 2326 0032 002B     		cmp	r3, #0
 2327 0034 02D0     		beq	.L143
1006:Middlewares/Third_Party/FreeRTOS/Source/stream_buffer.c **** 	{
1007:Middlewares/Third_Party/FreeRTOS/Source/stream_buffer.c **** 		xBytesToStoreMessageLength = sbBYTES_TO_STORE_MESSAGE_LENGTH;
 2328              		.loc 1 1007 30
 2329 0036 0423     		movs	r3, #4
 2330 0038 3B61     		str	r3, [r7, #16]
 2331 003a 01E0     		b	.L144
 2332              	.L143:
1008:Middlewares/Third_Party/FreeRTOS/Source/stream_buffer.c **** 	}
1009:Middlewares/Third_Party/FreeRTOS/Source/stream_buffer.c **** 	else
1010:Middlewares/Third_Party/FreeRTOS/Source/stream_buffer.c **** 	{
1011:Middlewares/Third_Party/FreeRTOS/Source/stream_buffer.c **** 		xBytesToStoreMessageLength = 0;
 2333              		.loc 1 1011 30
 2334 003c 0023     		movs	r3, #0
 2335 003e 3B61     		str	r3, [r7, #16]
 2336              	.L144:
1012:Middlewares/Third_Party/FreeRTOS/Source/stream_buffer.c **** 	}
1013:Middlewares/Third_Party/FreeRTOS/Source/stream_buffer.c **** 
ARM GAS  C:\Users\Halil\AppData\Local\Temp\ccdYOoXG.s 			page 64


1014:Middlewares/Third_Party/FreeRTOS/Source/stream_buffer.c **** 	/* True if the available space equals zero. */
1015:Middlewares/Third_Party/FreeRTOS/Source/stream_buffer.c **** 	if( xStreamBufferSpacesAvailable( xStreamBuffer ) <= xBytesToStoreMessageLength )
 2337              		.loc 1 1015 6
 2338 0040 7868     		ldr	r0, [r7, #4]
 2339 0042 FFF7FEFF 		bl	xStreamBufferSpacesAvailable
 2340 0046 0246     		mov	r2, r0
 2341              		.loc 1 1015 4
 2342 0048 3B69     		ldr	r3, [r7, #16]
 2343 004a 9342     		cmp	r3, r2
 2344 004c 02D3     		bcc	.L145
1016:Middlewares/Third_Party/FreeRTOS/Source/stream_buffer.c **** 	{
1017:Middlewares/Third_Party/FreeRTOS/Source/stream_buffer.c **** 		xReturn = pdTRUE;
 2345              		.loc 1 1017 11
 2346 004e 0123     		movs	r3, #1
 2347 0050 7B61     		str	r3, [r7, #20]
 2348 0052 01E0     		b	.L146
 2349              	.L145:
1018:Middlewares/Third_Party/FreeRTOS/Source/stream_buffer.c **** 	}
1019:Middlewares/Third_Party/FreeRTOS/Source/stream_buffer.c **** 	else
1020:Middlewares/Third_Party/FreeRTOS/Source/stream_buffer.c **** 	{
1021:Middlewares/Third_Party/FreeRTOS/Source/stream_buffer.c **** 		xReturn = pdFALSE;
 2350              		.loc 1 1021 11
 2351 0054 0023     		movs	r3, #0
 2352 0056 7B61     		str	r3, [r7, #20]
 2353              	.L146:
1022:Middlewares/Third_Party/FreeRTOS/Source/stream_buffer.c **** 	}
1023:Middlewares/Third_Party/FreeRTOS/Source/stream_buffer.c **** 
1024:Middlewares/Third_Party/FreeRTOS/Source/stream_buffer.c **** 	return xReturn;
 2354              		.loc 1 1024 9
 2355 0058 7B69     		ldr	r3, [r7, #20]
1025:Middlewares/Third_Party/FreeRTOS/Source/stream_buffer.c **** }
 2356              		.loc 1 1025 1
 2357 005a 1846     		mov	r0, r3
 2358 005c 1837     		adds	r7, r7, #24
 2359              		.cfi_def_cfa_offset 8
 2360 005e BD46     		mov	sp, r7
 2361              		.cfi_def_cfa_register 13
 2362              		@ sp needed
 2363 0060 80BD     		pop	{r7, pc}
 2364              		.cfi_endproc
 2365              	.LFE19:
 2367              		.section	.text.xStreamBufferSendCompletedFromISR,"ax",%progbits
 2368              		.align	1
 2369              		.global	xStreamBufferSendCompletedFromISR
 2370              		.syntax unified
 2371              		.thumb
 2372              		.thumb_func
 2374              	xStreamBufferSendCompletedFromISR:
 2375              	.LFB20:
1026:Middlewares/Third_Party/FreeRTOS/Source/stream_buffer.c **** /*-----------------------------------------------------------*/
1027:Middlewares/Third_Party/FreeRTOS/Source/stream_buffer.c **** 
1028:Middlewares/Third_Party/FreeRTOS/Source/stream_buffer.c **** BaseType_t xStreamBufferSendCompletedFromISR( StreamBufferHandle_t xStreamBuffer, BaseType_t *pxHig
1029:Middlewares/Third_Party/FreeRTOS/Source/stream_buffer.c **** {
 2376              		.loc 1 1029 1
 2377              		.cfi_startproc
 2378              		@ args = 0, pretend = 0, frame = 40
 2379              		@ frame_needed = 1, uses_anonymous_args = 0
ARM GAS  C:\Users\Halil\AppData\Local\Temp\ccdYOoXG.s 			page 65


 2380 0000 80B5     		push	{r7, lr}
 2381              		.cfi_def_cfa_offset 8
 2382              		.cfi_offset 7, -8
 2383              		.cfi_offset 14, -4
 2384 0002 8CB0     		sub	sp, sp, #48
 2385              		.cfi_def_cfa_offset 56
 2386 0004 02AF     		add	r7, sp, #8
 2387              		.cfi_def_cfa 7, 48
 2388 0006 7860     		str	r0, [r7, #4]
 2389 0008 3960     		str	r1, [r7]
1030:Middlewares/Third_Party/FreeRTOS/Source/stream_buffer.c **** StreamBuffer_t * const pxStreamBuffer = xStreamBuffer;
 2390              		.loc 1 1030 24
 2391 000a 7B68     		ldr	r3, [r7, #4]
 2392 000c 3B62     		str	r3, [r7, #32]
1031:Middlewares/Third_Party/FreeRTOS/Source/stream_buffer.c **** BaseType_t xReturn;
1032:Middlewares/Third_Party/FreeRTOS/Source/stream_buffer.c **** UBaseType_t uxSavedInterruptStatus;
1033:Middlewares/Third_Party/FreeRTOS/Source/stream_buffer.c **** 
1034:Middlewares/Third_Party/FreeRTOS/Source/stream_buffer.c **** 	configASSERT( pxStreamBuffer );
 2393              		.loc 1 1034 2
 2394 000e 3B6A     		ldr	r3, [r7, #32]
 2395 0010 002B     		cmp	r3, #0
 2396 0012 0BD1     		bne	.L149
 2397              	.LBB163:
 2398              	.LBB164:
 195:Middlewares/Third_Party/FreeRTOS/Source/portable/GCC/ARM_CM4F/portmacro.h **** 	(
 2399              		.loc 2 195 2
 2400              		.syntax unified
 2401              	@ 195 "Middlewares/Third_Party/FreeRTOS/Source/portable/GCC/ARM_CM4F/portmacro.h" 1
 2402 0014 4FF05003 			mov r3, #80												
 2403 0018 83F31188 		msr basepri, r3											
 2404 001c BFF36F8F 		isb														
 2405 0020 BFF34F8F 		dsb														
 2406              	
 2407              	@ 0 "" 2
 2408              		.thumb
 2409              		.syntax unified
 2410 0024 BB61     		str	r3, [r7, #24]
 203:Middlewares/Third_Party/FreeRTOS/Source/portable/GCC/ARM_CM4F/portmacro.h **** 
 2411              		.loc 2 203 1
 2412 0026 00BF     		nop
 2413              	.L150:
 2414              	.LBE164:
 2415              	.LBE163:
 2416              		.loc 1 1034 2 discriminator 1
 2417 0028 00BF     		nop
 2418 002a FDE7     		b	.L150
 2419              	.L149:
 2420              	.LBB165:
 2421              	.LBB166:
 211:Middlewares/Third_Party/FreeRTOS/Source/portable/GCC/ARM_CM4F/portmacro.h **** 	(
 2422              		.loc 2 211 2
 2423              		.syntax unified
 2424              	@ 211 "Middlewares/Third_Party/FreeRTOS/Source/portable/GCC/ARM_CM4F/portmacro.h" 1
 2425 002c EFF31182 			mrs r2, basepri											
 2426 0030 4FF05003 		mov r3, #80												
 2427 0034 83F31188 		msr basepri, r3											
 2428 0038 BFF36F8F 		isb														
ARM GAS  C:\Users\Halil\AppData\Local\Temp\ccdYOoXG.s 			page 66


 2429 003c BFF34F8F 		dsb														
 2430              	
 2431              	@ 0 "" 2
 2432              		.thumb
 2433              		.syntax unified
 2434 0040 7A61     		str	r2, [r7, #20]
 2435 0042 3B61     		str	r3, [r7, #16]
 223:Middlewares/Third_Party/FreeRTOS/Source/portable/GCC/ARM_CM4F/portmacro.h **** }
 2436              		.loc 2 223 9
 2437 0044 7B69     		ldr	r3, [r7, #20]
 2438              	.LBE166:
 2439              	.LBE165:
1035:Middlewares/Third_Party/FreeRTOS/Source/stream_buffer.c **** 
1036:Middlewares/Third_Party/FreeRTOS/Source/stream_buffer.c **** 	uxSavedInterruptStatus = ( UBaseType_t ) portSET_INTERRUPT_MASK_FROM_ISR();
 2440              		.loc 1 1036 43
 2441 0046 FB61     		str	r3, [r7, #28]
1037:Middlewares/Third_Party/FreeRTOS/Source/stream_buffer.c **** 	{
1038:Middlewares/Third_Party/FreeRTOS/Source/stream_buffer.c **** 		if( ( pxStreamBuffer )->xTaskWaitingToReceive != NULL )
 2442              		.loc 1 1038 25
 2443 0048 3B6A     		ldr	r3, [r7, #32]
 2444 004a 1B69     		ldr	r3, [r3, #16]
 2445              		.loc 1 1038 5
 2446 004c 002B     		cmp	r3, #0
 2447 004e 0ED0     		beq	.L152
1039:Middlewares/Third_Party/FreeRTOS/Source/stream_buffer.c **** 		{
1040:Middlewares/Third_Party/FreeRTOS/Source/stream_buffer.c **** 			( void ) xTaskNotifyFromISR( ( pxStreamBuffer )->xTaskWaitingToReceive,
 2448              		.loc 1 1040 13
 2449 0050 3B6A     		ldr	r3, [r7, #32]
 2450 0052 1869     		ldr	r0, [r3, #16]
 2451 0054 3B68     		ldr	r3, [r7]
 2452 0056 0093     		str	r3, [sp]
 2453 0058 0023     		movs	r3, #0
 2454 005a 0022     		movs	r2, #0
 2455 005c 0021     		movs	r1, #0
 2456 005e FFF7FEFF 		bl	xTaskGenericNotifyFromISR
1041:Middlewares/Third_Party/FreeRTOS/Source/stream_buffer.c **** 										 ( uint32_t ) 0,
1042:Middlewares/Third_Party/FreeRTOS/Source/stream_buffer.c **** 										 eNoAction,
1043:Middlewares/Third_Party/FreeRTOS/Source/stream_buffer.c **** 										 pxHigherPriorityTaskWoken );
1044:Middlewares/Third_Party/FreeRTOS/Source/stream_buffer.c **** 			( pxStreamBuffer )->xTaskWaitingToReceive = NULL;
 2457              		.loc 1 1044 46
 2458 0062 3B6A     		ldr	r3, [r7, #32]
 2459 0064 0022     		movs	r2, #0
 2460 0066 1A61     		str	r2, [r3, #16]
1045:Middlewares/Third_Party/FreeRTOS/Source/stream_buffer.c **** 			xReturn = pdTRUE;
 2461              		.loc 1 1045 12
 2462 0068 0123     		movs	r3, #1
 2463 006a 7B62     		str	r3, [r7, #36]
 2464 006c 01E0     		b	.L153
 2465              	.L152:
1046:Middlewares/Third_Party/FreeRTOS/Source/stream_buffer.c **** 		}
1047:Middlewares/Third_Party/FreeRTOS/Source/stream_buffer.c **** 		else
1048:Middlewares/Third_Party/FreeRTOS/Source/stream_buffer.c **** 		{
1049:Middlewares/Third_Party/FreeRTOS/Source/stream_buffer.c **** 			xReturn = pdFALSE;
 2466              		.loc 1 1049 12
 2467 006e 0023     		movs	r3, #0
 2468 0070 7B62     		str	r3, [r7, #36]
 2469              	.L153:
ARM GAS  C:\Users\Halil\AppData\Local\Temp\ccdYOoXG.s 			page 67


 2470 0072 FB69     		ldr	r3, [r7, #28]
 2471 0074 FB60     		str	r3, [r7, #12]
 2472              	.LBB167:
 2473              	.LBB168:
 229:Middlewares/Third_Party/FreeRTOS/Source/portable/GCC/ARM_CM4F/portmacro.h **** 	(
 2474              		.loc 2 229 2
 2475 0076 FB68     		ldr	r3, [r7, #12]
 2476              		.syntax unified
 2477              	@ 229 "Middlewares/Third_Party/FreeRTOS/Source/portable/GCC/ARM_CM4F/portmacro.h" 1
 2478 0078 83F31188 			msr basepri, r3	
 2479              	@ 0 "" 2
 2480              		.loc 2 233 1
 2481              		.thumb
 2482              		.syntax unified
 2483 007c 00BF     		nop
 2484              	.LBE168:
 2485              	.LBE167:
1050:Middlewares/Third_Party/FreeRTOS/Source/stream_buffer.c **** 		}
1051:Middlewares/Third_Party/FreeRTOS/Source/stream_buffer.c **** 	}
1052:Middlewares/Third_Party/FreeRTOS/Source/stream_buffer.c **** 	portCLEAR_INTERRUPT_MASK_FROM_ISR( uxSavedInterruptStatus );
1053:Middlewares/Third_Party/FreeRTOS/Source/stream_buffer.c **** 
1054:Middlewares/Third_Party/FreeRTOS/Source/stream_buffer.c **** 	return xReturn;
 2486              		.loc 1 1054 9
 2487 007e 7B6A     		ldr	r3, [r7, #36]
1055:Middlewares/Third_Party/FreeRTOS/Source/stream_buffer.c **** }
 2488              		.loc 1 1055 1
 2489 0080 1846     		mov	r0, r3
 2490 0082 2837     		adds	r7, r7, #40
 2491              		.cfi_def_cfa_offset 8
 2492 0084 BD46     		mov	sp, r7
 2493              		.cfi_def_cfa_register 13
 2494              		@ sp needed
 2495 0086 80BD     		pop	{r7, pc}
 2496              		.cfi_endproc
 2497              	.LFE20:
 2499              		.section	.text.xStreamBufferReceiveCompletedFromISR,"ax",%progbits
 2500              		.align	1
 2501              		.global	xStreamBufferReceiveCompletedFromISR
 2502              		.syntax unified
 2503              		.thumb
 2504              		.thumb_func
 2506              	xStreamBufferReceiveCompletedFromISR:
 2507              	.LFB21:
1056:Middlewares/Third_Party/FreeRTOS/Source/stream_buffer.c **** /*-----------------------------------------------------------*/
1057:Middlewares/Third_Party/FreeRTOS/Source/stream_buffer.c **** 
1058:Middlewares/Third_Party/FreeRTOS/Source/stream_buffer.c **** BaseType_t xStreamBufferReceiveCompletedFromISR( StreamBufferHandle_t xStreamBuffer, BaseType_t *px
1059:Middlewares/Third_Party/FreeRTOS/Source/stream_buffer.c **** {
 2508              		.loc 1 1059 1
 2509              		.cfi_startproc
 2510              		@ args = 0, pretend = 0, frame = 40
 2511              		@ frame_needed = 1, uses_anonymous_args = 0
 2512 0000 80B5     		push	{r7, lr}
 2513              		.cfi_def_cfa_offset 8
 2514              		.cfi_offset 7, -8
 2515              		.cfi_offset 14, -4
 2516 0002 8CB0     		sub	sp, sp, #48
 2517              		.cfi_def_cfa_offset 56
ARM GAS  C:\Users\Halil\AppData\Local\Temp\ccdYOoXG.s 			page 68


 2518 0004 02AF     		add	r7, sp, #8
 2519              		.cfi_def_cfa 7, 48
 2520 0006 7860     		str	r0, [r7, #4]
 2521 0008 3960     		str	r1, [r7]
1060:Middlewares/Third_Party/FreeRTOS/Source/stream_buffer.c **** StreamBuffer_t * const pxStreamBuffer = xStreamBuffer;
 2522              		.loc 1 1060 24
 2523 000a 7B68     		ldr	r3, [r7, #4]
 2524 000c 3B62     		str	r3, [r7, #32]
1061:Middlewares/Third_Party/FreeRTOS/Source/stream_buffer.c **** BaseType_t xReturn;
1062:Middlewares/Third_Party/FreeRTOS/Source/stream_buffer.c **** UBaseType_t uxSavedInterruptStatus;
1063:Middlewares/Third_Party/FreeRTOS/Source/stream_buffer.c **** 
1064:Middlewares/Third_Party/FreeRTOS/Source/stream_buffer.c **** 	configASSERT( pxStreamBuffer );
 2525              		.loc 1 1064 2
 2526 000e 3B6A     		ldr	r3, [r7, #32]
 2527 0010 002B     		cmp	r3, #0
 2528 0012 0BD1     		bne	.L156
 2529              	.LBB169:
 2530              	.LBB170:
 195:Middlewares/Third_Party/FreeRTOS/Source/portable/GCC/ARM_CM4F/portmacro.h **** 	(
 2531              		.loc 2 195 2
 2532              		.syntax unified
 2533              	@ 195 "Middlewares/Third_Party/FreeRTOS/Source/portable/GCC/ARM_CM4F/portmacro.h" 1
 2534 0014 4FF05003 			mov r3, #80												
 2535 0018 83F31188 		msr basepri, r3											
 2536 001c BFF36F8F 		isb														
 2537 0020 BFF34F8F 		dsb														
 2538              	
 2539              	@ 0 "" 2
 2540              		.thumb
 2541              		.syntax unified
 2542 0024 BB61     		str	r3, [r7, #24]
 203:Middlewares/Third_Party/FreeRTOS/Source/portable/GCC/ARM_CM4F/portmacro.h **** 
 2543              		.loc 2 203 1
 2544 0026 00BF     		nop
 2545              	.L157:
 2546              	.LBE170:
 2547              	.LBE169:
 2548              		.loc 1 1064 2 discriminator 1
 2549 0028 00BF     		nop
 2550 002a FDE7     		b	.L157
 2551              	.L156:
 2552              	.LBB171:
 2553              	.LBB172:
 211:Middlewares/Third_Party/FreeRTOS/Source/portable/GCC/ARM_CM4F/portmacro.h **** 	(
 2554              		.loc 2 211 2
 2555              		.syntax unified
 2556              	@ 211 "Middlewares/Third_Party/FreeRTOS/Source/portable/GCC/ARM_CM4F/portmacro.h" 1
 2557 002c EFF31182 			mrs r2, basepri											
 2558 0030 4FF05003 		mov r3, #80												
 2559 0034 83F31188 		msr basepri, r3											
 2560 0038 BFF36F8F 		isb														
 2561 003c BFF34F8F 		dsb														
 2562              	
 2563              	@ 0 "" 2
 2564              		.thumb
 2565              		.syntax unified
 2566 0040 7A61     		str	r2, [r7, #20]
ARM GAS  C:\Users\Halil\AppData\Local\Temp\ccdYOoXG.s 			page 69


 2567 0042 3B61     		str	r3, [r7, #16]
 223:Middlewares/Third_Party/FreeRTOS/Source/portable/GCC/ARM_CM4F/portmacro.h **** }
 2568              		.loc 2 223 9
 2569 0044 7B69     		ldr	r3, [r7, #20]
 2570              	.LBE172:
 2571              	.LBE171:
1065:Middlewares/Third_Party/FreeRTOS/Source/stream_buffer.c **** 
1066:Middlewares/Third_Party/FreeRTOS/Source/stream_buffer.c **** 	uxSavedInterruptStatus = ( UBaseType_t ) portSET_INTERRUPT_MASK_FROM_ISR();
 2572              		.loc 1 1066 43
 2573 0046 FB61     		str	r3, [r7, #28]
1067:Middlewares/Third_Party/FreeRTOS/Source/stream_buffer.c **** 	{
1068:Middlewares/Third_Party/FreeRTOS/Source/stream_buffer.c **** 		if( ( pxStreamBuffer )->xTaskWaitingToSend != NULL )
 2574              		.loc 1 1068 25
 2575 0048 3B6A     		ldr	r3, [r7, #32]
 2576 004a 5B69     		ldr	r3, [r3, #20]
 2577              		.loc 1 1068 5
 2578 004c 002B     		cmp	r3, #0
 2579 004e 0ED0     		beq	.L159
1069:Middlewares/Third_Party/FreeRTOS/Source/stream_buffer.c **** 		{
1070:Middlewares/Third_Party/FreeRTOS/Source/stream_buffer.c **** 			( void ) xTaskNotifyFromISR( ( pxStreamBuffer )->xTaskWaitingToSend,
 2580              		.loc 1 1070 13
 2581 0050 3B6A     		ldr	r3, [r7, #32]
 2582 0052 5869     		ldr	r0, [r3, #20]
 2583 0054 3B68     		ldr	r3, [r7]
 2584 0056 0093     		str	r3, [sp]
 2585 0058 0023     		movs	r3, #0
 2586 005a 0022     		movs	r2, #0
 2587 005c 0021     		movs	r1, #0
 2588 005e FFF7FEFF 		bl	xTaskGenericNotifyFromISR
1071:Middlewares/Third_Party/FreeRTOS/Source/stream_buffer.c **** 										 ( uint32_t ) 0,
1072:Middlewares/Third_Party/FreeRTOS/Source/stream_buffer.c **** 										 eNoAction,
1073:Middlewares/Third_Party/FreeRTOS/Source/stream_buffer.c **** 										 pxHigherPriorityTaskWoken );
1074:Middlewares/Third_Party/FreeRTOS/Source/stream_buffer.c **** 			( pxStreamBuffer )->xTaskWaitingToSend = NULL;
 2589              		.loc 1 1074 43
 2590 0062 3B6A     		ldr	r3, [r7, #32]
 2591 0064 0022     		movs	r2, #0
 2592 0066 5A61     		str	r2, [r3, #20]
1075:Middlewares/Third_Party/FreeRTOS/Source/stream_buffer.c **** 			xReturn = pdTRUE;
 2593              		.loc 1 1075 12
 2594 0068 0123     		movs	r3, #1
 2595 006a 7B62     		str	r3, [r7, #36]
 2596 006c 01E0     		b	.L160
 2597              	.L159:
1076:Middlewares/Third_Party/FreeRTOS/Source/stream_buffer.c **** 		}
1077:Middlewares/Third_Party/FreeRTOS/Source/stream_buffer.c **** 		else
1078:Middlewares/Third_Party/FreeRTOS/Source/stream_buffer.c **** 		{
1079:Middlewares/Third_Party/FreeRTOS/Source/stream_buffer.c **** 			xReturn = pdFALSE;
 2598              		.loc 1 1079 12
 2599 006e 0023     		movs	r3, #0
 2600 0070 7B62     		str	r3, [r7, #36]
 2601              	.L160:
 2602 0072 FB69     		ldr	r3, [r7, #28]
 2603 0074 FB60     		str	r3, [r7, #12]
 2604              	.LBB173:
 2605              	.LBB174:
 229:Middlewares/Third_Party/FreeRTOS/Source/portable/GCC/ARM_CM4F/portmacro.h **** 	(
 2606              		.loc 2 229 2
ARM GAS  C:\Users\Halil\AppData\Local\Temp\ccdYOoXG.s 			page 70


 2607 0076 FB68     		ldr	r3, [r7, #12]
 2608              		.syntax unified
 2609              	@ 229 "Middlewares/Third_Party/FreeRTOS/Source/portable/GCC/ARM_CM4F/portmacro.h" 1
 2610 0078 83F31188 			msr basepri, r3	
 2611              	@ 0 "" 2
 2612              		.loc 2 233 1
 2613              		.thumb
 2614              		.syntax unified
 2615 007c 00BF     		nop
 2616              	.LBE174:
 2617              	.LBE173:
1080:Middlewares/Third_Party/FreeRTOS/Source/stream_buffer.c **** 		}
1081:Middlewares/Third_Party/FreeRTOS/Source/stream_buffer.c **** 	}
1082:Middlewares/Third_Party/FreeRTOS/Source/stream_buffer.c **** 	portCLEAR_INTERRUPT_MASK_FROM_ISR( uxSavedInterruptStatus );
1083:Middlewares/Third_Party/FreeRTOS/Source/stream_buffer.c **** 
1084:Middlewares/Third_Party/FreeRTOS/Source/stream_buffer.c **** 	return xReturn;
 2618              		.loc 1 1084 9
 2619 007e 7B6A     		ldr	r3, [r7, #36]
1085:Middlewares/Third_Party/FreeRTOS/Source/stream_buffer.c **** }
 2620              		.loc 1 1085 1
 2621 0080 1846     		mov	r0, r3
 2622 0082 2837     		adds	r7, r7, #40
 2623              		.cfi_def_cfa_offset 8
 2624 0084 BD46     		mov	sp, r7
 2625              		.cfi_def_cfa_register 13
 2626              		@ sp needed
 2627 0086 80BD     		pop	{r7, pc}
 2628              		.cfi_endproc
 2629              	.LFE21:
 2631              		.section	.text.prvWriteBytesToBuffer,"ax",%progbits
 2632              		.align	1
 2633              		.syntax unified
 2634              		.thumb
 2635              		.thumb_func
 2637              	prvWriteBytesToBuffer:
 2638              	.LFB22:
1086:Middlewares/Third_Party/FreeRTOS/Source/stream_buffer.c **** /*-----------------------------------------------------------*/
1087:Middlewares/Third_Party/FreeRTOS/Source/stream_buffer.c **** 
1088:Middlewares/Third_Party/FreeRTOS/Source/stream_buffer.c **** static size_t prvWriteBytesToBuffer( StreamBuffer_t * const pxStreamBuffer, const uint8_t *pucData,
1089:Middlewares/Third_Party/FreeRTOS/Source/stream_buffer.c **** {
 2639              		.loc 1 1089 1
 2640              		.cfi_startproc
 2641              		@ args = 0, pretend = 0, frame = 40
 2642              		@ frame_needed = 1, uses_anonymous_args = 0
 2643 0000 80B5     		push	{r7, lr}
 2644              		.cfi_def_cfa_offset 8
 2645              		.cfi_offset 7, -8
 2646              		.cfi_offset 14, -4
 2647 0002 8AB0     		sub	sp, sp, #40
 2648              		.cfi_def_cfa_offset 48
 2649 0004 00AF     		add	r7, sp, #0
 2650              		.cfi_def_cfa_register 7
 2651 0006 F860     		str	r0, [r7, #12]
 2652 0008 B960     		str	r1, [r7, #8]
 2653 000a 7A60     		str	r2, [r7, #4]
1090:Middlewares/Third_Party/FreeRTOS/Source/stream_buffer.c **** size_t xNextHead, xFirstLength;
1091:Middlewares/Third_Party/FreeRTOS/Source/stream_buffer.c **** 
ARM GAS  C:\Users\Halil\AppData\Local\Temp\ccdYOoXG.s 			page 71


1092:Middlewares/Third_Party/FreeRTOS/Source/stream_buffer.c **** 	configASSERT( xCount > ( size_t ) 0 );
 2654              		.loc 1 1092 2
 2655 000c 7B68     		ldr	r3, [r7, #4]
 2656 000e 002B     		cmp	r3, #0
 2657 0010 0BD1     		bne	.L163
 2658              	.LBB175:
 2659              	.LBB176:
 195:Middlewares/Third_Party/FreeRTOS/Source/portable/GCC/ARM_CM4F/portmacro.h **** 	(
 2660              		.loc 2 195 2
 2661              		.syntax unified
 2662              	@ 195 "Middlewares/Third_Party/FreeRTOS/Source/portable/GCC/ARM_CM4F/portmacro.h" 1
 2663 0012 4FF05003 			mov r3, #80												
 2664 0016 83F31188 		msr basepri, r3											
 2665 001a BFF36F8F 		isb														
 2666 001e BFF34F8F 		dsb														
 2667              	
 2668              	@ 0 "" 2
 2669              		.thumb
 2670              		.syntax unified
 2671 0022 FB61     		str	r3, [r7, #28]
 203:Middlewares/Third_Party/FreeRTOS/Source/portable/GCC/ARM_CM4F/portmacro.h **** 
 2672              		.loc 2 203 1
 2673 0024 00BF     		nop
 2674              	.L164:
 2675              	.LBE176:
 2676              	.LBE175:
 2677              		.loc 1 1092 2 discriminator 1
 2678 0026 00BF     		nop
 2679 0028 FDE7     		b	.L164
 2680              	.L163:
1093:Middlewares/Third_Party/FreeRTOS/Source/stream_buffer.c **** 
1094:Middlewares/Third_Party/FreeRTOS/Source/stream_buffer.c **** 	xNextHead = pxStreamBuffer->xHead;
 2681              		.loc 1 1094 12
 2682 002a FB68     		ldr	r3, [r7, #12]
 2683 002c 5B68     		ldr	r3, [r3, #4]
 2684 002e 7B62     		str	r3, [r7, #36]
1095:Middlewares/Third_Party/FreeRTOS/Source/stream_buffer.c **** 
1096:Middlewares/Third_Party/FreeRTOS/Source/stream_buffer.c **** 	/* Calculate the number of bytes that can be added in the first write -
1097:Middlewares/Third_Party/FreeRTOS/Source/stream_buffer.c **** 	which may be less than the total number of bytes that need to be added if
1098:Middlewares/Third_Party/FreeRTOS/Source/stream_buffer.c **** 	the buffer will wrap back to the beginning. */
1099:Middlewares/Third_Party/FreeRTOS/Source/stream_buffer.c **** 	xFirstLength = configMIN( pxStreamBuffer->xLength - xNextHead, xCount );
 2685              		.loc 1 1099 17
 2686 0030 FB68     		ldr	r3, [r7, #12]
 2687 0032 9A68     		ldr	r2, [r3, #8]
 2688 0034 7B6A     		ldr	r3, [r7, #36]
 2689 0036 D31A     		subs	r3, r2, r3
 2690              		.loc 1 1099 15
 2691 0038 7A68     		ldr	r2, [r7, #4]
 2692 003a 9342     		cmp	r3, r2
 2693 003c 28BF     		it	cs
 2694 003e 1346     		movcs	r3, r2
 2695 0040 3B62     		str	r3, [r7, #32]
1100:Middlewares/Third_Party/FreeRTOS/Source/stream_buffer.c **** 
1101:Middlewares/Third_Party/FreeRTOS/Source/stream_buffer.c **** 	/* Write as many bytes as can be written in the first write. */
1102:Middlewares/Third_Party/FreeRTOS/Source/stream_buffer.c **** 	configASSERT( ( xNextHead + xFirstLength ) <= pxStreamBuffer->xLength );
 2696              		.loc 1 1102 2
 2697 0042 7A6A     		ldr	r2, [r7, #36]
ARM GAS  C:\Users\Halil\AppData\Local\Temp\ccdYOoXG.s 			page 72


 2698 0044 3B6A     		ldr	r3, [r7, #32]
 2699 0046 1A44     		add	r2, r2, r3
 2700 0048 FB68     		ldr	r3, [r7, #12]
 2701 004a 9B68     		ldr	r3, [r3, #8]
 2702 004c 9A42     		cmp	r2, r3
 2703 004e 0BD9     		bls	.L165
 2704              	.LBB177:
 2705              	.LBB178:
 195:Middlewares/Third_Party/FreeRTOS/Source/portable/GCC/ARM_CM4F/portmacro.h **** 	(
 2706              		.loc 2 195 2
 2707              		.syntax unified
 2708              	@ 195 "Middlewares/Third_Party/FreeRTOS/Source/portable/GCC/ARM_CM4F/portmacro.h" 1
 2709 0050 4FF05003 			mov r3, #80												
 2710 0054 83F31188 		msr basepri, r3											
 2711 0058 BFF36F8F 		isb														
 2712 005c BFF34F8F 		dsb														
 2713              	
 2714              	@ 0 "" 2
 2715              		.thumb
 2716              		.syntax unified
 2717 0060 BB61     		str	r3, [r7, #24]
 203:Middlewares/Third_Party/FreeRTOS/Source/portable/GCC/ARM_CM4F/portmacro.h **** 
 2718              		.loc 2 203 1
 2719 0062 00BF     		nop
 2720              	.L166:
 2721              	.LBE178:
 2722              	.LBE177:
 2723              		.loc 1 1102 2 discriminator 2
 2724 0064 00BF     		nop
 2725 0066 FDE7     		b	.L166
 2726              	.L165:
1103:Middlewares/Third_Party/FreeRTOS/Source/stream_buffer.c **** 	( void ) memcpy( ( void* ) ( &( pxStreamBuffer->pucBuffer[ xNextHead ] ) ), ( const void * ) pucDa
 2727              		.loc 1 1103 48
 2728 0068 FB68     		ldr	r3, [r7, #12]
 2729 006a 9A69     		ldr	r2, [r3, #24]
 2730              		.loc 1 1103 31
 2731 006c 7B6A     		ldr	r3, [r7, #36]
 2732 006e 1344     		add	r3, r3, r2
 2733              		.loc 1 1103 11
 2734 0070 3A6A     		ldr	r2, [r7, #32]
 2735 0072 B968     		ldr	r1, [r7, #8]
 2736 0074 1846     		mov	r0, r3
 2737 0076 FFF7FEFF 		bl	memcpy
1104:Middlewares/Third_Party/FreeRTOS/Source/stream_buffer.c **** 
1105:Middlewares/Third_Party/FreeRTOS/Source/stream_buffer.c **** 	/* If the number of bytes written was less than the number that could be
1106:Middlewares/Third_Party/FreeRTOS/Source/stream_buffer.c **** 	written in the first write... */
1107:Middlewares/Third_Party/FreeRTOS/Source/stream_buffer.c **** 	if( xCount > xFirstLength )
 2738              		.loc 1 1107 4
 2739 007a 7A68     		ldr	r2, [r7, #4]
 2740 007c 3B6A     		ldr	r3, [r7, #32]
 2741 007e 9A42     		cmp	r2, r3
 2742 0080 1DD9     		bls	.L167
1108:Middlewares/Third_Party/FreeRTOS/Source/stream_buffer.c **** 	{
1109:Middlewares/Third_Party/FreeRTOS/Source/stream_buffer.c **** 		/* ...then write the remaining bytes to the start of the buffer. */
1110:Middlewares/Third_Party/FreeRTOS/Source/stream_buffer.c **** 		configASSERT( ( xCount - xFirstLength ) <= pxStreamBuffer->xLength );
 2743              		.loc 1 1110 3
 2744 0082 7A68     		ldr	r2, [r7, #4]
ARM GAS  C:\Users\Halil\AppData\Local\Temp\ccdYOoXG.s 			page 73


 2745 0084 3B6A     		ldr	r3, [r7, #32]
 2746 0086 D21A     		subs	r2, r2, r3
 2747 0088 FB68     		ldr	r3, [r7, #12]
 2748 008a 9B68     		ldr	r3, [r3, #8]
 2749 008c 9A42     		cmp	r2, r3
 2750 008e 0BD9     		bls	.L168
 2751              	.LBB179:
 2752              	.LBB180:
 195:Middlewares/Third_Party/FreeRTOS/Source/portable/GCC/ARM_CM4F/portmacro.h **** 	(
 2753              		.loc 2 195 2
 2754              		.syntax unified
 2755              	@ 195 "Middlewares/Third_Party/FreeRTOS/Source/portable/GCC/ARM_CM4F/portmacro.h" 1
 2756 0090 4FF05003 			mov r3, #80												
 2757 0094 83F31188 		msr basepri, r3											
 2758 0098 BFF36F8F 		isb														
 2759 009c BFF34F8F 		dsb														
 2760              	
 2761              	@ 0 "" 2
 2762              		.thumb
 2763              		.syntax unified
 2764 00a0 7B61     		str	r3, [r7, #20]
 203:Middlewares/Third_Party/FreeRTOS/Source/portable/GCC/ARM_CM4F/portmacro.h **** 
 2765              		.loc 2 203 1
 2766 00a2 00BF     		nop
 2767              	.L169:
 2768              	.LBE180:
 2769              	.LBE179:
 2770              		.loc 1 1110 3 discriminator 3
 2771 00a4 00BF     		nop
 2772 00a6 FDE7     		b	.L169
 2773              	.L168:
1111:Middlewares/Third_Party/FreeRTOS/Source/stream_buffer.c **** 		( void ) memcpy( ( void * ) pxStreamBuffer->pucBuffer, ( const void * ) &( pucData[ xFirstLength 
 2774              		.loc 1 1111 45
 2775 00a8 FB68     		ldr	r3, [r7, #12]
 2776 00aa 9869     		ldr	r0, [r3, #24]
 2777              		.loc 1 1111 75
 2778 00ac BA68     		ldr	r2, [r7, #8]
 2779 00ae 3B6A     		ldr	r3, [r7, #32]
 2780 00b0 D118     		adds	r1, r2, r3
 2781              		.loc 1 1111 12
 2782 00b2 7A68     		ldr	r2, [r7, #4]
 2783 00b4 3B6A     		ldr	r3, [r7, #32]
 2784 00b6 D31A     		subs	r3, r2, r3
 2785 00b8 1A46     		mov	r2, r3
 2786 00ba FFF7FEFF 		bl	memcpy
 2787              	.L167:
1112:Middlewares/Third_Party/FreeRTOS/Source/stream_buffer.c **** 	}
1113:Middlewares/Third_Party/FreeRTOS/Source/stream_buffer.c **** 	else
1114:Middlewares/Third_Party/FreeRTOS/Source/stream_buffer.c **** 	{
1115:Middlewares/Third_Party/FreeRTOS/Source/stream_buffer.c **** 		mtCOVERAGE_TEST_MARKER();
1116:Middlewares/Third_Party/FreeRTOS/Source/stream_buffer.c **** 	}
1117:Middlewares/Third_Party/FreeRTOS/Source/stream_buffer.c **** 
1118:Middlewares/Third_Party/FreeRTOS/Source/stream_buffer.c **** 	xNextHead += xCount;
 2788              		.loc 1 1118 12
 2789 00be 7A6A     		ldr	r2, [r7, #36]
 2790 00c0 7B68     		ldr	r3, [r7, #4]
 2791 00c2 1344     		add	r3, r3, r2
ARM GAS  C:\Users\Halil\AppData\Local\Temp\ccdYOoXG.s 			page 74


 2792 00c4 7B62     		str	r3, [r7, #36]
1119:Middlewares/Third_Party/FreeRTOS/Source/stream_buffer.c **** 	if( xNextHead >= pxStreamBuffer->xLength )
 2793              		.loc 1 1119 33
 2794 00c6 FB68     		ldr	r3, [r7, #12]
 2795 00c8 9B68     		ldr	r3, [r3, #8]
 2796              		.loc 1 1119 4
