ARM GAS  C:\Users\Halil\AppData\Local\Temp\ccLApd7e.s 			page 1


   1              		.cpu cortex-m4
   2              		.arch armv7e-m
   3              		.fpu fpv4-sp-d16
   4              		.eabi_attribute 27, 1
   5              		.eabi_attribute 28, 1
   6              		.eabi_attribute 20, 1
   7              		.eabi_attribute 21, 1
   8              		.eabi_attribute 23, 3
   9              		.eabi_attribute 24, 1
  10              		.eabi_attribute 25, 1
  11              		.eabi_attribute 26, 1
  12              		.eabi_attribute 30, 6
  13              		.eabi_attribute 34, 1
  14              		.eabi_attribute 18, 4
  15              		.file	"user_diskio.c"
  16              		.text
  17              	.Ltext0:
  18              		.cfi_sections	.debug_frame
  19              		.file 1 "FATFS/Target/user_diskio.c"
  20              		.section	.data.Stat,"aw"
  23              	Stat:
  24 0000 01       		.byte	1
  25              		.global	USER_Driver
  26              		.section	.data.USER_Driver,"aw"
  27              		.align	2
  30              	USER_Driver:
  31 0000 00000000 		.word	USER_initialize
  32 0004 00000000 		.word	USER_status
  33 0008 00000000 		.word	USER_read
  34 000c 00000000 		.word	USER_write
  35 0010 00000000 		.word	USER_ioctl
  36              		.section	.text.USER_initialize,"ax",%progbits
  37              		.align	1
  38              		.global	USER_initialize
  39              		.syntax unified
  40              		.thumb
  41              		.thumb_func
  43              	USER_initialize:
  44              	.LFB243:
   1:FATFS/Target/user_diskio.c **** /* USER CODE BEGIN Header */
   2:FATFS/Target/user_diskio.c **** /**
   3:FATFS/Target/user_diskio.c ****  ******************************************************************************
   4:FATFS/Target/user_diskio.c ****   * @file    user_diskio.c
   5:FATFS/Target/user_diskio.c ****   * @brief   This file includes a diskio driver skeleton to be completed by the user.
   6:FATFS/Target/user_diskio.c ****   ******************************************************************************
   7:FATFS/Target/user_diskio.c ****   * @attention
   8:FATFS/Target/user_diskio.c ****   *
   9:FATFS/Target/user_diskio.c ****   * Copyright (c) 2025 STMicroelectronics.
  10:FATFS/Target/user_diskio.c ****   * All rights reserved.
  11:FATFS/Target/user_diskio.c ****   *
  12:FATFS/Target/user_diskio.c ****   * This software is licensed under terms that can be found in the LICENSE file
  13:FATFS/Target/user_diskio.c ****   * in the root directory of this software component.
  14:FATFS/Target/user_diskio.c ****   * If no LICENSE file comes with this software, it is provided AS-IS.
  15:FATFS/Target/user_diskio.c ****   *
  16:FATFS/Target/user_diskio.c ****   ******************************************************************************
  17:FATFS/Target/user_diskio.c ****   */
  18:FATFS/Target/user_diskio.c ****  /* USER CODE END Header */
ARM GAS  C:\Users\Halil\AppData\Local\Temp\ccLApd7e.s 			page 2


  19:FATFS/Target/user_diskio.c **** 
  20:FATFS/Target/user_diskio.c **** #ifdef USE_OBSOLETE_USER_CODE_SECTION_0
  21:FATFS/Target/user_diskio.c **** /*
  22:FATFS/Target/user_diskio.c ****  * Warning: the user section 0 is no more in use (starting from CubeMx version 4.16.0)
  23:FATFS/Target/user_diskio.c ****  * To be suppressed in the future.
  24:FATFS/Target/user_diskio.c ****  * Kept to ensure backward compatibility with previous CubeMx versions when
  25:FATFS/Target/user_diskio.c ****  * migrating projects.
  26:FATFS/Target/user_diskio.c ****  * User code previously added there should be copied in the new user sections before
  27:FATFS/Target/user_diskio.c ****  * the section contents can be deleted.
  28:FATFS/Target/user_diskio.c ****  */
  29:FATFS/Target/user_diskio.c **** /* USER CODE BEGIN 0 */
  30:FATFS/Target/user_diskio.c **** /* USER CODE END 0 */
  31:FATFS/Target/user_diskio.c **** #endif
  32:FATFS/Target/user_diskio.c **** 
  33:FATFS/Target/user_diskio.c **** /* USER CODE BEGIN DECL */
  34:FATFS/Target/user_diskio.c **** 
  35:FATFS/Target/user_diskio.c **** /* Includes ------------------------------------------------------------------*/
  36:FATFS/Target/user_diskio.c **** #include <string.h>
  37:FATFS/Target/user_diskio.c **** #include "ff_gen_drv.h"
  38:FATFS/Target/user_diskio.c **** 
  39:FATFS/Target/user_diskio.c **** /* Private typedef -----------------------------------------------------------*/
  40:FATFS/Target/user_diskio.c **** /* Private define ------------------------------------------------------------*/
  41:FATFS/Target/user_diskio.c **** #include "user_diskio_spi.h"
  42:FATFS/Target/user_diskio.c **** /* Private variables ---------------------------------------------------------*/
  43:FATFS/Target/user_diskio.c **** /* Disk status */
  44:FATFS/Target/user_diskio.c **** static volatile DSTATUS Stat = STA_NOINIT;
  45:FATFS/Target/user_diskio.c **** 
  46:FATFS/Target/user_diskio.c **** /* USER CODE END DECL */
  47:FATFS/Target/user_diskio.c **** 
  48:FATFS/Target/user_diskio.c **** /* Private function prototypes -----------------------------------------------*/
  49:FATFS/Target/user_diskio.c **** DSTATUS USER_initialize (BYTE pdrv);
  50:FATFS/Target/user_diskio.c **** DSTATUS USER_status (BYTE pdrv);
  51:FATFS/Target/user_diskio.c **** DRESULT USER_read (BYTE pdrv, BYTE *buff, DWORD sector, UINT count);
  52:FATFS/Target/user_diskio.c **** #if _USE_WRITE == 1
  53:FATFS/Target/user_diskio.c ****   DRESULT USER_write (BYTE pdrv, const BYTE *buff, DWORD sector, UINT count);
  54:FATFS/Target/user_diskio.c **** #endif /* _USE_WRITE == 1 */
  55:FATFS/Target/user_diskio.c **** #if _USE_IOCTL == 1
  56:FATFS/Target/user_diskio.c ****   DRESULT USER_ioctl (BYTE pdrv, BYTE cmd, void *buff);
  57:FATFS/Target/user_diskio.c **** #endif /* _USE_IOCTL == 1 */
  58:FATFS/Target/user_diskio.c **** 
  59:FATFS/Target/user_diskio.c **** Diskio_drvTypeDef  USER_Driver =
  60:FATFS/Target/user_diskio.c **** {
  61:FATFS/Target/user_diskio.c ****   USER_initialize,
  62:FATFS/Target/user_diskio.c ****   USER_status,
  63:FATFS/Target/user_diskio.c ****   USER_read,
  64:FATFS/Target/user_diskio.c **** #if  _USE_WRITE
  65:FATFS/Target/user_diskio.c ****   USER_write,
  66:FATFS/Target/user_diskio.c **** #endif  /* _USE_WRITE == 1 */
  67:FATFS/Target/user_diskio.c **** #if  _USE_IOCTL == 1
  68:FATFS/Target/user_diskio.c ****   USER_ioctl,
  69:FATFS/Target/user_diskio.c **** #endif /* _USE_IOCTL == 1 */
  70:FATFS/Target/user_diskio.c **** };
  71:FATFS/Target/user_diskio.c **** 
  72:FATFS/Target/user_diskio.c **** /* Private functions ---------------------------------------------------------*/
  73:FATFS/Target/user_diskio.c **** 
  74:FATFS/Target/user_diskio.c **** /**
  75:FATFS/Target/user_diskio.c ****   * @brief  Initializes a Drive
ARM GAS  C:\Users\Halil\AppData\Local\Temp\ccLApd7e.s 			page 3


  76:FATFS/Target/user_diskio.c ****   * @param  pdrv: Physical drive number (0..)
  77:FATFS/Target/user_diskio.c ****   * @retval DSTATUS: Operation status
  78:FATFS/Target/user_diskio.c ****   */
  79:FATFS/Target/user_diskio.c **** DSTATUS USER_initialize (
  80:FATFS/Target/user_diskio.c **** 	BYTE pdrv           /* Physical drive nmuber to identify the drive */
  81:FATFS/Target/user_diskio.c **** )
  82:FATFS/Target/user_diskio.c **** {
  45              		.loc 1 82 1
  46              		.cfi_startproc
  47              		@ args = 0, pretend = 0, frame = 8
  48              		@ frame_needed = 1, uses_anonymous_args = 0
  49 0000 80B5     		push	{r7, lr}
  50              		.cfi_def_cfa_offset 8
  51              		.cfi_offset 7, -8
  52              		.cfi_offset 14, -4
  53 0002 82B0     		sub	sp, sp, #8
  54              		.cfi_def_cfa_offset 16
  55 0004 00AF     		add	r7, sp, #0
  56              		.cfi_def_cfa_register 7
  57 0006 0346     		mov	r3, r0
  58 0008 FB71     		strb	r3, [r7, #7]
  83:FATFS/Target/user_diskio.c ****   /* USER CODE BEGIN INIT */
  84:FATFS/Target/user_diskio.c **** 	return USER_SPI_initialize(pdrv);
  59              		.loc 1 84 9
  60 000a FB79     		ldrb	r3, [r7, #7]	@ zero_extendqisi2
  61 000c 1846     		mov	r0, r3
  62 000e FFF7FEFF 		bl	USER_SPI_initialize
  63 0012 0346     		mov	r3, r0
  85:FATFS/Target/user_diskio.c ****   /* USER CODE END INIT */
  86:FATFS/Target/user_diskio.c **** }
  64              		.loc 1 86 1
  65 0014 1846     		mov	r0, r3
  66 0016 0837     		adds	r7, r7, #8
  67              		.cfi_def_cfa_offset 8
  68 0018 BD46     		mov	sp, r7
  69              		.cfi_def_cfa_register 13
  70              		@ sp needed
  71 001a 80BD     		pop	{r7, pc}
  72              		.cfi_endproc
  73              	.LFE243:
  75              		.section	.text.USER_status,"ax",%progbits
  76              		.align	1
  77              		.global	USER_status
  78              		.syntax unified
  79              		.thumb
  80              		.thumb_func
  82              	USER_status:
  83              	.LFB244:
  87:FATFS/Target/user_diskio.c **** 
  88:FATFS/Target/user_diskio.c **** /**
  89:FATFS/Target/user_diskio.c ****   * @brief  Gets Disk Status
  90:FATFS/Target/user_diskio.c ****   * @param  pdrv: Physical drive number (0..)
  91:FATFS/Target/user_diskio.c ****   * @retval DSTATUS: Operation status
  92:FATFS/Target/user_diskio.c ****   */
  93:FATFS/Target/user_diskio.c **** DSTATUS USER_status (
  94:FATFS/Target/user_diskio.c **** 	BYTE pdrv       /* Physical drive number to identify the drive */
  95:FATFS/Target/user_diskio.c **** )
ARM GAS  C:\Users\Halil\AppData\Local\Temp\ccLApd7e.s 			page 4


  96:FATFS/Target/user_diskio.c **** {
  84              		.loc 1 96 1
  85              		.cfi_startproc
  86              		@ args = 0, pretend = 0, frame = 8
  87              		@ frame_needed = 1, uses_anonymous_args = 0
  88 0000 80B5     		push	{r7, lr}
  89              		.cfi_def_cfa_offset 8
  90              		.cfi_offset 7, -8
  91              		.cfi_offset 14, -4
  92 0002 82B0     		sub	sp, sp, #8
  93              		.cfi_def_cfa_offset 16
  94 0004 00AF     		add	r7, sp, #0
  95              		.cfi_def_cfa_register 7
  96 0006 0346     		mov	r3, r0
  97 0008 FB71     		strb	r3, [r7, #7]
  97:FATFS/Target/user_diskio.c ****   /* USER CODE BEGIN STATUS */
  98:FATFS/Target/user_diskio.c **** 	return USER_SPI_status(pdrv);
  98              		.loc 1 98 9
  99 000a FB79     		ldrb	r3, [r7, #7]	@ zero_extendqisi2
 100 000c 1846     		mov	r0, r3
 101 000e FFF7FEFF 		bl	USER_SPI_status
 102 0012 0346     		mov	r3, r0
  99:FATFS/Target/user_diskio.c ****   /* USER CODE END STATUS */
 100:FATFS/Target/user_diskio.c **** }
 103              		.loc 1 100 1
 104 0014 1846     		mov	r0, r3
 105 0016 0837     		adds	r7, r7, #8
 106              		.cfi_def_cfa_offset 8
 107 0018 BD46     		mov	sp, r7
 108              		.cfi_def_cfa_register 13
 109              		@ sp needed
 110 001a 80BD     		pop	{r7, pc}
 111              		.cfi_endproc
 112              	.LFE244:
 114              		.section	.text.USER_read,"ax",%progbits
 115              		.align	1
 116              		.global	USER_read
 117              		.syntax unified
 118              		.thumb
 119              		.thumb_func
 121              	USER_read:
 122              	.LFB245:
 101:FATFS/Target/user_diskio.c **** 
 102:FATFS/Target/user_diskio.c **** /**
 103:FATFS/Target/user_diskio.c ****   * @brief  Reads Sector(s)
 104:FATFS/Target/user_diskio.c ****   * @param  pdrv: Physical drive number (0..)
 105:FATFS/Target/user_diskio.c ****   * @param  *buff: Data buffer to store read data
 106:FATFS/Target/user_diskio.c ****   * @param  sector: Sector address (LBA)
 107:FATFS/Target/user_diskio.c ****   * @param  count: Number of sectors to read (1..128)
 108:FATFS/Target/user_diskio.c ****   * @retval DRESULT: Operation result
 109:FATFS/Target/user_diskio.c ****   */
 110:FATFS/Target/user_diskio.c **** DRESULT USER_read (
 111:FATFS/Target/user_diskio.c **** 	BYTE pdrv,      /* Physical drive nmuber to identify the drive */
 112:FATFS/Target/user_diskio.c **** 	BYTE *buff,     /* Data buffer to store read data */
 113:FATFS/Target/user_diskio.c **** 	DWORD sector,   /* Sector address in LBA */
 114:FATFS/Target/user_diskio.c **** 	UINT count      /* Number of sectors to read */
 115:FATFS/Target/user_diskio.c **** )
ARM GAS  C:\Users\Halil\AppData\Local\Temp\ccLApd7e.s 			page 5


 116:FATFS/Target/user_diskio.c **** {
 123              		.loc 1 116 1
 124              		.cfi_startproc
 125              		@ args = 0, pretend = 0, frame = 16
 126              		@ frame_needed = 1, uses_anonymous_args = 0
 127 0000 80B5     		push	{r7, lr}
 128              		.cfi_def_cfa_offset 8
 129              		.cfi_offset 7, -8
 130              		.cfi_offset 14, -4
 131 0002 84B0     		sub	sp, sp, #16
 132              		.cfi_def_cfa_offset 24
 133 0004 00AF     		add	r7, sp, #0
 134              		.cfi_def_cfa_register 7
 135 0006 B960     		str	r1, [r7, #8]
 136 0008 7A60     		str	r2, [r7, #4]
 137 000a 3B60     		str	r3, [r7]
 138 000c 0346     		mov	r3, r0
 139 000e FB73     		strb	r3, [r7, #15]
 117:FATFS/Target/user_diskio.c ****   /* USER CODE BEGIN READ */
 118:FATFS/Target/user_diskio.c **** 	return USER_SPI_read(pdrv, buff, sector, count);
 140              		.loc 1 118 9
 141 0010 F87B     		ldrb	r0, [r7, #15]	@ zero_extendqisi2
 142 0012 3B68     		ldr	r3, [r7]
 143 0014 7A68     		ldr	r2, [r7, #4]
 144 0016 B968     		ldr	r1, [r7, #8]
 145 0018 FFF7FEFF 		bl	USER_SPI_read
 146 001c 0346     		mov	r3, r0
 119:FATFS/Target/user_diskio.c ****   /* USER CODE END READ */
 120:FATFS/Target/user_diskio.c **** }
 147              		.loc 1 120 1
 148 001e 1846     		mov	r0, r3
 149 0020 1037     		adds	r7, r7, #16
 150              		.cfi_def_cfa_offset 8
 151 0022 BD46     		mov	sp, r7
 152              		.cfi_def_cfa_register 13
 153              		@ sp needed
 154 0024 80BD     		pop	{r7, pc}
 155              		.cfi_endproc
 156              	.LFE245:
 158              		.section	.text.USER_write,"ax",%progbits
 159              		.align	1
 160              		.global	USER_write
 161              		.syntax unified
 162              		.thumb
 163              		.thumb_func
 165              	USER_write:
 166              	.LFB246:
 121:FATFS/Target/user_diskio.c **** 
 122:FATFS/Target/user_diskio.c **** /**
 123:FATFS/Target/user_diskio.c ****   * @brief  Writes Sector(s)
 124:FATFS/Target/user_diskio.c ****   * @param  pdrv: Physical drive number (0..)
 125:FATFS/Target/user_diskio.c ****   * @param  *buff: Data to be written
 126:FATFS/Target/user_diskio.c ****   * @param  sector: Sector address (LBA)
 127:FATFS/Target/user_diskio.c ****   * @param  count: Number of sectors to write (1..128)
 128:FATFS/Target/user_diskio.c ****   * @retval DRESULT: Operation result
 129:FATFS/Target/user_diskio.c ****   */
 130:FATFS/Target/user_diskio.c **** #if _USE_WRITE == 1
ARM GAS  C:\Users\Halil\AppData\Local\Temp\ccLApd7e.s 			page 6


 131:FATFS/Target/user_diskio.c **** DRESULT USER_write (
 132:FATFS/Target/user_diskio.c **** 	BYTE pdrv,          /* Physical drive nmuber to identify the drive */
 133:FATFS/Target/user_diskio.c **** 	const BYTE *buff,   /* Data to be written */
 134:FATFS/Target/user_diskio.c **** 	DWORD sector,       /* Sector address in LBA */
 135:FATFS/Target/user_diskio.c **** 	UINT count          /* Number of sectors to write */
 136:FATFS/Target/user_diskio.c **** )
 137:FATFS/Target/user_diskio.c **** {
 167              		.loc 1 137 1
 168              		.cfi_startproc
 169              		@ args = 0, pretend = 0, frame = 16
 170              		@ frame_needed = 1, uses_anonymous_args = 0
 171 0000 80B5     		push	{r7, lr}
 172              		.cfi_def_cfa_offset 8
 173              		.cfi_offset 7, -8
 174              		.cfi_offset 14, -4
 175 0002 84B0     		sub	sp, sp, #16
 176              		.cfi_def_cfa_offset 24
 177 0004 00AF     		add	r7, sp, #0
 178              		.cfi_def_cfa_register 7
 179 0006 B960     		str	r1, [r7, #8]
 180 0008 7A60     		str	r2, [r7, #4]
 181 000a 3B60     		str	r3, [r7]
 182 000c 0346     		mov	r3, r0
 183 000e FB73     		strb	r3, [r7, #15]
 138:FATFS/Target/user_diskio.c ****   /* USER CODE BEGIN WRITE */
 139:FATFS/Target/user_diskio.c ****   /* USER CODE HERE */
 140:FATFS/Target/user_diskio.c **** 	return USER_SPI_write(pdrv, buff, sector, count);
 184              		.loc 1 140 9
 185 0010 F87B     		ldrb	r0, [r7, #15]	@ zero_extendqisi2
 186 0012 3B68     		ldr	r3, [r7]
 187 0014 7A68     		ldr	r2, [r7, #4]
 188 0016 B968     		ldr	r1, [r7, #8]
 189 0018 FFF7FEFF 		bl	USER_SPI_write
 190 001c 0346     		mov	r3, r0
 141:FATFS/Target/user_diskio.c ****   /* USER CODE END WRITE */
 142:FATFS/Target/user_diskio.c **** }
 191              		.loc 1 142 1
 192 001e 1846     		mov	r0, r3
 193 0020 1037     		adds	r7, r7, #16
 194              		.cfi_def_cfa_offset 8
 195 0022 BD46     		mov	sp, r7
 196              		.cfi_def_cfa_register 13
 197              		@ sp needed
 198 0024 80BD     		pop	{r7, pc}
 199              		.cfi_endproc
 200              	.LFE246:
 202              		.section	.text.USER_ioctl,"ax",%progbits
 203              		.align	1
 204              		.global	USER_ioctl
 205              		.syntax unified
 206              		.thumb
 207              		.thumb_func
 209              	USER_ioctl:
 210              	.LFB247:
 143:FATFS/Target/user_diskio.c **** #endif /* _USE_WRITE == 1 */
 144:FATFS/Target/user_diskio.c **** 
 145:FATFS/Target/user_diskio.c **** /**
ARM GAS  C:\Users\Halil\AppData\Local\Temp\ccLApd7e.s 			page 7


 146:FATFS/Target/user_diskio.c ****   * @brief  I/O control operation
 147:FATFS/Target/user_diskio.c ****   * @param  pdrv: Physical drive number (0..)
 148:FATFS/Target/user_diskio.c ****   * @param  cmd: Control code
 149:FATFS/Target/user_diskio.c ****   * @param  *buff: Buffer to send/receive control data
 150:FATFS/Target/user_diskio.c ****   * @retval DRESULT: Operation result
 151:FATFS/Target/user_diskio.c ****   */
 152:FATFS/Target/user_diskio.c **** #if _USE_IOCTL == 1
 153:FATFS/Target/user_diskio.c **** DRESULT USER_ioctl (
 154:FATFS/Target/user_diskio.c **** 	BYTE pdrv,      /* Physical drive nmuber (0..) */
 155:FATFS/Target/user_diskio.c **** 	BYTE cmd,       /* Control code */
 156:FATFS/Target/user_diskio.c **** 	void *buff      /* Buffer to send/receive control data */
 157:FATFS/Target/user_diskio.c **** )
 158:FATFS/Target/user_diskio.c **** {
 211              		.loc 1 158 1
 212              		.cfi_startproc
 213              		@ args = 0, pretend = 0, frame = 8
 214              		@ frame_needed = 1, uses_anonymous_args = 0
 215 0000 80B5     		push	{r7, lr}
 216              		.cfi_def_cfa_offset 8
 217              		.cfi_offset 7, -8
 218              		.cfi_offset 14, -4
 219 0002 82B0     		sub	sp, sp, #8
 220              		.cfi_def_cfa_offset 16
 221 0004 00AF     		add	r7, sp, #0
 222              		.cfi_def_cfa_register 7
 223 0006 0346     		mov	r3, r0
 224 0008 3A60     		str	r2, [r7]
 225 000a FB71     		strb	r3, [r7, #7]
 226 000c 0B46     		mov	r3, r1
 227 000e BB71     		strb	r3, [r7, #6]
 159:FATFS/Target/user_diskio.c ****   /* USER CODE BEGIN IOCTL */
 160:FATFS/Target/user_diskio.c **** 	return USER_SPI_ioctl(pdrv, cmd, buff);
 228              		.loc 1 160 9
 229 0010 B979     		ldrb	r1, [r7, #6]	@ zero_extendqisi2
 230 0012 FB79     		ldrb	r3, [r7, #7]	@ zero_extendqisi2
 231 0014 3A68     		ldr	r2, [r7]
 232 0016 1846     		mov	r0, r3
 233 0018 FFF7FEFF 		bl	USER_SPI_ioctl
 234 001c 0346     		mov	r3, r0
 161:FATFS/Target/user_diskio.c ****   /* USER CODE END IOCTL */
 162:FATFS/Target/user_diskio.c **** }
 235              		.loc 1 162 1
 236 001e 1846     		mov	r0, r3
 237 0020 0837     		adds	r7, r7, #8
 238              		.cfi_def_cfa_offset 8
 239 0022 BD46     		mov	sp, r7
 240              		.cfi_def_cfa_register 13
 241              		@ sp needed
 242 0024 80BD     		pop	{r7, pc}
 243              		.cfi_endproc
 244              	.LFE247:
 246              		.text
 247              	.Letext0:
 248              		.file 2 "Middlewares/Third_Party/FatFs/src/integer.h"
 249              		.file 3 "Middlewares/Third_Party/FatFs/src/diskio.h"
 250              		.file 4 "Middlewares/Third_Party/FatFs/src/ff_gen_drv.h"
 251              		.file 5 "FATFS/Target/user_diskio_spi.h"
ARM GAS  C:\Users\Halil\AppData\Local\Temp\ccLApd7e.s 			page 8


ARM GAS  C:\Users\Halil\AppData\Local\Temp\ccLApd7e.s 			page 9

